
EE5BoomBox3.elf:     file format elf32-littlearm

Sections:
Idx Name          Size      VMA       LMA       File off  Algn
  0 .isr_vector   000001d8  08000000  08000000  00010000  2**0
                  CONTENTS, ALLOC, LOAD, READONLY, DATA
  1 .text         000062ac  080001e0  080001e0  000101e0  2**4
                  CONTENTS, ALLOC, LOAD, READONLY, CODE
  2 .rodata       000002c8  0800648c  0800648c  0001648c  2**2
                  CONTENTS, ALLOC, LOAD, READONLY, DATA
  3 .ARM.extab    00000000  08006754  08006754  000200b4  2**0
                  CONTENTS
  4 .ARM          00000008  08006754  08006754  00016754  2**2
                  CONTENTS, ALLOC, LOAD, READONLY, DATA
  5 .preinit_array 00000000  0800675c  0800675c  000200b4  2**0
                  CONTENTS, ALLOC, LOAD, DATA
  6 .init_array   00000004  0800675c  0800675c  0001675c  2**2
                  CONTENTS, ALLOC, LOAD, DATA
  7 .fini_array   00000004  08006760  08006760  00016760  2**2
                  CONTENTS, ALLOC, LOAD, DATA
  8 .data         000000b4  20000000  08006764  00020000  2**2
                  CONTENTS, ALLOC, LOAD, DATA
  9 .bss          00001c6c  200000b4  08006818  000200b4  2**2
                  ALLOC
 10 ._user_heap_stack 00000600  20001d20  08006818  00021d20  2**0
                  ALLOC
 11 .ARM.attributes 00000030  00000000  00000000  000200b4  2**0
                  CONTENTS, READONLY
 12 .comment      0000007b  00000000  00000000  000200e4  2**0
                  CONTENTS, READONLY
 13 .debug_frame  00000248  00000000  00000000  00020160  2**2
                  CONTENTS, READONLY, DEBUGGING

Disassembly of section .text:

080001e0 <__do_global_dtors_aux>:
 80001e0:	b510      	push	{r4, lr}
 80001e2:	4c05      	ldr	r4, [pc, #20]	; (80001f8 <__do_global_dtors_aux+0x18>)
 80001e4:	7823      	ldrb	r3, [r4, #0]
 80001e6:	b933      	cbnz	r3, 80001f6 <__do_global_dtors_aux+0x16>
 80001e8:	4b04      	ldr	r3, [pc, #16]	; (80001fc <__do_global_dtors_aux+0x1c>)
 80001ea:	b113      	cbz	r3, 80001f2 <__do_global_dtors_aux+0x12>
 80001ec:	4804      	ldr	r0, [pc, #16]	; (8000200 <__do_global_dtors_aux+0x20>)
 80001ee:	f3af 8000 	nop.w
 80001f2:	2301      	movs	r3, #1
 80001f4:	7023      	strb	r3, [r4, #0]
 80001f6:	bd10      	pop	{r4, pc}
 80001f8:	200000b4 	.word	0x200000b4
 80001fc:	00000000 	.word	0x00000000
 8000200:	08006474 	.word	0x08006474

08000204 <frame_dummy>:
 8000204:	b508      	push	{r3, lr}
 8000206:	4b03      	ldr	r3, [pc, #12]	; (8000214 <frame_dummy+0x10>)
 8000208:	b11b      	cbz	r3, 8000212 <frame_dummy+0xe>
 800020a:	4903      	ldr	r1, [pc, #12]	; (8000218 <frame_dummy+0x14>)
 800020c:	4803      	ldr	r0, [pc, #12]	; (800021c <frame_dummy+0x18>)
 800020e:	f3af 8000 	nop.w
 8000212:	bd08      	pop	{r3, pc}
 8000214:	00000000 	.word	0x00000000
 8000218:	200000b8 	.word	0x200000b8
 800021c:	08006474 	.word	0x08006474

08000220 <strlen>:
 8000220:	4603      	mov	r3, r0
 8000222:	f813 2b01 	ldrb.w	r2, [r3], #1
 8000226:	2a00      	cmp	r2, #0
 8000228:	d1fb      	bne.n	8000222 <strlen+0x2>
 800022a:	1a18      	subs	r0, r3, r0
 800022c:	3801      	subs	r0, #1
 800022e:	4770      	bx	lr

08000230 <__aeabi_drsub>:
 8000230:	f081 4100 	eor.w	r1, r1, #2147483648	; 0x80000000
 8000234:	e002      	b.n	800023c <__adddf3>
 8000236:	bf00      	nop

08000238 <__aeabi_dsub>:
 8000238:	f083 4300 	eor.w	r3, r3, #2147483648	; 0x80000000

0800023c <__adddf3>:
 800023c:	b530      	push	{r4, r5, lr}
 800023e:	ea4f 0441 	mov.w	r4, r1, lsl #1
 8000242:	ea4f 0543 	mov.w	r5, r3, lsl #1
 8000246:	ea94 0f05 	teq	r4, r5
 800024a:	bf08      	it	eq
 800024c:	ea90 0f02 	teqeq	r0, r2
 8000250:	bf1f      	itttt	ne
 8000252:	ea54 0c00 	orrsne.w	ip, r4, r0
 8000256:	ea55 0c02 	orrsne.w	ip, r5, r2
 800025a:	ea7f 5c64 	mvnsne.w	ip, r4, asr #21
 800025e:	ea7f 5c65 	mvnsne.w	ip, r5, asr #21
 8000262:	f000 80e2 	beq.w	800042a <__adddf3+0x1ee>
 8000266:	ea4f 5454 	mov.w	r4, r4, lsr #21
 800026a:	ebd4 5555 	rsbs	r5, r4, r5, lsr #21
 800026e:	bfb8      	it	lt
 8000270:	426d      	neglt	r5, r5
 8000272:	dd0c      	ble.n	800028e <__adddf3+0x52>
 8000274:	442c      	add	r4, r5
 8000276:	ea80 0202 	eor.w	r2, r0, r2
 800027a:	ea81 0303 	eor.w	r3, r1, r3
 800027e:	ea82 0000 	eor.w	r0, r2, r0
 8000282:	ea83 0101 	eor.w	r1, r3, r1
 8000286:	ea80 0202 	eor.w	r2, r0, r2
 800028a:	ea81 0303 	eor.w	r3, r1, r3
 800028e:	2d36      	cmp	r5, #54	; 0x36
 8000290:	bf88      	it	hi
 8000292:	bd30      	pophi	{r4, r5, pc}
 8000294:	f011 4f00 	tst.w	r1, #2147483648	; 0x80000000
 8000298:	ea4f 3101 	mov.w	r1, r1, lsl #12
 800029c:	f44f 1c80 	mov.w	ip, #1048576	; 0x100000
 80002a0:	ea4c 3111 	orr.w	r1, ip, r1, lsr #12
 80002a4:	d002      	beq.n	80002ac <__adddf3+0x70>
 80002a6:	4240      	negs	r0, r0
 80002a8:	eb61 0141 	sbc.w	r1, r1, r1, lsl #1
 80002ac:	f013 4f00 	tst.w	r3, #2147483648	; 0x80000000
 80002b0:	ea4f 3303 	mov.w	r3, r3, lsl #12
 80002b4:	ea4c 3313 	orr.w	r3, ip, r3, lsr #12
 80002b8:	d002      	beq.n	80002c0 <__adddf3+0x84>
 80002ba:	4252      	negs	r2, r2
 80002bc:	eb63 0343 	sbc.w	r3, r3, r3, lsl #1
 80002c0:	ea94 0f05 	teq	r4, r5
 80002c4:	f000 80a7 	beq.w	8000416 <__adddf3+0x1da>
 80002c8:	f1a4 0401 	sub.w	r4, r4, #1
 80002cc:	f1d5 0e20 	rsbs	lr, r5, #32
 80002d0:	db0d      	blt.n	80002ee <__adddf3+0xb2>
 80002d2:	fa02 fc0e 	lsl.w	ip, r2, lr
 80002d6:	fa22 f205 	lsr.w	r2, r2, r5
 80002da:	1880      	adds	r0, r0, r2
 80002dc:	f141 0100 	adc.w	r1, r1, #0
 80002e0:	fa03 f20e 	lsl.w	r2, r3, lr
 80002e4:	1880      	adds	r0, r0, r2
 80002e6:	fa43 f305 	asr.w	r3, r3, r5
 80002ea:	4159      	adcs	r1, r3
 80002ec:	e00e      	b.n	800030c <__adddf3+0xd0>
 80002ee:	f1a5 0520 	sub.w	r5, r5, #32
 80002f2:	f10e 0e20 	add.w	lr, lr, #32
 80002f6:	2a01      	cmp	r2, #1
 80002f8:	fa03 fc0e 	lsl.w	ip, r3, lr
 80002fc:	bf28      	it	cs
 80002fe:	f04c 0c02 	orrcs.w	ip, ip, #2
 8000302:	fa43 f305 	asr.w	r3, r3, r5
 8000306:	18c0      	adds	r0, r0, r3
 8000308:	eb51 71e3 	adcs.w	r1, r1, r3, asr #31
 800030c:	f001 4500 	and.w	r5, r1, #2147483648	; 0x80000000
 8000310:	d507      	bpl.n	8000322 <__adddf3+0xe6>
 8000312:	f04f 0e00 	mov.w	lr, #0
 8000316:	f1dc 0c00 	rsbs	ip, ip, #0
 800031a:	eb7e 0000 	sbcs.w	r0, lr, r0
 800031e:	eb6e 0101 	sbc.w	r1, lr, r1
 8000322:	f5b1 1f80 	cmp.w	r1, #1048576	; 0x100000
 8000326:	d31b      	bcc.n	8000360 <__adddf3+0x124>
 8000328:	f5b1 1f00 	cmp.w	r1, #2097152	; 0x200000
 800032c:	d30c      	bcc.n	8000348 <__adddf3+0x10c>
 800032e:	0849      	lsrs	r1, r1, #1
 8000330:	ea5f 0030 	movs.w	r0, r0, rrx
 8000334:	ea4f 0c3c 	mov.w	ip, ip, rrx
 8000338:	f104 0401 	add.w	r4, r4, #1
 800033c:	ea4f 5244 	mov.w	r2, r4, lsl #21
 8000340:	f512 0f80 	cmn.w	r2, #4194304	; 0x400000
 8000344:	f080 809a 	bcs.w	800047c <__adddf3+0x240>
 8000348:	f1bc 4f00 	cmp.w	ip, #2147483648	; 0x80000000
 800034c:	bf08      	it	eq
 800034e:	ea5f 0c50 	movseq.w	ip, r0, lsr #1
 8000352:	f150 0000 	adcs.w	r0, r0, #0
 8000356:	eb41 5104 	adc.w	r1, r1, r4, lsl #20
 800035a:	ea41 0105 	orr.w	r1, r1, r5
 800035e:	bd30      	pop	{r4, r5, pc}
 8000360:	ea5f 0c4c 	movs.w	ip, ip, lsl #1
 8000364:	4140      	adcs	r0, r0
 8000366:	eb41 0101 	adc.w	r1, r1, r1
 800036a:	f411 1f80 	tst.w	r1, #1048576	; 0x100000
 800036e:	f1a4 0401 	sub.w	r4, r4, #1
 8000372:	d1e9      	bne.n	8000348 <__adddf3+0x10c>
 8000374:	f091 0f00 	teq	r1, #0
 8000378:	bf04      	itt	eq
 800037a:	4601      	moveq	r1, r0
 800037c:	2000      	moveq	r0, #0
 800037e:	fab1 f381 	clz	r3, r1
 8000382:	bf08      	it	eq
 8000384:	3320      	addeq	r3, #32
 8000386:	f1a3 030b 	sub.w	r3, r3, #11
 800038a:	f1b3 0220 	subs.w	r2, r3, #32
 800038e:	da0c      	bge.n	80003aa <__adddf3+0x16e>
 8000390:	320c      	adds	r2, #12
 8000392:	dd08      	ble.n	80003a6 <__adddf3+0x16a>
 8000394:	f102 0c14 	add.w	ip, r2, #20
 8000398:	f1c2 020c 	rsb	r2, r2, #12
 800039c:	fa01 f00c 	lsl.w	r0, r1, ip
 80003a0:	fa21 f102 	lsr.w	r1, r1, r2
 80003a4:	e00c      	b.n	80003c0 <__adddf3+0x184>
 80003a6:	f102 0214 	add.w	r2, r2, #20
 80003aa:	bfd8      	it	le
 80003ac:	f1c2 0c20 	rsble	ip, r2, #32
 80003b0:	fa01 f102 	lsl.w	r1, r1, r2
 80003b4:	fa20 fc0c 	lsr.w	ip, r0, ip
 80003b8:	bfdc      	itt	le
 80003ba:	ea41 010c 	orrle.w	r1, r1, ip
 80003be:	4090      	lslle	r0, r2
 80003c0:	1ae4      	subs	r4, r4, r3
 80003c2:	bfa2      	ittt	ge
 80003c4:	eb01 5104 	addge.w	r1, r1, r4, lsl #20
 80003c8:	4329      	orrge	r1, r5
 80003ca:	bd30      	popge	{r4, r5, pc}
 80003cc:	ea6f 0404 	mvn.w	r4, r4
 80003d0:	3c1f      	subs	r4, #31
 80003d2:	da1c      	bge.n	800040e <__adddf3+0x1d2>
 80003d4:	340c      	adds	r4, #12
 80003d6:	dc0e      	bgt.n	80003f6 <__adddf3+0x1ba>
 80003d8:	f104 0414 	add.w	r4, r4, #20
 80003dc:	f1c4 0220 	rsb	r2, r4, #32
 80003e0:	fa20 f004 	lsr.w	r0, r0, r4
 80003e4:	fa01 f302 	lsl.w	r3, r1, r2
 80003e8:	ea40 0003 	orr.w	r0, r0, r3
 80003ec:	fa21 f304 	lsr.w	r3, r1, r4
 80003f0:	ea45 0103 	orr.w	r1, r5, r3
 80003f4:	bd30      	pop	{r4, r5, pc}
 80003f6:	f1c4 040c 	rsb	r4, r4, #12
 80003fa:	f1c4 0220 	rsb	r2, r4, #32
 80003fe:	fa20 f002 	lsr.w	r0, r0, r2
 8000402:	fa01 f304 	lsl.w	r3, r1, r4
 8000406:	ea40 0003 	orr.w	r0, r0, r3
 800040a:	4629      	mov	r1, r5
 800040c:	bd30      	pop	{r4, r5, pc}
 800040e:	fa21 f004 	lsr.w	r0, r1, r4
 8000412:	4629      	mov	r1, r5
 8000414:	bd30      	pop	{r4, r5, pc}
 8000416:	f094 0f00 	teq	r4, #0
 800041a:	f483 1380 	eor.w	r3, r3, #1048576	; 0x100000
 800041e:	bf06      	itte	eq
 8000420:	f481 1180 	eoreq.w	r1, r1, #1048576	; 0x100000
 8000424:	3401      	addeq	r4, #1
 8000426:	3d01      	subne	r5, #1
 8000428:	e74e      	b.n	80002c8 <__adddf3+0x8c>
 800042a:	ea7f 5c64 	mvns.w	ip, r4, asr #21
 800042e:	bf18      	it	ne
 8000430:	ea7f 5c65 	mvnsne.w	ip, r5, asr #21
 8000434:	d029      	beq.n	800048a <__adddf3+0x24e>
 8000436:	ea94 0f05 	teq	r4, r5
 800043a:	bf08      	it	eq
 800043c:	ea90 0f02 	teqeq	r0, r2
 8000440:	d005      	beq.n	800044e <__adddf3+0x212>
 8000442:	ea54 0c00 	orrs.w	ip, r4, r0
 8000446:	bf04      	itt	eq
 8000448:	4619      	moveq	r1, r3
 800044a:	4610      	moveq	r0, r2
 800044c:	bd30      	pop	{r4, r5, pc}
 800044e:	ea91 0f03 	teq	r1, r3
 8000452:	bf1e      	ittt	ne
 8000454:	2100      	movne	r1, #0
 8000456:	2000      	movne	r0, #0
 8000458:	bd30      	popne	{r4, r5, pc}
 800045a:	ea5f 5c54 	movs.w	ip, r4, lsr #21
 800045e:	d105      	bne.n	800046c <__adddf3+0x230>
 8000460:	0040      	lsls	r0, r0, #1
 8000462:	4149      	adcs	r1, r1
 8000464:	bf28      	it	cs
 8000466:	f041 4100 	orrcs.w	r1, r1, #2147483648	; 0x80000000
 800046a:	bd30      	pop	{r4, r5, pc}
 800046c:	f514 0480 	adds.w	r4, r4, #4194304	; 0x400000
 8000470:	bf3c      	itt	cc
 8000472:	f501 1180 	addcc.w	r1, r1, #1048576	; 0x100000
 8000476:	bd30      	popcc	{r4, r5, pc}
 8000478:	f001 4500 	and.w	r5, r1, #2147483648	; 0x80000000
 800047c:	f045 41fe 	orr.w	r1, r5, #2130706432	; 0x7f000000
 8000480:	f441 0170 	orr.w	r1, r1, #15728640	; 0xf00000
 8000484:	f04f 0000 	mov.w	r0, #0
 8000488:	bd30      	pop	{r4, r5, pc}
 800048a:	ea7f 5c64 	mvns.w	ip, r4, asr #21
 800048e:	bf1a      	itte	ne
 8000490:	4619      	movne	r1, r3
 8000492:	4610      	movne	r0, r2
 8000494:	ea7f 5c65 	mvnseq.w	ip, r5, asr #21
 8000498:	bf1c      	itt	ne
 800049a:	460b      	movne	r3, r1
 800049c:	4602      	movne	r2, r0
 800049e:	ea50 3401 	orrs.w	r4, r0, r1, lsl #12
 80004a2:	bf06      	itte	eq
 80004a4:	ea52 3503 	orrseq.w	r5, r2, r3, lsl #12
 80004a8:	ea91 0f03 	teqeq	r1, r3
 80004ac:	f441 2100 	orrne.w	r1, r1, #524288	; 0x80000
 80004b0:	bd30      	pop	{r4, r5, pc}
 80004b2:	bf00      	nop

080004b4 <__aeabi_ui2d>:
 80004b4:	f090 0f00 	teq	r0, #0
 80004b8:	bf04      	itt	eq
 80004ba:	2100      	moveq	r1, #0
 80004bc:	4770      	bxeq	lr
 80004be:	b530      	push	{r4, r5, lr}
 80004c0:	f44f 6480 	mov.w	r4, #1024	; 0x400
 80004c4:	f104 0432 	add.w	r4, r4, #50	; 0x32
 80004c8:	f04f 0500 	mov.w	r5, #0
 80004cc:	f04f 0100 	mov.w	r1, #0
 80004d0:	e750      	b.n	8000374 <__adddf3+0x138>
 80004d2:	bf00      	nop

080004d4 <__aeabi_i2d>:
 80004d4:	f090 0f00 	teq	r0, #0
 80004d8:	bf04      	itt	eq
 80004da:	2100      	moveq	r1, #0
 80004dc:	4770      	bxeq	lr
 80004de:	b530      	push	{r4, r5, lr}
 80004e0:	f44f 6480 	mov.w	r4, #1024	; 0x400
 80004e4:	f104 0432 	add.w	r4, r4, #50	; 0x32
 80004e8:	f010 4500 	ands.w	r5, r0, #2147483648	; 0x80000000
 80004ec:	bf48      	it	mi
 80004ee:	4240      	negmi	r0, r0
 80004f0:	f04f 0100 	mov.w	r1, #0
 80004f4:	e73e      	b.n	8000374 <__adddf3+0x138>
 80004f6:	bf00      	nop

080004f8 <__aeabi_f2d>:
 80004f8:	0042      	lsls	r2, r0, #1
 80004fa:	ea4f 01e2 	mov.w	r1, r2, asr #3
 80004fe:	ea4f 0131 	mov.w	r1, r1, rrx
 8000502:	ea4f 7002 	mov.w	r0, r2, lsl #28
 8000506:	bf1f      	itttt	ne
 8000508:	f012 437f 	andsne.w	r3, r2, #4278190080	; 0xff000000
 800050c:	f093 4f7f 	teqne	r3, #4278190080	; 0xff000000
 8000510:	f081 5160 	eorne.w	r1, r1, #939524096	; 0x38000000
 8000514:	4770      	bxne	lr
 8000516:	f032 427f 	bics.w	r2, r2, #4278190080	; 0xff000000
 800051a:	bf08      	it	eq
 800051c:	4770      	bxeq	lr
 800051e:	f093 4f7f 	teq	r3, #4278190080	; 0xff000000
 8000522:	bf04      	itt	eq
 8000524:	f441 2100 	orreq.w	r1, r1, #524288	; 0x80000
 8000528:	4770      	bxeq	lr
 800052a:	b530      	push	{r4, r5, lr}
 800052c:	f44f 7460 	mov.w	r4, #896	; 0x380
 8000530:	f001 4500 	and.w	r5, r1, #2147483648	; 0x80000000
 8000534:	f021 4100 	bic.w	r1, r1, #2147483648	; 0x80000000
 8000538:	e71c      	b.n	8000374 <__adddf3+0x138>
 800053a:	bf00      	nop

0800053c <__aeabi_ul2d>:
 800053c:	ea50 0201 	orrs.w	r2, r0, r1
 8000540:	bf08      	it	eq
 8000542:	4770      	bxeq	lr
 8000544:	b530      	push	{r4, r5, lr}
 8000546:	f04f 0500 	mov.w	r5, #0
 800054a:	e00a      	b.n	8000562 <__aeabi_l2d+0x16>

0800054c <__aeabi_l2d>:
 800054c:	ea50 0201 	orrs.w	r2, r0, r1
 8000550:	bf08      	it	eq
 8000552:	4770      	bxeq	lr
 8000554:	b530      	push	{r4, r5, lr}
 8000556:	f011 4500 	ands.w	r5, r1, #2147483648	; 0x80000000
 800055a:	d502      	bpl.n	8000562 <__aeabi_l2d+0x16>
 800055c:	4240      	negs	r0, r0
 800055e:	eb61 0141 	sbc.w	r1, r1, r1, lsl #1
 8000562:	f44f 6480 	mov.w	r4, #1024	; 0x400
 8000566:	f104 0432 	add.w	r4, r4, #50	; 0x32
 800056a:	ea5f 5c91 	movs.w	ip, r1, lsr #22
 800056e:	f43f aed8 	beq.w	8000322 <__adddf3+0xe6>
 8000572:	f04f 0203 	mov.w	r2, #3
 8000576:	ea5f 0cdc 	movs.w	ip, ip, lsr #3
 800057a:	bf18      	it	ne
 800057c:	3203      	addne	r2, #3
 800057e:	ea5f 0cdc 	movs.w	ip, ip, lsr #3
 8000582:	bf18      	it	ne
 8000584:	3203      	addne	r2, #3
 8000586:	eb02 02dc 	add.w	r2, r2, ip, lsr #3
 800058a:	f1c2 0320 	rsb	r3, r2, #32
 800058e:	fa00 fc03 	lsl.w	ip, r0, r3
 8000592:	fa20 f002 	lsr.w	r0, r0, r2
 8000596:	fa01 fe03 	lsl.w	lr, r1, r3
 800059a:	ea40 000e 	orr.w	r0, r0, lr
 800059e:	fa21 f102 	lsr.w	r1, r1, r2
 80005a2:	4414      	add	r4, r2
 80005a4:	e6bd      	b.n	8000322 <__adddf3+0xe6>
 80005a6:	bf00      	nop

080005a8 <__aeabi_dmul>:
 80005a8:	b570      	push	{r4, r5, r6, lr}
 80005aa:	f04f 0cff 	mov.w	ip, #255	; 0xff
 80005ae:	f44c 6ce0 	orr.w	ip, ip, #1792	; 0x700
 80005b2:	ea1c 5411 	ands.w	r4, ip, r1, lsr #20
 80005b6:	bf1d      	ittte	ne
 80005b8:	ea1c 5513 	andsne.w	r5, ip, r3, lsr #20
 80005bc:	ea94 0f0c 	teqne	r4, ip
 80005c0:	ea95 0f0c 	teqne	r5, ip
 80005c4:	f000 f8de 	bleq	8000784 <__aeabi_dmul+0x1dc>
 80005c8:	442c      	add	r4, r5
 80005ca:	ea81 0603 	eor.w	r6, r1, r3
 80005ce:	ea21 514c 	bic.w	r1, r1, ip, lsl #21
 80005d2:	ea23 534c 	bic.w	r3, r3, ip, lsl #21
 80005d6:	ea50 3501 	orrs.w	r5, r0, r1, lsl #12
 80005da:	bf18      	it	ne
 80005dc:	ea52 3503 	orrsne.w	r5, r2, r3, lsl #12
 80005e0:	f441 1180 	orr.w	r1, r1, #1048576	; 0x100000
 80005e4:	f443 1380 	orr.w	r3, r3, #1048576	; 0x100000
 80005e8:	d038      	beq.n	800065c <__aeabi_dmul+0xb4>
 80005ea:	fba0 ce02 	umull	ip, lr, r0, r2
 80005ee:	f04f 0500 	mov.w	r5, #0
 80005f2:	fbe1 e502 	umlal	lr, r5, r1, r2
 80005f6:	f006 4200 	and.w	r2, r6, #2147483648	; 0x80000000
 80005fa:	fbe0 e503 	umlal	lr, r5, r0, r3
 80005fe:	f04f 0600 	mov.w	r6, #0
 8000602:	fbe1 5603 	umlal	r5, r6, r1, r3
 8000606:	f09c 0f00 	teq	ip, #0
 800060a:	bf18      	it	ne
 800060c:	f04e 0e01 	orrne.w	lr, lr, #1
 8000610:	f1a4 04ff 	sub.w	r4, r4, #255	; 0xff
 8000614:	f5b6 7f00 	cmp.w	r6, #512	; 0x200
 8000618:	f564 7440 	sbc.w	r4, r4, #768	; 0x300
 800061c:	d204      	bcs.n	8000628 <__aeabi_dmul+0x80>
 800061e:	ea5f 0e4e 	movs.w	lr, lr, lsl #1
 8000622:	416d      	adcs	r5, r5
 8000624:	eb46 0606 	adc.w	r6, r6, r6
 8000628:	ea42 21c6 	orr.w	r1, r2, r6, lsl #11
 800062c:	ea41 5155 	orr.w	r1, r1, r5, lsr #21
 8000630:	ea4f 20c5 	mov.w	r0, r5, lsl #11
 8000634:	ea40 505e 	orr.w	r0, r0, lr, lsr #21
 8000638:	ea4f 2ece 	mov.w	lr, lr, lsl #11
 800063c:	f1b4 0cfd 	subs.w	ip, r4, #253	; 0xfd
 8000640:	bf88      	it	hi
 8000642:	f5bc 6fe0 	cmphi.w	ip, #1792	; 0x700
 8000646:	d81e      	bhi.n	8000686 <__aeabi_dmul+0xde>
 8000648:	f1be 4f00 	cmp.w	lr, #2147483648	; 0x80000000
 800064c:	bf08      	it	eq
 800064e:	ea5f 0e50 	movseq.w	lr, r0, lsr #1
 8000652:	f150 0000 	adcs.w	r0, r0, #0
 8000656:	eb41 5104 	adc.w	r1, r1, r4, lsl #20
 800065a:	bd70      	pop	{r4, r5, r6, pc}
 800065c:	f006 4600 	and.w	r6, r6, #2147483648	; 0x80000000
 8000660:	ea46 0101 	orr.w	r1, r6, r1
 8000664:	ea40 0002 	orr.w	r0, r0, r2
 8000668:	ea81 0103 	eor.w	r1, r1, r3
 800066c:	ebb4 045c 	subs.w	r4, r4, ip, lsr #1
 8000670:	bfc2      	ittt	gt
 8000672:	ebd4 050c 	rsbsgt	r5, r4, ip
 8000676:	ea41 5104 	orrgt.w	r1, r1, r4, lsl #20
 800067a:	bd70      	popgt	{r4, r5, r6, pc}
 800067c:	f441 1180 	orr.w	r1, r1, #1048576	; 0x100000
 8000680:	f04f 0e00 	mov.w	lr, #0
 8000684:	3c01      	subs	r4, #1
 8000686:	f300 80ab 	bgt.w	80007e0 <__aeabi_dmul+0x238>
 800068a:	f114 0f36 	cmn.w	r4, #54	; 0x36
 800068e:	bfde      	ittt	le
 8000690:	2000      	movle	r0, #0
 8000692:	f001 4100 	andle.w	r1, r1, #2147483648	; 0x80000000
 8000696:	bd70      	pople	{r4, r5, r6, pc}
 8000698:	f1c4 0400 	rsb	r4, r4, #0
 800069c:	3c20      	subs	r4, #32
 800069e:	da35      	bge.n	800070c <__aeabi_dmul+0x164>
 80006a0:	340c      	adds	r4, #12
 80006a2:	dc1b      	bgt.n	80006dc <__aeabi_dmul+0x134>
 80006a4:	f104 0414 	add.w	r4, r4, #20
 80006a8:	f1c4 0520 	rsb	r5, r4, #32
 80006ac:	fa00 f305 	lsl.w	r3, r0, r5
 80006b0:	fa20 f004 	lsr.w	r0, r0, r4
 80006b4:	fa01 f205 	lsl.w	r2, r1, r5
 80006b8:	ea40 0002 	orr.w	r0, r0, r2
 80006bc:	f001 4200 	and.w	r2, r1, #2147483648	; 0x80000000
 80006c0:	f021 4100 	bic.w	r1, r1, #2147483648	; 0x80000000
 80006c4:	eb10 70d3 	adds.w	r0, r0, r3, lsr #31
 80006c8:	fa21 f604 	lsr.w	r6, r1, r4
 80006cc:	eb42 0106 	adc.w	r1, r2, r6
 80006d0:	ea5e 0e43 	orrs.w	lr, lr, r3, lsl #1
 80006d4:	bf08      	it	eq
 80006d6:	ea20 70d3 	biceq.w	r0, r0, r3, lsr #31
 80006da:	bd70      	pop	{r4, r5, r6, pc}
 80006dc:	f1c4 040c 	rsb	r4, r4, #12
 80006e0:	f1c4 0520 	rsb	r5, r4, #32
 80006e4:	fa00 f304 	lsl.w	r3, r0, r4
 80006e8:	fa20 f005 	lsr.w	r0, r0, r5
 80006ec:	fa01 f204 	lsl.w	r2, r1, r4
 80006f0:	ea40 0002 	orr.w	r0, r0, r2
 80006f4:	f001 4100 	and.w	r1, r1, #2147483648	; 0x80000000
 80006f8:	eb10 70d3 	adds.w	r0, r0, r3, lsr #31
 80006fc:	f141 0100 	adc.w	r1, r1, #0
 8000700:	ea5e 0e43 	orrs.w	lr, lr, r3, lsl #1
 8000704:	bf08      	it	eq
 8000706:	ea20 70d3 	biceq.w	r0, r0, r3, lsr #31
 800070a:	bd70      	pop	{r4, r5, r6, pc}
 800070c:	f1c4 0520 	rsb	r5, r4, #32
 8000710:	fa00 f205 	lsl.w	r2, r0, r5
 8000714:	ea4e 0e02 	orr.w	lr, lr, r2
 8000718:	fa20 f304 	lsr.w	r3, r0, r4
 800071c:	fa01 f205 	lsl.w	r2, r1, r5
 8000720:	ea43 0302 	orr.w	r3, r3, r2
 8000724:	fa21 f004 	lsr.w	r0, r1, r4
 8000728:	f001 4100 	and.w	r1, r1, #2147483648	; 0x80000000
 800072c:	fa21 f204 	lsr.w	r2, r1, r4
 8000730:	ea20 0002 	bic.w	r0, r0, r2
 8000734:	eb00 70d3 	add.w	r0, r0, r3, lsr #31
 8000738:	ea5e 0e43 	orrs.w	lr, lr, r3, lsl #1
 800073c:	bf08      	it	eq
 800073e:	ea20 70d3 	biceq.w	r0, r0, r3, lsr #31
 8000742:	bd70      	pop	{r4, r5, r6, pc}
 8000744:	f094 0f00 	teq	r4, #0
 8000748:	d10f      	bne.n	800076a <__aeabi_dmul+0x1c2>
 800074a:	f001 4600 	and.w	r6, r1, #2147483648	; 0x80000000
 800074e:	0040      	lsls	r0, r0, #1
 8000750:	eb41 0101 	adc.w	r1, r1, r1
 8000754:	f411 1f80 	tst.w	r1, #1048576	; 0x100000
 8000758:	bf08      	it	eq
 800075a:	3c01      	subeq	r4, #1
 800075c:	d0f7      	beq.n	800074e <__aeabi_dmul+0x1a6>
 800075e:	ea41 0106 	orr.w	r1, r1, r6
 8000762:	f095 0f00 	teq	r5, #0
 8000766:	bf18      	it	ne
 8000768:	4770      	bxne	lr
 800076a:	f003 4600 	and.w	r6, r3, #2147483648	; 0x80000000
 800076e:	0052      	lsls	r2, r2, #1
 8000770:	eb43 0303 	adc.w	r3, r3, r3
 8000774:	f413 1f80 	tst.w	r3, #1048576	; 0x100000
 8000778:	bf08      	it	eq
 800077a:	3d01      	subeq	r5, #1
 800077c:	d0f7      	beq.n	800076e <__aeabi_dmul+0x1c6>
 800077e:	ea43 0306 	orr.w	r3, r3, r6
 8000782:	4770      	bx	lr
 8000784:	ea94 0f0c 	teq	r4, ip
 8000788:	ea0c 5513 	and.w	r5, ip, r3, lsr #20
 800078c:	bf18      	it	ne
 800078e:	ea95 0f0c 	teqne	r5, ip
 8000792:	d00c      	beq.n	80007ae <__aeabi_dmul+0x206>
 8000794:	ea50 0641 	orrs.w	r6, r0, r1, lsl #1
 8000798:	bf18      	it	ne
 800079a:	ea52 0643 	orrsne.w	r6, r2, r3, lsl #1
 800079e:	d1d1      	bne.n	8000744 <__aeabi_dmul+0x19c>
 80007a0:	ea81 0103 	eor.w	r1, r1, r3
 80007a4:	f001 4100 	and.w	r1, r1, #2147483648	; 0x80000000
 80007a8:	f04f 0000 	mov.w	r0, #0
 80007ac:	bd70      	pop	{r4, r5, r6, pc}
 80007ae:	ea50 0641 	orrs.w	r6, r0, r1, lsl #1
 80007b2:	bf06      	itte	eq
 80007b4:	4610      	moveq	r0, r2
 80007b6:	4619      	moveq	r1, r3
 80007b8:	ea52 0643 	orrsne.w	r6, r2, r3, lsl #1
 80007bc:	d019      	beq.n	80007f2 <__aeabi_dmul+0x24a>
 80007be:	ea94 0f0c 	teq	r4, ip
 80007c2:	d102      	bne.n	80007ca <__aeabi_dmul+0x222>
 80007c4:	ea50 3601 	orrs.w	r6, r0, r1, lsl #12
 80007c8:	d113      	bne.n	80007f2 <__aeabi_dmul+0x24a>
 80007ca:	ea95 0f0c 	teq	r5, ip
 80007ce:	d105      	bne.n	80007dc <__aeabi_dmul+0x234>
 80007d0:	ea52 3603 	orrs.w	r6, r2, r3, lsl #12
 80007d4:	bf1c      	itt	ne
 80007d6:	4610      	movne	r0, r2
 80007d8:	4619      	movne	r1, r3
 80007da:	d10a      	bne.n	80007f2 <__aeabi_dmul+0x24a>
 80007dc:	ea81 0103 	eor.w	r1, r1, r3
 80007e0:	f001 4100 	and.w	r1, r1, #2147483648	; 0x80000000
 80007e4:	f041 41fe 	orr.w	r1, r1, #2130706432	; 0x7f000000
 80007e8:	f441 0170 	orr.w	r1, r1, #15728640	; 0xf00000
 80007ec:	f04f 0000 	mov.w	r0, #0
 80007f0:	bd70      	pop	{r4, r5, r6, pc}
 80007f2:	f041 41fe 	orr.w	r1, r1, #2130706432	; 0x7f000000
 80007f6:	f441 0178 	orr.w	r1, r1, #16252928	; 0xf80000
 80007fa:	bd70      	pop	{r4, r5, r6, pc}

080007fc <__aeabi_ddiv>:
 80007fc:	b570      	push	{r4, r5, r6, lr}
 80007fe:	f04f 0cff 	mov.w	ip, #255	; 0xff
 8000802:	f44c 6ce0 	orr.w	ip, ip, #1792	; 0x700
 8000806:	ea1c 5411 	ands.w	r4, ip, r1, lsr #20
 800080a:	bf1d      	ittte	ne
 800080c:	ea1c 5513 	andsne.w	r5, ip, r3, lsr #20
 8000810:	ea94 0f0c 	teqne	r4, ip
 8000814:	ea95 0f0c 	teqne	r5, ip
 8000818:	f000 f8a7 	bleq	800096a <__aeabi_ddiv+0x16e>
 800081c:	eba4 0405 	sub.w	r4, r4, r5
 8000820:	ea81 0e03 	eor.w	lr, r1, r3
 8000824:	ea52 3503 	orrs.w	r5, r2, r3, lsl #12
 8000828:	ea4f 3101 	mov.w	r1, r1, lsl #12
 800082c:	f000 8088 	beq.w	8000940 <__aeabi_ddiv+0x144>
 8000830:	ea4f 3303 	mov.w	r3, r3, lsl #12
 8000834:	f04f 5580 	mov.w	r5, #268435456	; 0x10000000
 8000838:	ea45 1313 	orr.w	r3, r5, r3, lsr #4
 800083c:	ea43 6312 	orr.w	r3, r3, r2, lsr #24
 8000840:	ea4f 2202 	mov.w	r2, r2, lsl #8
 8000844:	ea45 1511 	orr.w	r5, r5, r1, lsr #4
 8000848:	ea45 6510 	orr.w	r5, r5, r0, lsr #24
 800084c:	ea4f 2600 	mov.w	r6, r0, lsl #8
 8000850:	f00e 4100 	and.w	r1, lr, #2147483648	; 0x80000000
 8000854:	429d      	cmp	r5, r3
 8000856:	bf08      	it	eq
 8000858:	4296      	cmpeq	r6, r2
 800085a:	f144 04fd 	adc.w	r4, r4, #253	; 0xfd
 800085e:	f504 7440 	add.w	r4, r4, #768	; 0x300
 8000862:	d202      	bcs.n	800086a <__aeabi_ddiv+0x6e>
 8000864:	085b      	lsrs	r3, r3, #1
 8000866:	ea4f 0232 	mov.w	r2, r2, rrx
 800086a:	1ab6      	subs	r6, r6, r2
 800086c:	eb65 0503 	sbc.w	r5, r5, r3
 8000870:	085b      	lsrs	r3, r3, #1
 8000872:	ea4f 0232 	mov.w	r2, r2, rrx
 8000876:	f44f 1080 	mov.w	r0, #1048576	; 0x100000
 800087a:	f44f 2c00 	mov.w	ip, #524288	; 0x80000
 800087e:	ebb6 0e02 	subs.w	lr, r6, r2
 8000882:	eb75 0e03 	sbcs.w	lr, r5, r3
 8000886:	bf22      	ittt	cs
 8000888:	1ab6      	subcs	r6, r6, r2
 800088a:	4675      	movcs	r5, lr
 800088c:	ea40 000c 	orrcs.w	r0, r0, ip
 8000890:	085b      	lsrs	r3, r3, #1
 8000892:	ea4f 0232 	mov.w	r2, r2, rrx
 8000896:	ebb6 0e02 	subs.w	lr, r6, r2
 800089a:	eb75 0e03 	sbcs.w	lr, r5, r3
 800089e:	bf22      	ittt	cs
 80008a0:	1ab6      	subcs	r6, r6, r2
 80008a2:	4675      	movcs	r5, lr
 80008a4:	ea40 005c 	orrcs.w	r0, r0, ip, lsr #1
 80008a8:	085b      	lsrs	r3, r3, #1
 80008aa:	ea4f 0232 	mov.w	r2, r2, rrx
 80008ae:	ebb6 0e02 	subs.w	lr, r6, r2
 80008b2:	eb75 0e03 	sbcs.w	lr, r5, r3
 80008b6:	bf22      	ittt	cs
 80008b8:	1ab6      	subcs	r6, r6, r2
 80008ba:	4675      	movcs	r5, lr
 80008bc:	ea40 009c 	orrcs.w	r0, r0, ip, lsr #2
 80008c0:	085b      	lsrs	r3, r3, #1
 80008c2:	ea4f 0232 	mov.w	r2, r2, rrx
 80008c6:	ebb6 0e02 	subs.w	lr, r6, r2
 80008ca:	eb75 0e03 	sbcs.w	lr, r5, r3
 80008ce:	bf22      	ittt	cs
 80008d0:	1ab6      	subcs	r6, r6, r2
 80008d2:	4675      	movcs	r5, lr
 80008d4:	ea40 00dc 	orrcs.w	r0, r0, ip, lsr #3
 80008d8:	ea55 0e06 	orrs.w	lr, r5, r6
 80008dc:	d018      	beq.n	8000910 <__aeabi_ddiv+0x114>
 80008de:	ea4f 1505 	mov.w	r5, r5, lsl #4
 80008e2:	ea45 7516 	orr.w	r5, r5, r6, lsr #28
 80008e6:	ea4f 1606 	mov.w	r6, r6, lsl #4
 80008ea:	ea4f 03c3 	mov.w	r3, r3, lsl #3
 80008ee:	ea43 7352 	orr.w	r3, r3, r2, lsr #29
 80008f2:	ea4f 02c2 	mov.w	r2, r2, lsl #3
 80008f6:	ea5f 1c1c 	movs.w	ip, ip, lsr #4
 80008fa:	d1c0      	bne.n	800087e <__aeabi_ddiv+0x82>
 80008fc:	f411 1f80 	tst.w	r1, #1048576	; 0x100000
 8000900:	d10b      	bne.n	800091a <__aeabi_ddiv+0x11e>
 8000902:	ea41 0100 	orr.w	r1, r1, r0
 8000906:	f04f 0000 	mov.w	r0, #0
 800090a:	f04f 4c00 	mov.w	ip, #2147483648	; 0x80000000
 800090e:	e7b6      	b.n	800087e <__aeabi_ddiv+0x82>
 8000910:	f411 1f80 	tst.w	r1, #1048576	; 0x100000
 8000914:	bf04      	itt	eq
 8000916:	4301      	orreq	r1, r0
 8000918:	2000      	moveq	r0, #0
 800091a:	f1b4 0cfd 	subs.w	ip, r4, #253	; 0xfd
 800091e:	bf88      	it	hi
 8000920:	f5bc 6fe0 	cmphi.w	ip, #1792	; 0x700
 8000924:	f63f aeaf 	bhi.w	8000686 <__aeabi_dmul+0xde>
 8000928:	ebb5 0c03 	subs.w	ip, r5, r3
 800092c:	bf04      	itt	eq
 800092e:	ebb6 0c02 	subseq.w	ip, r6, r2
 8000932:	ea5f 0c50 	movseq.w	ip, r0, lsr #1
 8000936:	f150 0000 	adcs.w	r0, r0, #0
 800093a:	eb41 5104 	adc.w	r1, r1, r4, lsl #20
 800093e:	bd70      	pop	{r4, r5, r6, pc}
 8000940:	f00e 4e00 	and.w	lr, lr, #2147483648	; 0x80000000
 8000944:	ea4e 3111 	orr.w	r1, lr, r1, lsr #12
 8000948:	eb14 045c 	adds.w	r4, r4, ip, lsr #1
 800094c:	bfc2      	ittt	gt
 800094e:	ebd4 050c 	rsbsgt	r5, r4, ip
 8000952:	ea41 5104 	orrgt.w	r1, r1, r4, lsl #20
 8000956:	bd70      	popgt	{r4, r5, r6, pc}
 8000958:	f441 1180 	orr.w	r1, r1, #1048576	; 0x100000
 800095c:	f04f 0e00 	mov.w	lr, #0
 8000960:	3c01      	subs	r4, #1
 8000962:	e690      	b.n	8000686 <__aeabi_dmul+0xde>
 8000964:	ea45 0e06 	orr.w	lr, r5, r6
 8000968:	e68d      	b.n	8000686 <__aeabi_dmul+0xde>
 800096a:	ea0c 5513 	and.w	r5, ip, r3, lsr #20
 800096e:	ea94 0f0c 	teq	r4, ip
 8000972:	bf08      	it	eq
 8000974:	ea95 0f0c 	teqeq	r5, ip
 8000978:	f43f af3b 	beq.w	80007f2 <__aeabi_dmul+0x24a>
 800097c:	ea94 0f0c 	teq	r4, ip
 8000980:	d10a      	bne.n	8000998 <__aeabi_ddiv+0x19c>
 8000982:	ea50 3401 	orrs.w	r4, r0, r1, lsl #12
 8000986:	f47f af34 	bne.w	80007f2 <__aeabi_dmul+0x24a>
 800098a:	ea95 0f0c 	teq	r5, ip
 800098e:	f47f af25 	bne.w	80007dc <__aeabi_dmul+0x234>
 8000992:	4610      	mov	r0, r2
 8000994:	4619      	mov	r1, r3
 8000996:	e72c      	b.n	80007f2 <__aeabi_dmul+0x24a>
 8000998:	ea95 0f0c 	teq	r5, ip
 800099c:	d106      	bne.n	80009ac <__aeabi_ddiv+0x1b0>
 800099e:	ea52 3503 	orrs.w	r5, r2, r3, lsl #12
 80009a2:	f43f aefd 	beq.w	80007a0 <__aeabi_dmul+0x1f8>
 80009a6:	4610      	mov	r0, r2
 80009a8:	4619      	mov	r1, r3
 80009aa:	e722      	b.n	80007f2 <__aeabi_dmul+0x24a>
 80009ac:	ea50 0641 	orrs.w	r6, r0, r1, lsl #1
 80009b0:	bf18      	it	ne
 80009b2:	ea52 0643 	orrsne.w	r6, r2, r3, lsl #1
 80009b6:	f47f aec5 	bne.w	8000744 <__aeabi_dmul+0x19c>
 80009ba:	ea50 0441 	orrs.w	r4, r0, r1, lsl #1
 80009be:	f47f af0d 	bne.w	80007dc <__aeabi_dmul+0x234>
 80009c2:	ea52 0543 	orrs.w	r5, r2, r3, lsl #1
 80009c6:	f47f aeeb 	bne.w	80007a0 <__aeabi_dmul+0x1f8>
 80009ca:	e712      	b.n	80007f2 <__aeabi_dmul+0x24a>

080009cc <__aeabi_d2uiz>:
 80009cc:	004a      	lsls	r2, r1, #1
 80009ce:	d211      	bcs.n	80009f4 <__aeabi_d2uiz+0x28>
 80009d0:	f512 1200 	adds.w	r2, r2, #2097152	; 0x200000
 80009d4:	d211      	bcs.n	80009fa <__aeabi_d2uiz+0x2e>
 80009d6:	d50d      	bpl.n	80009f4 <__aeabi_d2uiz+0x28>
 80009d8:	f46f 7378 	mvn.w	r3, #992	; 0x3e0
 80009dc:	ebb3 5262 	subs.w	r2, r3, r2, asr #21
 80009e0:	d40e      	bmi.n	8000a00 <__aeabi_d2uiz+0x34>
 80009e2:	ea4f 23c1 	mov.w	r3, r1, lsl #11
 80009e6:	f043 4300 	orr.w	r3, r3, #2147483648	; 0x80000000
 80009ea:	ea43 5350 	orr.w	r3, r3, r0, lsr #21
 80009ee:	fa23 f002 	lsr.w	r0, r3, r2
 80009f2:	4770      	bx	lr
 80009f4:	f04f 0000 	mov.w	r0, #0
 80009f8:	4770      	bx	lr
 80009fa:	ea50 3001 	orrs.w	r0, r0, r1, lsl #12
 80009fe:	d102      	bne.n	8000a06 <__aeabi_d2uiz+0x3a>
 8000a00:	f04f 30ff 	mov.w	r0, #4294967295	; 0xffffffff
 8000a04:	4770      	bx	lr
 8000a06:	f04f 0000 	mov.w	r0, #0
 8000a0a:	4770      	bx	lr

08000a0c <__aeabi_uldivmod>:
 8000a0c:	b953      	cbnz	r3, 8000a24 <__aeabi_uldivmod+0x18>
 8000a0e:	b94a      	cbnz	r2, 8000a24 <__aeabi_uldivmod+0x18>
 8000a10:	2900      	cmp	r1, #0
 8000a12:	bf08      	it	eq
 8000a14:	2800      	cmpeq	r0, #0
 8000a16:	bf1c      	itt	ne
 8000a18:	f04f 31ff 	movne.w	r1, #4294967295	; 0xffffffff
 8000a1c:	f04f 30ff 	movne.w	r0, #4294967295	; 0xffffffff
 8000a20:	f000 b972 	b.w	8000d08 <__aeabi_idiv0>
 8000a24:	f1ad 0c08 	sub.w	ip, sp, #8
 8000a28:	e96d ce04 	strd	ip, lr, [sp, #-16]!
 8000a2c:	f000 f806 	bl	8000a3c <__udivmoddi4>
 8000a30:	f8dd e004 	ldr.w	lr, [sp, #4]
 8000a34:	e9dd 2302 	ldrd	r2, r3, [sp, #8]
 8000a38:	b004      	add	sp, #16
 8000a3a:	4770      	bx	lr

08000a3c <__udivmoddi4>:
 8000a3c:	e92d 47f0 	stmdb	sp!, {r4, r5, r6, r7, r8, r9, sl, lr}
 8000a40:	9e08      	ldr	r6, [sp, #32]
 8000a42:	4604      	mov	r4, r0
 8000a44:	4688      	mov	r8, r1
 8000a46:	2b00      	cmp	r3, #0
 8000a48:	d14b      	bne.n	8000ae2 <__udivmoddi4+0xa6>
 8000a4a:	428a      	cmp	r2, r1
 8000a4c:	4615      	mov	r5, r2
 8000a4e:	d967      	bls.n	8000b20 <__udivmoddi4+0xe4>
 8000a50:	fab2 f282 	clz	r2, r2
 8000a54:	b14a      	cbz	r2, 8000a6a <__udivmoddi4+0x2e>
 8000a56:	f1c2 0720 	rsb	r7, r2, #32
 8000a5a:	fa01 f302 	lsl.w	r3, r1, r2
 8000a5e:	fa20 f707 	lsr.w	r7, r0, r7
 8000a62:	4095      	lsls	r5, r2
 8000a64:	ea47 0803 	orr.w	r8, r7, r3
 8000a68:	4094      	lsls	r4, r2
 8000a6a:	ea4f 4e15 	mov.w	lr, r5, lsr #16
 8000a6e:	0c23      	lsrs	r3, r4, #16
 8000a70:	fbb8 f7fe 	udiv	r7, r8, lr
 8000a74:	fa1f fc85 	uxth.w	ip, r5
 8000a78:	fb0e 8817 	mls	r8, lr, r7, r8
 8000a7c:	ea43 4308 	orr.w	r3, r3, r8, lsl #16
 8000a80:	fb07 f10c 	mul.w	r1, r7, ip
 8000a84:	4299      	cmp	r1, r3
 8000a86:	d909      	bls.n	8000a9c <__udivmoddi4+0x60>
 8000a88:	18eb      	adds	r3, r5, r3
 8000a8a:	f107 30ff 	add.w	r0, r7, #4294967295	; 0xffffffff
 8000a8e:	f080 811b 	bcs.w	8000cc8 <__udivmoddi4+0x28c>
 8000a92:	4299      	cmp	r1, r3
 8000a94:	f240 8118 	bls.w	8000cc8 <__udivmoddi4+0x28c>
 8000a98:	3f02      	subs	r7, #2
 8000a9a:	442b      	add	r3, r5
 8000a9c:	1a5b      	subs	r3, r3, r1
 8000a9e:	b2a4      	uxth	r4, r4
 8000aa0:	fbb3 f0fe 	udiv	r0, r3, lr
 8000aa4:	fb0e 3310 	mls	r3, lr, r0, r3
 8000aa8:	ea44 4403 	orr.w	r4, r4, r3, lsl #16
 8000aac:	fb00 fc0c 	mul.w	ip, r0, ip
 8000ab0:	45a4      	cmp	ip, r4
 8000ab2:	d909      	bls.n	8000ac8 <__udivmoddi4+0x8c>
 8000ab4:	192c      	adds	r4, r5, r4
 8000ab6:	f100 33ff 	add.w	r3, r0, #4294967295	; 0xffffffff
 8000aba:	f080 8107 	bcs.w	8000ccc <__udivmoddi4+0x290>
 8000abe:	45a4      	cmp	ip, r4
 8000ac0:	f240 8104 	bls.w	8000ccc <__udivmoddi4+0x290>
 8000ac4:	3802      	subs	r0, #2
 8000ac6:	442c      	add	r4, r5
 8000ac8:	ea40 4007 	orr.w	r0, r0, r7, lsl #16
 8000acc:	eba4 040c 	sub.w	r4, r4, ip
 8000ad0:	2700      	movs	r7, #0
 8000ad2:	b11e      	cbz	r6, 8000adc <__udivmoddi4+0xa0>
 8000ad4:	40d4      	lsrs	r4, r2
 8000ad6:	2300      	movs	r3, #0
 8000ad8:	e9c6 4300 	strd	r4, r3, [r6]
 8000adc:	4639      	mov	r1, r7
 8000ade:	e8bd 87f0 	ldmia.w	sp!, {r4, r5, r6, r7, r8, r9, sl, pc}
 8000ae2:	428b      	cmp	r3, r1
 8000ae4:	d909      	bls.n	8000afa <__udivmoddi4+0xbe>
 8000ae6:	2e00      	cmp	r6, #0
 8000ae8:	f000 80eb 	beq.w	8000cc2 <__udivmoddi4+0x286>
 8000aec:	2700      	movs	r7, #0
 8000aee:	e9c6 0100 	strd	r0, r1, [r6]
 8000af2:	4638      	mov	r0, r7
 8000af4:	4639      	mov	r1, r7
 8000af6:	e8bd 87f0 	ldmia.w	sp!, {r4, r5, r6, r7, r8, r9, sl, pc}
 8000afa:	fab3 f783 	clz	r7, r3
 8000afe:	2f00      	cmp	r7, #0
 8000b00:	d147      	bne.n	8000b92 <__udivmoddi4+0x156>
 8000b02:	428b      	cmp	r3, r1
 8000b04:	d302      	bcc.n	8000b0c <__udivmoddi4+0xd0>
 8000b06:	4282      	cmp	r2, r0
 8000b08:	f200 80fa 	bhi.w	8000d00 <__udivmoddi4+0x2c4>
 8000b0c:	1a84      	subs	r4, r0, r2
 8000b0e:	eb61 0303 	sbc.w	r3, r1, r3
 8000b12:	2001      	movs	r0, #1
 8000b14:	4698      	mov	r8, r3
 8000b16:	2e00      	cmp	r6, #0
 8000b18:	d0e0      	beq.n	8000adc <__udivmoddi4+0xa0>
 8000b1a:	e9c6 4800 	strd	r4, r8, [r6]
 8000b1e:	e7dd      	b.n	8000adc <__udivmoddi4+0xa0>
 8000b20:	b902      	cbnz	r2, 8000b24 <__udivmoddi4+0xe8>
 8000b22:	deff      	udf	#255	; 0xff
 8000b24:	fab2 f282 	clz	r2, r2
 8000b28:	2a00      	cmp	r2, #0
 8000b2a:	f040 808f 	bne.w	8000c4c <__udivmoddi4+0x210>
 8000b2e:	1b49      	subs	r1, r1, r5
 8000b30:	ea4f 4e15 	mov.w	lr, r5, lsr #16
 8000b34:	fa1f f885 	uxth.w	r8, r5
 8000b38:	2701      	movs	r7, #1
 8000b3a:	fbb1 fcfe 	udiv	ip, r1, lr
 8000b3e:	0c23      	lsrs	r3, r4, #16
 8000b40:	fb0e 111c 	mls	r1, lr, ip, r1
 8000b44:	ea43 4301 	orr.w	r3, r3, r1, lsl #16
 8000b48:	fb08 f10c 	mul.w	r1, r8, ip
 8000b4c:	4299      	cmp	r1, r3
 8000b4e:	d907      	bls.n	8000b60 <__udivmoddi4+0x124>
 8000b50:	18eb      	adds	r3, r5, r3
 8000b52:	f10c 30ff 	add.w	r0, ip, #4294967295	; 0xffffffff
 8000b56:	d202      	bcs.n	8000b5e <__udivmoddi4+0x122>
 8000b58:	4299      	cmp	r1, r3
 8000b5a:	f200 80cd 	bhi.w	8000cf8 <__udivmoddi4+0x2bc>
 8000b5e:	4684      	mov	ip, r0
 8000b60:	1a59      	subs	r1, r3, r1
 8000b62:	b2a3      	uxth	r3, r4
 8000b64:	fbb1 f0fe 	udiv	r0, r1, lr
 8000b68:	fb0e 1410 	mls	r4, lr, r0, r1
 8000b6c:	ea43 4404 	orr.w	r4, r3, r4, lsl #16
 8000b70:	fb08 f800 	mul.w	r8, r8, r0
 8000b74:	45a0      	cmp	r8, r4
 8000b76:	d907      	bls.n	8000b88 <__udivmoddi4+0x14c>
 8000b78:	192c      	adds	r4, r5, r4
 8000b7a:	f100 33ff 	add.w	r3, r0, #4294967295	; 0xffffffff
 8000b7e:	d202      	bcs.n	8000b86 <__udivmoddi4+0x14a>
 8000b80:	45a0      	cmp	r8, r4
 8000b82:	f200 80b6 	bhi.w	8000cf2 <__udivmoddi4+0x2b6>
 8000b86:	4618      	mov	r0, r3
 8000b88:	eba4 0408 	sub.w	r4, r4, r8
 8000b8c:	ea40 400c 	orr.w	r0, r0, ip, lsl #16
 8000b90:	e79f      	b.n	8000ad2 <__udivmoddi4+0x96>
 8000b92:	f1c7 0c20 	rsb	ip, r7, #32
 8000b96:	40bb      	lsls	r3, r7
 8000b98:	fa22 fe0c 	lsr.w	lr, r2, ip
 8000b9c:	ea4e 0e03 	orr.w	lr, lr, r3
 8000ba0:	fa01 f407 	lsl.w	r4, r1, r7
 8000ba4:	fa20 f50c 	lsr.w	r5, r0, ip
 8000ba8:	fa21 f30c 	lsr.w	r3, r1, ip
 8000bac:	ea4f 481e 	mov.w	r8, lr, lsr #16
 8000bb0:	4325      	orrs	r5, r4
 8000bb2:	fbb3 f9f8 	udiv	r9, r3, r8
 8000bb6:	0c2c      	lsrs	r4, r5, #16
 8000bb8:	fb08 3319 	mls	r3, r8, r9, r3
 8000bbc:	fa1f fa8e 	uxth.w	sl, lr
 8000bc0:	ea44 4303 	orr.w	r3, r4, r3, lsl #16
 8000bc4:	fb09 f40a 	mul.w	r4, r9, sl
 8000bc8:	429c      	cmp	r4, r3
 8000bca:	fa02 f207 	lsl.w	r2, r2, r7
 8000bce:	fa00 f107 	lsl.w	r1, r0, r7
 8000bd2:	d90b      	bls.n	8000bec <__udivmoddi4+0x1b0>
 8000bd4:	eb1e 0303 	adds.w	r3, lr, r3
 8000bd8:	f109 30ff 	add.w	r0, r9, #4294967295	; 0xffffffff
 8000bdc:	f080 8087 	bcs.w	8000cee <__udivmoddi4+0x2b2>
 8000be0:	429c      	cmp	r4, r3
 8000be2:	f240 8084 	bls.w	8000cee <__udivmoddi4+0x2b2>
 8000be6:	f1a9 0902 	sub.w	r9, r9, #2
 8000bea:	4473      	add	r3, lr
 8000bec:	1b1b      	subs	r3, r3, r4
 8000bee:	b2ad      	uxth	r5, r5
 8000bf0:	fbb3 f0f8 	udiv	r0, r3, r8
 8000bf4:	fb08 3310 	mls	r3, r8, r0, r3
 8000bf8:	ea45 4403 	orr.w	r4, r5, r3, lsl #16
 8000bfc:	fb00 fa0a 	mul.w	sl, r0, sl
 8000c00:	45a2      	cmp	sl, r4
 8000c02:	d908      	bls.n	8000c16 <__udivmoddi4+0x1da>
 8000c04:	eb1e 0404 	adds.w	r4, lr, r4
 8000c08:	f100 33ff 	add.w	r3, r0, #4294967295	; 0xffffffff
 8000c0c:	d26b      	bcs.n	8000ce6 <__udivmoddi4+0x2aa>
 8000c0e:	45a2      	cmp	sl, r4
 8000c10:	d969      	bls.n	8000ce6 <__udivmoddi4+0x2aa>
 8000c12:	3802      	subs	r0, #2
 8000c14:	4474      	add	r4, lr
 8000c16:	ea40 4009 	orr.w	r0, r0, r9, lsl #16
 8000c1a:	fba0 8902 	umull	r8, r9, r0, r2
 8000c1e:	eba4 040a 	sub.w	r4, r4, sl
 8000c22:	454c      	cmp	r4, r9
 8000c24:	46c2      	mov	sl, r8
 8000c26:	464b      	mov	r3, r9
 8000c28:	d354      	bcc.n	8000cd4 <__udivmoddi4+0x298>
 8000c2a:	d051      	beq.n	8000cd0 <__udivmoddi4+0x294>
 8000c2c:	2e00      	cmp	r6, #0
 8000c2e:	d069      	beq.n	8000d04 <__udivmoddi4+0x2c8>
 8000c30:	ebb1 050a 	subs.w	r5, r1, sl
 8000c34:	eb64 0403 	sbc.w	r4, r4, r3
 8000c38:	fa04 fc0c 	lsl.w	ip, r4, ip
 8000c3c:	40fd      	lsrs	r5, r7
 8000c3e:	40fc      	lsrs	r4, r7
 8000c40:	ea4c 0505 	orr.w	r5, ip, r5
 8000c44:	e9c6 5400 	strd	r5, r4, [r6]
 8000c48:	2700      	movs	r7, #0
 8000c4a:	e747      	b.n	8000adc <__udivmoddi4+0xa0>
 8000c4c:	f1c2 0320 	rsb	r3, r2, #32
 8000c50:	fa20 f703 	lsr.w	r7, r0, r3
 8000c54:	4095      	lsls	r5, r2
 8000c56:	fa01 f002 	lsl.w	r0, r1, r2
 8000c5a:	fa21 f303 	lsr.w	r3, r1, r3
 8000c5e:	ea4f 4e15 	mov.w	lr, r5, lsr #16
 8000c62:	4338      	orrs	r0, r7
 8000c64:	0c01      	lsrs	r1, r0, #16
 8000c66:	fbb3 f7fe 	udiv	r7, r3, lr
 8000c6a:	fa1f f885 	uxth.w	r8, r5
 8000c6e:	fb0e 3317 	mls	r3, lr, r7, r3
 8000c72:	ea41 4103 	orr.w	r1, r1, r3, lsl #16
 8000c76:	fb07 f308 	mul.w	r3, r7, r8
 8000c7a:	428b      	cmp	r3, r1
 8000c7c:	fa04 f402 	lsl.w	r4, r4, r2
 8000c80:	d907      	bls.n	8000c92 <__udivmoddi4+0x256>
 8000c82:	1869      	adds	r1, r5, r1
 8000c84:	f107 3cff 	add.w	ip, r7, #4294967295	; 0xffffffff
 8000c88:	d22f      	bcs.n	8000cea <__udivmoddi4+0x2ae>
 8000c8a:	428b      	cmp	r3, r1
 8000c8c:	d92d      	bls.n	8000cea <__udivmoddi4+0x2ae>
 8000c8e:	3f02      	subs	r7, #2
 8000c90:	4429      	add	r1, r5
 8000c92:	1acb      	subs	r3, r1, r3
 8000c94:	b281      	uxth	r1, r0
 8000c96:	fbb3 f0fe 	udiv	r0, r3, lr
 8000c9a:	fb0e 3310 	mls	r3, lr, r0, r3
 8000c9e:	ea41 4103 	orr.w	r1, r1, r3, lsl #16
 8000ca2:	fb00 f308 	mul.w	r3, r0, r8
 8000ca6:	428b      	cmp	r3, r1
 8000ca8:	d907      	bls.n	8000cba <__udivmoddi4+0x27e>
 8000caa:	1869      	adds	r1, r5, r1
 8000cac:	f100 3cff 	add.w	ip, r0, #4294967295	; 0xffffffff
 8000cb0:	d217      	bcs.n	8000ce2 <__udivmoddi4+0x2a6>
 8000cb2:	428b      	cmp	r3, r1
 8000cb4:	d915      	bls.n	8000ce2 <__udivmoddi4+0x2a6>
 8000cb6:	3802      	subs	r0, #2
 8000cb8:	4429      	add	r1, r5
 8000cba:	1ac9      	subs	r1, r1, r3
 8000cbc:	ea40 4707 	orr.w	r7, r0, r7, lsl #16
 8000cc0:	e73b      	b.n	8000b3a <__udivmoddi4+0xfe>
 8000cc2:	4637      	mov	r7, r6
 8000cc4:	4630      	mov	r0, r6
 8000cc6:	e709      	b.n	8000adc <__udivmoddi4+0xa0>
 8000cc8:	4607      	mov	r7, r0
 8000cca:	e6e7      	b.n	8000a9c <__udivmoddi4+0x60>
 8000ccc:	4618      	mov	r0, r3
 8000cce:	e6fb      	b.n	8000ac8 <__udivmoddi4+0x8c>
 8000cd0:	4541      	cmp	r1, r8
 8000cd2:	d2ab      	bcs.n	8000c2c <__udivmoddi4+0x1f0>
 8000cd4:	ebb8 0a02 	subs.w	sl, r8, r2
 8000cd8:	eb69 020e 	sbc.w	r2, r9, lr
 8000cdc:	3801      	subs	r0, #1
 8000cde:	4613      	mov	r3, r2
 8000ce0:	e7a4      	b.n	8000c2c <__udivmoddi4+0x1f0>
 8000ce2:	4660      	mov	r0, ip
 8000ce4:	e7e9      	b.n	8000cba <__udivmoddi4+0x27e>
 8000ce6:	4618      	mov	r0, r3
 8000ce8:	e795      	b.n	8000c16 <__udivmoddi4+0x1da>
 8000cea:	4667      	mov	r7, ip
 8000cec:	e7d1      	b.n	8000c92 <__udivmoddi4+0x256>
 8000cee:	4681      	mov	r9, r0
 8000cf0:	e77c      	b.n	8000bec <__udivmoddi4+0x1b0>
 8000cf2:	3802      	subs	r0, #2
 8000cf4:	442c      	add	r4, r5
 8000cf6:	e747      	b.n	8000b88 <__udivmoddi4+0x14c>
 8000cf8:	f1ac 0c02 	sub.w	ip, ip, #2
 8000cfc:	442b      	add	r3, r5
 8000cfe:	e72f      	b.n	8000b60 <__udivmoddi4+0x124>
 8000d00:	4638      	mov	r0, r7
 8000d02:	e708      	b.n	8000b16 <__udivmoddi4+0xda>
 8000d04:	4637      	mov	r7, r6
 8000d06:	e6e9      	b.n	8000adc <__udivmoddi4+0xa0>

08000d08 <__aeabi_idiv0>:
 8000d08:	4770      	bx	lr
 8000d0a:	bf00      	nop

08000d0c <delay>:
 8000d0c:	b538      	push	{r3, r4, r5, lr}
 8000d0e:	4c09      	ldr	r4, [pc, #36]	; (8000d34 <delay+0x28>)
 8000d10:	4605      	mov	r5, r0
 8000d12:	6820      	ldr	r0, [r4, #0]
 8000d14:	f003 f90c 	bl	8003f30 <HAL_TIM_Base_Stop>
 8000d18:	6820      	ldr	r0, [r4, #0]
 8000d1a:	6803      	ldr	r3, [r0, #0]
 8000d1c:	2200      	movs	r2, #0
 8000d1e:	625a      	str	r2, [r3, #36]	; 0x24
 8000d20:	f003 f8d4 	bl	8003ecc <HAL_TIM_Base_Start>
 8000d24:	6823      	ldr	r3, [r4, #0]
 8000d26:	681a      	ldr	r2, [r3, #0]
 8000d28:	6a53      	ldr	r3, [r2, #36]	; 0x24
 8000d2a:	b29b      	uxth	r3, r3
 8000d2c:	42ab      	cmp	r3, r5
 8000d2e:	d3fb      	bcc.n	8000d28 <delay+0x1c>
 8000d30:	bd38      	pop	{r3, r4, r5, pc}
 8000d32:	bf00      	nop
 8000d34:	200019e8 	.word	0x200019e8

08000d38 <send_to_lcd>:
 8000d38:	b510      	push	{r4, lr}
 8000d3a:	b2ca      	uxtb	r2, r1
 8000d3c:	4604      	mov	r4, r0
 8000d3e:	2101      	movs	r1, #1
 8000d40:	f04f 4090 	mov.w	r0, #1207959552	; 0x48000000
 8000d44:	f002 f9ac 	bl	80030a0 <HAL_GPIO_WritePin>
 8000d48:	f3c4 02c0 	ubfx	r2, r4, #3, #1
 8000d4c:	2180      	movs	r1, #128	; 0x80
 8000d4e:	f04f 4090 	mov.w	r0, #1207959552	; 0x48000000
 8000d52:	f002 f9a5 	bl	80030a0 <HAL_GPIO_WritePin>
 8000d56:	f3c4 0280 	ubfx	r2, r4, #2, #1
 8000d5a:	f44f 5180 	mov.w	r1, #4096	; 0x1000
 8000d5e:	f04f 4090 	mov.w	r0, #1207959552	; 0x48000000
 8000d62:	f002 f99d 	bl	80030a0 <HAL_GPIO_WritePin>
 8000d66:	f3c4 0240 	ubfx	r2, r4, #1, #1
 8000d6a:	f44f 6100 	mov.w	r1, #2048	; 0x800
 8000d6e:	f04f 4090 	mov.w	r0, #1207959552	; 0x48000000
 8000d72:	f002 f995 	bl	80030a0 <HAL_GPIO_WritePin>
 8000d76:	f004 0201 	and.w	r2, r4, #1
 8000d7a:	2110      	movs	r1, #16
 8000d7c:	f04f 4090 	mov.w	r0, #1207959552	; 0x48000000
 8000d80:	f002 f98e 	bl	80030a0 <HAL_GPIO_WritePin>
 8000d84:	2201      	movs	r2, #1
 8000d86:	2102      	movs	r1, #2
 8000d88:	f04f 4090 	mov.w	r0, #1207959552	; 0x48000000
 8000d8c:	f002 f988 	bl	80030a0 <HAL_GPIO_WritePin>
 8000d90:	2014      	movs	r0, #20
 8000d92:	f7ff ffbb 	bl	8000d0c <delay>
 8000d96:	f04f 4090 	mov.w	r0, #1207959552	; 0x48000000
 8000d9a:	2200      	movs	r2, #0
 8000d9c:	2102      	movs	r1, #2
 8000d9e:	f002 f97f 	bl	80030a0 <HAL_GPIO_WritePin>
 8000da2:	2014      	movs	r0, #20
 8000da4:	e8bd 4010 	ldmia.w	sp!, {r4, lr}
 8000da8:	f7ff bfb0 	b.w	8000d0c <delay>

08000dac <lcd_send_cmd>:
 8000dac:	b510      	push	{r4, lr}
 8000dae:	2100      	movs	r1, #0
 8000db0:	4604      	mov	r4, r0
 8000db2:	0900      	lsrs	r0, r0, #4
 8000db4:	f7ff ffc0 	bl	8000d38 <send_to_lcd>
 8000db8:	f004 000f 	and.w	r0, r4, #15
 8000dbc:	2100      	movs	r1, #0
 8000dbe:	e8bd 4010 	ldmia.w	sp!, {r4, lr}
 8000dc2:	f7ff bfb9 	b.w	8000d38 <send_to_lcd>

08000dc6 <lcd_send_data>:
 8000dc6:	b510      	push	{r4, lr}
 8000dc8:	2101      	movs	r1, #1
 8000dca:	4604      	mov	r4, r0
 8000dcc:	0900      	lsrs	r0, r0, #4
 8000dce:	f7ff ffb3 	bl	8000d38 <send_to_lcd>
 8000dd2:	f004 000f 	and.w	r0, r4, #15
 8000dd6:	2101      	movs	r1, #1
 8000dd8:	e8bd 4010 	ldmia.w	sp!, {r4, lr}
 8000ddc:	f7ff bfac 	b.w	8000d38 <send_to_lcd>

08000de0 <lcd_clear>:
 8000de0:	b508      	push	{r3, lr}
 8000de2:	2001      	movs	r0, #1
 8000de4:	f7ff ffe2 	bl	8000dac <lcd_send_cmd>
 8000de8:	2002      	movs	r0, #2
 8000dea:	e8bd 4008 	ldmia.w	sp!, {r3, lr}
 8000dee:	f003 be37 	b.w	8004a60 <osDelay>

08000df2 <lcd_put_cur>:
 8000df2:	b120      	cbz	r0, 8000dfe <lcd_put_cur+0xc>
 8000df4:	2801      	cmp	r0, #1
 8000df6:	d005      	beq.n	8000e04 <lcd_put_cur+0x12>
 8000df8:	b2c8      	uxtb	r0, r1
 8000dfa:	f7ff bfd7 	b.w	8000dac <lcd_send_cmd>
 8000dfe:	f041 0180 	orr.w	r1, r1, #128	; 0x80
 8000e02:	e7f9      	b.n	8000df8 <lcd_put_cur+0x6>
 8000e04:	f041 01c0 	orr.w	r1, r1, #192	; 0xc0
 8000e08:	e7f6      	b.n	8000df8 <lcd_put_cur+0x6>
	...

08000e0c <lcd_init>:
 8000e0c:	b508      	push	{r3, lr}
 8000e0e:	4b1e      	ldr	r3, [pc, #120]	; (8000e88 <lcd_init+0x7c>)
 8000e10:	6018      	str	r0, [r3, #0]
 8000e12:	2032      	movs	r0, #50	; 0x32
 8000e14:	f003 fe24 	bl	8004a60 <osDelay>
 8000e18:	2030      	movs	r0, #48	; 0x30
 8000e1a:	f7ff ffc7 	bl	8000dac <lcd_send_cmd>
 8000e1e:	2005      	movs	r0, #5
 8000e20:	f003 fe1e 	bl	8004a60 <osDelay>
 8000e24:	2030      	movs	r0, #48	; 0x30
 8000e26:	f7ff ffc1 	bl	8000dac <lcd_send_cmd>
 8000e2a:	2001      	movs	r0, #1
 8000e2c:	f003 fe18 	bl	8004a60 <osDelay>
 8000e30:	2030      	movs	r0, #48	; 0x30
 8000e32:	f7ff ffbb 	bl	8000dac <lcd_send_cmd>
 8000e36:	200a      	movs	r0, #10
 8000e38:	f003 fe12 	bl	8004a60 <osDelay>
 8000e3c:	2020      	movs	r0, #32
 8000e3e:	f7ff ffb5 	bl	8000dac <lcd_send_cmd>
 8000e42:	200a      	movs	r0, #10
 8000e44:	f003 fe0c 	bl	8004a60 <osDelay>
 8000e48:	2028      	movs	r0, #40	; 0x28
 8000e4a:	f7ff ffaf 	bl	8000dac <lcd_send_cmd>
 8000e4e:	2001      	movs	r0, #1
 8000e50:	f003 fe06 	bl	8004a60 <osDelay>
 8000e54:	2008      	movs	r0, #8
 8000e56:	f7ff ffa9 	bl	8000dac <lcd_send_cmd>
 8000e5a:	2001      	movs	r0, #1
 8000e5c:	f003 fe00 	bl	8004a60 <osDelay>
 8000e60:	2001      	movs	r0, #1
 8000e62:	f7ff ffa3 	bl	8000dac <lcd_send_cmd>
 8000e66:	2001      	movs	r0, #1
 8000e68:	f003 fdfa 	bl	8004a60 <osDelay>
 8000e6c:	2001      	movs	r0, #1
 8000e6e:	f003 fdf7 	bl	8004a60 <osDelay>
 8000e72:	2006      	movs	r0, #6
 8000e74:	f7ff ff9a 	bl	8000dac <lcd_send_cmd>
 8000e78:	2001      	movs	r0, #1
 8000e7a:	f003 fdf1 	bl	8004a60 <osDelay>
 8000e7e:	200c      	movs	r0, #12
 8000e80:	e8bd 4008 	ldmia.w	sp!, {r3, lr}
 8000e84:	f7ff bf92 	b.w	8000dac <lcd_send_cmd>
 8000e88:	200019e8 	.word	0x200019e8

08000e8c <lcd_send_string>:
 8000e8c:	b510      	push	{r4, lr}
 8000e8e:	1e44      	subs	r4, r0, #1
 8000e90:	f814 0f01 	ldrb.w	r0, [r4, #1]!
 8000e94:	b900      	cbnz	r0, 8000e98 <lcd_send_string+0xc>
 8000e96:	bd10      	pop	{r4, pc}
 8000e98:	f7ff ff95 	bl	8000dc6 <lcd_send_data>
 8000e9c:	e7f8      	b.n	8000e90 <lcd_send_string+0x4>
	...

08000ea0 <init_app>:
 8000ea0:	b084      	sub	sp, #16
 8000ea2:	b508      	push	{r3, lr}
 8000ea4:	f10d 0c08 	add.w	ip, sp, #8
 8000ea8:	e88c 000f 	stmia.w	ip, {r0, r1, r2, r3}
 8000eac:	224c      	movs	r2, #76	; 0x4c
 8000eae:	4661      	mov	r1, ip
 8000eb0:	4803      	ldr	r0, [pc, #12]	; (8000ec0 <init_app+0x20>)
 8000eb2:	f005 faa7 	bl	8006404 <memcpy>
 8000eb6:	e8bd 4008 	ldmia.w	sp!, {r3, lr}
 8000eba:	b004      	add	sp, #16
 8000ebc:	4770      	bx	lr
 8000ebe:	bf00      	nop
 8000ec0:	200019ec 	.word	0x200019ec

08000ec4 <tick_app>:
 8000ec4:	4770      	bx	lr
	...

08000ec8 <init_interface>:
 8000ec8:	b508      	push	{r3, lr}
 8000eca:	4b06      	ldr	r3, [pc, #24]	; (8000ee4 <init_interface+0x1c>)
 8000ecc:	6018      	str	r0, [r3, #0]
 8000ece:	4b06      	ldr	r3, [pc, #24]	; (8000ee8 <init_interface+0x20>)
 8000ed0:	4608      	mov	r0, r1
 8000ed2:	6019      	str	r1, [r3, #0]
 8000ed4:	f7ff ff9a 	bl	8000e0c <lcd_init>
 8000ed8:	200a      	movs	r0, #10
 8000eda:	e8bd 4008 	ldmia.w	sp!, {r3, lr}
 8000ede:	f003 bdbf 	b.w	8004a60 <osDelay>
 8000ee2:	bf00      	nop
 8000ee4:	200019ec 	.word	0x200019ec
 8000ee8:	200019e8 	.word	0x200019e8

08000eec <interrupt_interface>:
 8000eec:	f5b0 7f00 	cmp.w	r0, #512	; 0x200
 8000ef0:	b508      	push	{r3, lr}
 8000ef2:	d10e      	bne.n	8000f12 <interrupt_interface+0x26>
 8000ef4:	f44f 6180 	mov.w	r1, #1024	; 0x400
 8000ef8:	f04f 4090 	mov.w	r0, #1207959552	; 0x48000000
 8000efc:	f002 f8ca 	bl	8003094 <HAL_GPIO_ReadPin>
 8000f00:	4b08      	ldr	r3, [pc, #32]	; (8000f24 <interrupt_interface+0x38>)
 8000f02:	681a      	ldr	r2, [r3, #0]
 8000f04:	2801      	cmp	r0, #1
 8000f06:	bf0c      	ite	eq
 8000f08:	3201      	addeq	r2, #1
 8000f0a:	f102 32ff 	addne.w	r2, r2, #4294967295	; 0xffffffff
 8000f0e:	601a      	str	r2, [r3, #0]
 8000f10:	bd08      	pop	{r3, pc}
 8000f12:	f5b0 7f80 	cmp.w	r0, #256	; 0x100
 8000f16:	d1fb      	bne.n	8000f10 <interrupt_interface+0x24>
 8000f18:	4608      	mov	r0, r1
 8000f1a:	e8bd 4008 	ldmia.w	sp!, {r3, lr}
 8000f1e:	f001 be0b 	b.w	8002b38 <HAL_ADC_Start_IT>
 8000f22:	bf00      	nop
 8000f24:	200000d8 	.word	0x200000d8

08000f28 <interface_update>:
 8000f28:	4b13      	ldr	r3, [pc, #76]	; (8000f78 <interface_update+0x50>)
 8000f2a:	4814      	ldr	r0, [pc, #80]	; (8000f7c <interface_update+0x54>)
 8000f2c:	4a14      	ldr	r2, [pc, #80]	; (8000f80 <interface_update+0x58>)
 8000f2e:	b510      	push	{r4, lr}
 8000f30:	781c      	ldrb	r4, [r3, #0]
 8000f32:	8811      	ldrh	r1, [r2, #0]
 8000f34:	eb00 1004 	add.w	r0, r0, r4, lsl #4
 8000f38:	8980      	ldrh	r0, [r0, #12]
 8000f3a:	b188      	cbz	r0, 8000f60 <interface_update+0x38>
 8000f3c:	b981      	cbnz	r1, 8000f60 <interface_update+0x38>
 8000f3e:	4a11      	ldr	r2, [pc, #68]	; (8000f84 <interface_update+0x5c>)
 8000f40:	7812      	ldrb	r2, [r2, #0]
 8000f42:	701a      	strb	r2, [r3, #0]
 8000f44:	4a10      	ldr	r2, [pc, #64]	; (8000f88 <interface_update+0x60>)
 8000f46:	2101      	movs	r1, #1
 8000f48:	7011      	strb	r1, [r2, #0]
 8000f4a:	4810      	ldr	r0, [pc, #64]	; (8000f8c <interface_update+0x64>)
 8000f4c:	7802      	ldrb	r2, [r0, #0]
 8000f4e:	b172      	cbz	r2, 8000f6e <interface_update+0x46>
 8000f50:	2a01      	cmp	r2, #1
 8000f52:	490d      	ldr	r1, [pc, #52]	; (8000f88 <interface_update+0x60>)
 8000f54:	d007      	beq.n	8000f66 <interface_update+0x3e>
 8000f56:	2a02      	cmp	r2, #2
 8000f58:	d00a      	beq.n	8000f70 <interface_update+0x48>
 8000f5a:	2301      	movs	r3, #1
 8000f5c:	700b      	strb	r3, [r1, #0]
 8000f5e:	e006      	b.n	8000f6e <interface_update+0x46>
 8000f60:	3901      	subs	r1, #1
 8000f62:	8011      	strh	r1, [r2, #0]
 8000f64:	e7f1      	b.n	8000f4a <interface_update+0x22>
 8000f66:	4807      	ldr	r0, [pc, #28]	; (8000f84 <interface_update+0x5c>)
 8000f68:	700a      	strb	r2, [r1, #0]
 8000f6a:	7800      	ldrb	r0, [r0, #0]
 8000f6c:	7018      	strb	r0, [r3, #0]
 8000f6e:	bd10      	pop	{r4, pc}
 8000f70:	7842      	ldrb	r2, [r0, #1]
 8000f72:	701a      	strb	r2, [r3, #0]
 8000f74:	e7f1      	b.n	8000f5a <interface_update+0x32>
 8000f76:	bf00      	nop
 8000f78:	20000000 	.word	0x20000000
 8000f7c:	20000004 	.word	0x20000004
 8000f80:	200000d4 	.word	0x200000d4
 8000f84:	20000002 	.word	0x20000002
 8000f88:	20000003 	.word	0x20000003
 8000f8c:	200000d1 	.word	0x200000d1

08000f90 <screen_update>:
 8000f90:	b530      	push	{r4, r5, lr}
 8000f92:	4d13      	ldr	r5, [pc, #76]	; (8000fe0 <screen_update+0x50>)
 8000f94:	782a      	ldrb	r2, [r5, #0]
 8000f96:	b089      	sub	sp, #36	; 0x24
 8000f98:	4604      	mov	r4, r0
 8000f9a:	b932      	cbnz	r2, 8000faa <screen_update+0x1a>
 8000f9c:	230f      	movs	r3, #15
 8000f9e:	fbb0 f3f3 	udiv	r3, r0, r3
 8000fa2:	ebc3 1303 	rsb	r3, r3, r3, lsl #4
 8000fa6:	4298      	cmp	r0, r3
 8000fa8:	d117      	bne.n	8000fda <screen_update+0x4a>
 8000faa:	f7ff ff19 	bl	8000de0 <lcd_clear>
 8000fae:	4b0d      	ldr	r3, [pc, #52]	; (8000fe4 <screen_update+0x54>)
 8000fb0:	781a      	ldrb	r2, [r3, #0]
 8000fb2:	4b0d      	ldr	r3, [pc, #52]	; (8000fe8 <screen_update+0x58>)
 8000fb4:	eb03 1302 	add.w	r3, r3, r2, lsl #4
 8000fb8:	4669      	mov	r1, sp
 8000fba:	685b      	ldr	r3, [r3, #4]
 8000fbc:	aa04      	add	r2, sp, #16
 8000fbe:	4620      	mov	r0, r4
 8000fc0:	4798      	blx	r3
 8000fc2:	4668      	mov	r0, sp
 8000fc4:	f7ff ff62 	bl	8000e8c <lcd_send_string>
 8000fc8:	2100      	movs	r1, #0
 8000fca:	2001      	movs	r0, #1
 8000fcc:	f7ff ff11 	bl	8000df2 <lcd_put_cur>
 8000fd0:	a804      	add	r0, sp, #16
 8000fd2:	f7ff ff5b 	bl	8000e8c <lcd_send_string>
 8000fd6:	2300      	movs	r3, #0
 8000fd8:	702b      	strb	r3, [r5, #0]
 8000fda:	b009      	add	sp, #36	; 0x24
 8000fdc:	bd30      	pop	{r4, r5, pc}
 8000fde:	bf00      	nop
 8000fe0:	20000003 	.word	0x20000003
 8000fe4:	20000000 	.word	0x20000000
 8000fe8:	20000004 	.word	0x20000004

08000fec <configure_potentiometers>:
 8000fec:	b5f0      	push	{r4, r5, r6, r7, lr}
 8000fee:	4b28      	ldr	r3, [pc, #160]	; (8001090 <configure_potentiometers+0xa4>)
 8000ff0:	4f28      	ldr	r7, [pc, #160]	; (8001094 <configure_potentiometers+0xa8>)
 8000ff2:	7818      	ldrb	r0, [r3, #0]
 8000ff4:	b085      	sub	sp, #20
 8000ff6:	f7ff fa6d 	bl	80004d4 <__aeabi_i2d>
 8000ffa:	4b27      	ldr	r3, [pc, #156]	; (8001098 <configure_potentiometers+0xac>)
 8000ffc:	2200      	movs	r2, #0
 8000ffe:	f7ff fad3 	bl	80005a8 <__aeabi_dmul>
 8001002:	f7ff fce3 	bl	80009cc <__aeabi_d2uiz>
 8001006:	b2c0      	uxtb	r0, r0
 8001008:	0204      	lsls	r4, r0, #8
 800100a:	f104 0310 	add.w	r3, r4, #16
 800100e:	f8ad 300e 	strh.w	r3, [sp, #14]
 8001012:	2310      	movs	r3, #16
 8001014:	f88d 300c 	strb.w	r3, [sp, #12]
 8001018:	f88d 000d 	strb.w	r0, [sp, #13]
 800101c:	2564      	movs	r5, #100	; 0x64
 800101e:	463e      	mov	r6, r7
 8001020:	2332      	movs	r3, #50	; 0x32
 8001022:	9300      	str	r3, [sp, #0]
 8001024:	aa03      	add	r2, sp, #12
 8001026:	2302      	movs	r3, #2
 8001028:	2154      	movs	r1, #84	; 0x54
 800102a:	6838      	ldr	r0, [r7, #0]
 800102c:	f002 f970 	bl	8003310 <HAL_I2C_Master_Transmit>
 8001030:	b108      	cbz	r0, 8001036 <configure_potentiometers+0x4a>
 8001032:	3d01      	subs	r5, #1
 8001034:	d1f4      	bne.n	8001020 <configure_potentiometers+0x34>
 8001036:	2564      	movs	r5, #100	; 0x64
 8001038:	2732      	movs	r7, #50	; 0x32
 800103a:	9700      	str	r7, [sp, #0]
 800103c:	2302      	movs	r3, #2
 800103e:	f10d 020e 	add.w	r2, sp, #14
 8001042:	215e      	movs	r1, #94	; 0x5e
 8001044:	6830      	ldr	r0, [r6, #0]
 8001046:	f002 f963 	bl	8003310 <HAL_I2C_Master_Transmit>
 800104a:	b108      	cbz	r0, 8001050 <configure_potentiometers+0x64>
 800104c:	3d01      	subs	r5, #1
 800104e:	d1f4      	bne.n	800103a <configure_potentiometers+0x4e>
 8001050:	3411      	adds	r4, #17
 8001052:	f8ad 400e 	strh.w	r4, [sp, #14]
 8001056:	2532      	movs	r5, #50	; 0x32
 8001058:	2464      	movs	r4, #100	; 0x64
 800105a:	9500      	str	r5, [sp, #0]
 800105c:	2302      	movs	r3, #2
 800105e:	f10d 020e 	add.w	r2, sp, #14
 8001062:	2154      	movs	r1, #84	; 0x54
 8001064:	6830      	ldr	r0, [r6, #0]
 8001066:	f002 f953 	bl	8003310 <HAL_I2C_Master_Transmit>
 800106a:	b108      	cbz	r0, 8001070 <configure_potentiometers+0x84>
 800106c:	3c01      	subs	r4, #1
 800106e:	d1f4      	bne.n	800105a <configure_potentiometers+0x6e>
 8001070:	2464      	movs	r4, #100	; 0x64
 8001072:	2532      	movs	r5, #50	; 0x32
 8001074:	9500      	str	r5, [sp, #0]
 8001076:	2302      	movs	r3, #2
 8001078:	f10d 020e 	add.w	r2, sp, #14
 800107c:	215e      	movs	r1, #94	; 0x5e
 800107e:	6830      	ldr	r0, [r6, #0]
 8001080:	f002 f946 	bl	8003310 <HAL_I2C_Master_Transmit>
 8001084:	b108      	cbz	r0, 800108a <configure_potentiometers+0x9e>
 8001086:	3c01      	subs	r4, #1
 8001088:	d1f4      	bne.n	8001074 <configure_potentiometers+0x88>
 800108a:	b005      	add	sp, #20
 800108c:	bdf0      	pop	{r4, r5, r6, r7, pc}
 800108e:	bf00      	nop
 8001090:	200000dc 	.word	0x200000dc
 8001094:	200019ec 	.word	0x200019ec
 8001098:	40280000 	.word	0x40280000

0800109c <buttons_controller>:
 800109c:	f5b0 6ffa 	cmp.w	r0, #2000	; 0x7d0
 80010a0:	b508      	push	{r3, lr}
 80010a2:	d921      	bls.n	80010e8 <buttons_controller+0x4c>
 80010a4:	f640 23aa 	movw	r3, #2730	; 0xaaa
 80010a8:	4298      	cmp	r0, r3
 80010aa:	d91f      	bls.n	80010ec <buttons_controller+0x50>
 80010ac:	f640 3354 	movw	r3, #2900	; 0xb54
 80010b0:	4298      	cmp	r0, r3
 80010b2:	d91d      	bls.n	80010f0 <buttons_controller+0x54>
 80010b4:	f640 43e4 	movw	r3, #3300	; 0xce4
 80010b8:	4298      	cmp	r0, r3
 80010ba:	d91b      	bls.n	80010f4 <buttons_controller+0x58>
 80010bc:	f640 63d8 	movw	r3, #3800	; 0xed8
 80010c0:	4298      	cmp	r0, r3
 80010c2:	bf94      	ite	ls
 80010c4:	2004      	movls	r0, #4
 80010c6:	2002      	movhi	r0, #2
 80010c8:	4b0b      	ldr	r3, [pc, #44]	; (80010f8 <buttons_controller+0x5c>)
 80010ca:	7018      	strb	r0, [r3, #0]
 80010cc:	4b0b      	ldr	r3, [pc, #44]	; (80010fc <buttons_controller+0x60>)
 80010ce:	781a      	ldrb	r2, [r3, #0]
 80010d0:	4b0b      	ldr	r3, [pc, #44]	; (8001100 <buttons_controller+0x64>)
 80010d2:	eb03 1302 	add.w	r3, r3, r2, lsl #4
 80010d6:	689b      	ldr	r3, [r3, #8]
 80010d8:	4798      	blx	r3
 80010da:	4b0a      	ldr	r3, [pc, #40]	; (8001104 <buttons_controller+0x68>)
 80010dc:	b200      	sxth	r0, r0
 80010de:	7018      	strb	r0, [r3, #0]
 80010e0:	f3c0 2007 	ubfx	r0, r0, #8, #8
 80010e4:	7058      	strb	r0, [r3, #1]
 80010e6:	bd08      	pop	{r3, pc}
 80010e8:	2005      	movs	r0, #5
 80010ea:	e7ed      	b.n	80010c8 <buttons_controller+0x2c>
 80010ec:	2003      	movs	r0, #3
 80010ee:	e7eb      	b.n	80010c8 <buttons_controller+0x2c>
 80010f0:	2001      	movs	r0, #1
 80010f2:	e7e9      	b.n	80010c8 <buttons_controller+0x2c>
 80010f4:	2000      	movs	r0, #0
 80010f6:	e7e7      	b.n	80010c8 <buttons_controller+0x2c>
 80010f8:	20000001 	.word	0x20000001
 80010fc:	20000000 	.word	0x20000000
 8001100:	20000004 	.word	0x20000004
 8001104:	200000d1 	.word	0x200000d1

08001108 <interrupt_adc_interface>:
 8001108:	b510      	push	{r4, lr}
 800110a:	4604      	mov	r4, r0
 800110c:	f001 f968 	bl	80023e0 <HAL_ADC_GetValue>
 8001110:	4b04      	ldr	r3, [pc, #16]	; (8001124 <interrupt_adc_interface+0x1c>)
 8001112:	6018      	str	r0, [r3, #0]
 8001114:	f7ff ffc2 	bl	800109c <buttons_controller>
 8001118:	4620      	mov	r0, r4
 800111a:	e8bd 4010 	ldmia.w	sp!, {r4, lr}
 800111e:	f001 bde4 	b.w	8002cea <HAL_ADC_Stop_IT>
 8001122:	bf00      	nop
 8001124:	20001a38 	.word	0x20001a38

08001128 <set_screen>:
 8001128:	4a09      	ldr	r2, [pc, #36]	; (8001150 <set_screen+0x28>)
 800112a:	4b0a      	ldr	r3, [pc, #40]	; (8001154 <set_screen+0x2c>)
 800112c:	7811      	ldrb	r1, [r2, #0]
 800112e:	b510      	push	{r4, lr}
 8001130:	eb03 1401 	add.w	r4, r3, r1, lsl #4
 8001134:	89a4      	ldrh	r4, [r4, #12]
 8001136:	b90c      	cbnz	r4, 800113c <set_screen+0x14>
 8001138:	4c07      	ldr	r4, [pc, #28]	; (8001158 <set_screen+0x30>)
 800113a:	7021      	strb	r1, [r4, #0]
 800113c:	eb03 1300 	add.w	r3, r3, r0, lsl #4
 8001140:	7010      	strb	r0, [r2, #0]
 8001142:	8999      	ldrh	r1, [r3, #12]
 8001144:	4b05      	ldr	r3, [pc, #20]	; (800115c <set_screen+0x34>)
 8001146:	8019      	strh	r1, [r3, #0]
 8001148:	4b05      	ldr	r3, [pc, #20]	; (8001160 <set_screen+0x38>)
 800114a:	2201      	movs	r2, #1
 800114c:	701a      	strb	r2, [r3, #0]
 800114e:	bd10      	pop	{r4, pc}
 8001150:	20000000 	.word	0x20000000
 8001154:	20000004 	.word	0x20000004
 8001158:	20000002 	.word	0x20000002
 800115c:	200000d4 	.word	0x200000d4
 8001160:	20000003 	.word	0x20000003

08001164 <volume_update>:
 8001164:	b508      	push	{r3, lr}
 8001166:	4b0d      	ldr	r3, [pc, #52]	; (800119c <volume_update+0x38>)
 8001168:	681a      	ldr	r2, [r3, #0]
 800116a:	2a00      	cmp	r2, #0
 800116c:	dd0d      	ble.n	800118a <volume_update+0x26>
 800116e:	490c      	ldr	r1, [pc, #48]	; (80011a0 <volume_update+0x3c>)
 8001170:	780a      	ldrb	r2, [r1, #0]
 8001172:	2a13      	cmp	r2, #19
 8001174:	d801      	bhi.n	800117a <volume_update+0x16>
 8001176:	3201      	adds	r2, #1
 8001178:	700a      	strb	r2, [r1, #0]
 800117a:	2000      	movs	r0, #0
 800117c:	6018      	str	r0, [r3, #0]
 800117e:	f7ff ffd3 	bl	8001128 <set_screen>
 8001182:	e8bd 4008 	ldmia.w	sp!, {r3, lr}
 8001186:	f7ff bf31 	b.w	8000fec <configure_potentiometers>
 800118a:	d005      	beq.n	8001198 <volume_update+0x34>
 800118c:	4904      	ldr	r1, [pc, #16]	; (80011a0 <volume_update+0x3c>)
 800118e:	780a      	ldrb	r2, [r1, #0]
 8001190:	2a00      	cmp	r2, #0
 8001192:	d0f2      	beq.n	800117a <volume_update+0x16>
 8001194:	3a01      	subs	r2, #1
 8001196:	e7ef      	b.n	8001178 <volume_update+0x14>
 8001198:	bd08      	pop	{r3, pc}
 800119a:	bf00      	nop
 800119c:	200000d8 	.word	0x200000d8
 80011a0:	200000dc 	.word	0x200000dc

080011a4 <tick_interface>:
 80011a4:	b510      	push	{r4, lr}
 80011a6:	4604      	mov	r4, r0
 80011a8:	f7ff febe 	bl	8000f28 <interface_update>
 80011ac:	4620      	mov	r0, r4
 80011ae:	f7ff ffd9 	bl	8001164 <volume_update>
 80011b2:	4620      	mov	r0, r4
 80011b4:	e8bd 4010 	ldmia.w	sp!, {r4, lr}
 80011b8:	f7ff beea 	b.w	8000f90 <screen_update>

080011bc <onButtonPressedPopUp>:
 80011bc:	b082      	sub	sp, #8
 80011be:	2001      	movs	r0, #1
 80011c0:	b002      	add	sp, #8
 80011c2:	4770      	bx	lr

080011c4 <onButtonPressedStart>:
 80011c4:	2805      	cmp	r0, #5
 80011c6:	bf0c      	ite	eq
 80011c8:	2300      	moveq	r3, #0
 80011ca:	2302      	movne	r3, #2
 80011cc:	2000      	movs	r0, #0
 80011ce:	f363 0007 	bfi	r0, r3, #0, #8
 80011d2:	b082      	sub	sp, #8
 80011d4:	f363 200f 	bfi	r0, r3, #8, #8
 80011d8:	b002      	add	sp, #8
 80011da:	4770      	bx	lr

080011dc <onButtonPressedMenu>:
 80011dc:	2802      	cmp	r0, #2
 80011de:	b082      	sub	sp, #8
 80011e0:	d315      	bcc.n	800120e <onButtonPressedMenu+0x32>
 80011e2:	2803      	cmp	r0, #3
 80011e4:	d90d      	bls.n	8001202 <onButtonPressedMenu+0x26>
 80011e6:	2804      	cmp	r0, #4
 80011e8:	d111      	bne.n	800120e <onButtonPressedMenu+0x32>
 80011ea:	4b0d      	ldr	r3, [pc, #52]	; (8001220 <onButtonPressedMenu+0x44>)
 80011ec:	781b      	ldrb	r3, [r3, #0]
 80011ee:	b1ab      	cbz	r3, 800121c <onButtonPressedMenu+0x40>
 80011f0:	2b01      	cmp	r3, #1
 80011f2:	bf14      	ite	ne
 80011f4:	2000      	movne	r0, #0
 80011f6:	2004      	moveq	r0, #4
 80011f8:	2302      	movs	r3, #2
 80011fa:	ea43 2000 	orr.w	r0, r3, r0, lsl #8
 80011fe:	b002      	add	sp, #8
 8001200:	4770      	bx	lr
 8001202:	4b07      	ldr	r3, [pc, #28]	; (8001220 <onButtonPressedMenu+0x44>)
 8001204:	781a      	ldrb	r2, [r3, #0]
 8001206:	2000      	movs	r0, #0
 8001208:	b91a      	cbnz	r2, 8001212 <onButtonPressedMenu+0x36>
 800120a:	2101      	movs	r1, #1
 800120c:	7019      	strb	r1, [r3, #0]
 800120e:	2000      	movs	r0, #0
 8001210:	e002      	b.n	8001218 <onButtonPressedMenu+0x3c>
 8001212:	2a01      	cmp	r2, #1
 8001214:	d100      	bne.n	8001218 <onButtonPressedMenu+0x3c>
 8001216:	7018      	strb	r0, [r3, #0]
 8001218:	4603      	mov	r3, r0
 800121a:	e7ee      	b.n	80011fa <onButtonPressedMenu+0x1e>
 800121c:	2003      	movs	r0, #3
 800121e:	e7eb      	b.n	80011f8 <onButtonPressedMenu+0x1c>
 8001220:	200000de 	.word	0x200000de

08001224 <onButtonPressedLed>:
 8001224:	b082      	sub	sp, #8
 8001226:	2804      	cmp	r0, #4
 8001228:	d833      	bhi.n	8001292 <onButtonPressedLed+0x6e>
 800122a:	e8df f000 	tbb	[pc, r0]
 800122e:	3427      	.short	0x3427
 8001230:	1d17      	.short	0x1d17
 8001232:	03          	.byte	0x03
 8001233:	00          	.byte	0x00
 8001234:	4b1c      	ldr	r3, [pc, #112]	; (80012a8 <onButtonPressedLed+0x84>)
 8001236:	781b      	ldrb	r3, [r3, #0]
 8001238:	b153      	cbz	r3, 8001250 <onButtonPressedLed+0x2c>
 800123a:	2b02      	cmp	r3, #2
 800123c:	bf0c      	ite	eq
 800123e:	2302      	moveq	r3, #2
 8001240:	2300      	movne	r3, #0
 8001242:	2000      	movs	r0, #0
 8001244:	f363 0007 	bfi	r0, r3, #0, #8
 8001248:	f363 200f 	bfi	r0, r3, #8, #8
 800124c:	b002      	add	sp, #8
 800124e:	4770      	bx	lr
 8001250:	4916      	ldr	r1, [pc, #88]	; (80012ac <onButtonPressedLed+0x88>)
 8001252:	780a      	ldrb	r2, [r1, #0]
 8001254:	f082 0201 	eor.w	r2, r2, #1
 8001258:	700a      	strb	r2, [r1, #0]
 800125a:	e7f2      	b.n	8001242 <onButtonPressedLed+0x1e>
 800125c:	4a12      	ldr	r2, [pc, #72]	; (80012a8 <onButtonPressedLed+0x84>)
 800125e:	7813      	ldrb	r3, [r2, #0]
 8001260:	b9ab      	cbnz	r3, 800128e <onButtonPressedLed+0x6a>
 8001262:	2102      	movs	r1, #2
 8001264:	7011      	strb	r1, [r2, #0]
 8001266:	e7ec      	b.n	8001242 <onButtonPressedLed+0x1e>
 8001268:	490f      	ldr	r1, [pc, #60]	; (80012a8 <onButtonPressedLed+0x84>)
 800126a:	780a      	ldrb	r2, [r1, #0]
 800126c:	2a02      	cmp	r2, #2
 800126e:	f04f 0300 	mov.w	r3, #0
 8001272:	d101      	bne.n	8001278 <onButtonPressedLed+0x54>
 8001274:	700b      	strb	r3, [r1, #0]
 8001276:	e7e4      	b.n	8001242 <onButtonPressedLed+0x1e>
 8001278:	3201      	adds	r2, #1
 800127a:	e7ed      	b.n	8001258 <onButtonPressedLed+0x34>
 800127c:	4b0a      	ldr	r3, [pc, #40]	; (80012a8 <onButtonPressedLed+0x84>)
 800127e:	781b      	ldrb	r3, [r3, #0]
 8001280:	2b01      	cmp	r3, #1
 8001282:	d106      	bne.n	8001292 <onButtonPressedLed+0x6e>
 8001284:	4a0a      	ldr	r2, [pc, #40]	; (80012b0 <onButtonPressedLed+0x8c>)
 8001286:	7813      	ldrb	r3, [r2, #0]
 8001288:	b90b      	cbnz	r3, 800128e <onButtonPressedLed+0x6a>
 800128a:	2104      	movs	r1, #4
 800128c:	e7ea      	b.n	8001264 <onButtonPressedLed+0x40>
 800128e:	3b01      	subs	r3, #1
 8001290:	7013      	strb	r3, [r2, #0]
 8001292:	2300      	movs	r3, #0
 8001294:	e7d5      	b.n	8001242 <onButtonPressedLed+0x1e>
 8001296:	4b04      	ldr	r3, [pc, #16]	; (80012a8 <onButtonPressedLed+0x84>)
 8001298:	781b      	ldrb	r3, [r3, #0]
 800129a:	2b01      	cmp	r3, #1
 800129c:	d1f9      	bne.n	8001292 <onButtonPressedLed+0x6e>
 800129e:	4904      	ldr	r1, [pc, #16]	; (80012b0 <onButtonPressedLed+0x8c>)
 80012a0:	780a      	ldrb	r2, [r1, #0]
 80012a2:	2a04      	cmp	r2, #4
 80012a4:	e7e3      	b.n	800126e <onButtonPressedLed+0x4a>
 80012a6:	bf00      	nop
 80012a8:	200000dd 	.word	0x200000dd
 80012ac:	200000d0 	.word	0x200000d0
 80012b0:	200000df 	.word	0x200000df

080012b4 <onButtonPressedSong>:
 80012b4:	2801      	cmp	r0, #1
 80012b6:	bf1a      	itte	ne
 80012b8:	2000      	movne	r0, #0
 80012ba:	4603      	movne	r3, r0
 80012bc:	2302      	moveq	r3, #2
 80012be:	b082      	sub	sp, #8
 80012c0:	ea43 2000 	orr.w	r0, r3, r0, lsl #8
 80012c4:	b002      	add	sp, #8
 80012c6:	4770      	bx	lr

080012c8 <getScreenOutputVolume>:
 80012c8:	b5f0      	push	{r4, r5, r6, r7, lr}
 80012ca:	4616      	mov	r6, r2
 80012cc:	4a13      	ldr	r2, [pc, #76]	; (800131c <getScreenOutputVolume+0x54>)
 80012ce:	b089      	sub	sp, #36	; 0x24
 80012d0:	6810      	ldr	r0, [r2, #0]
 80012d2:	460f      	mov	r7, r1
 80012d4:	6851      	ldr	r1, [r2, #4]
 80012d6:	466b      	mov	r3, sp
 80012d8:	c303      	stmia	r3!, {r0, r1}
 80012da:	6890      	ldr	r0, [r2, #8]
 80012dc:	6018      	str	r0, [r3, #0]
 80012de:	4b10      	ldr	r3, [pc, #64]	; (8001320 <getScreenOutputVolume+0x58>)
 80012e0:	781b      	ldrb	r3, [r3, #0]
 80012e2:	2400      	movs	r4, #0
 80012e4:	011b      	lsls	r3, r3, #4
 80012e6:	f04f 0c14 	mov.w	ip, #20
 80012ea:	ad03      	add	r5, sp, #12
 80012ec:	205f      	movs	r0, #95	; 0x5f
 80012ee:	21ff      	movs	r1, #255	; 0xff
 80012f0:	fb0c f204 	mul.w	r2, ip, r4
 80012f4:	4293      	cmp	r3, r2
 80012f6:	bfd4      	ite	le
 80012f8:	4602      	movle	r2, r0
 80012fa:	460a      	movgt	r2, r1
 80012fc:	552a      	strb	r2, [r5, r4]
 80012fe:	3401      	adds	r4, #1
 8001300:	2c10      	cmp	r4, #16
 8001302:	d1f5      	bne.n	80012f0 <getScreenOutputVolume+0x28>
 8001304:	4622      	mov	r2, r4
 8001306:	4669      	mov	r1, sp
 8001308:	4638      	mov	r0, r7
 800130a:	f005 f89d 	bl	8006448 <strncpy>
 800130e:	4622      	mov	r2, r4
 8001310:	4629      	mov	r1, r5
 8001312:	4630      	mov	r0, r6
 8001314:	f005 f898 	bl	8006448 <strncpy>
 8001318:	b009      	add	sp, #36	; 0x24
 800131a:	bdf0      	pop	{r4, r5, r6, r7, pc}
 800131c:	08006659 	.word	0x08006659
 8001320:	200000dc 	.word	0x200000dc

08001324 <getScreenOutputStart>:
 8001324:	e92d 41f0 	stmdb	sp!, {r4, r5, r6, r7, r8, lr}
 8001328:	4b24      	ldr	r3, [pc, #144]	; (80013bc <getScreenOutputStart+0x98>)
 800132a:	b094      	sub	sp, #80	; 0x50
 800132c:	4680      	mov	r8, r0
 800132e:	460e      	mov	r6, r1
 8001330:	6818      	ldr	r0, [r3, #0]
 8001332:	6859      	ldr	r1, [r3, #4]
 8001334:	4615      	mov	r5, r2
 8001336:	aa01      	add	r2, sp, #4
 8001338:	c203      	stmia	r2!, {r0, r1}
 800133a:	6898      	ldr	r0, [r3, #8]
 800133c:	6010      	str	r0, [r2, #0]
 800133e:	4a20      	ldr	r2, [pc, #128]	; (80013c0 <getScreenOutputStart+0x9c>)
 8001340:	2300      	movs	r3, #0
 8001342:	ac0b      	add	r4, sp, #44	; 0x2c
 8001344:	9304      	str	r3, [sp, #16]
 8001346:	f88d 3014 	strb.w	r3, [sp, #20]
 800134a:	4627      	mov	r7, r4
 800134c:	f102 0320 	add.w	r3, r2, #32
 8001350:	6810      	ldr	r0, [r2, #0]
 8001352:	6851      	ldr	r1, [r2, #4]
 8001354:	46a4      	mov	ip, r4
 8001356:	e8ac 0003 	stmia.w	ip!, {r0, r1}
 800135a:	3208      	adds	r2, #8
 800135c:	429a      	cmp	r2, r3
 800135e:	4664      	mov	r4, ip
 8001360:	d1f6      	bne.n	8001350 <getScreenOutputStart+0x2c>
 8001362:	7893      	ldrb	r3, [r2, #2]
 8001364:	8811      	ldrh	r1, [r2, #0]
 8001366:	f88c 3002 	strb.w	r3, [ip, #2]
 800136a:	4638      	mov	r0, r7
 800136c:	f8ac 1000 	strh.w	r1, [ip]
 8001370:	f7fe ff56 	bl	8000220 <strlen>
 8001374:	ebc0 1200 	rsb	r2, r0, r0, lsl #4
 8001378:	fbb8 f3f2 	udiv	r3, r8, r2
 800137c:	fb02 8313 	mls	r3, r2, r3, r8
 8001380:	220f      	movs	r2, #15
 8001382:	fbb3 f3f2 	udiv	r3, r3, r2
 8001386:	3b01      	subs	r3, #1
 8001388:	b2db      	uxtb	r3, r3
 800138a:	2400      	movs	r4, #0
 800138c:	aa06      	add	r2, sp, #24
 800138e:	441f      	add	r7, r3
 8001390:	1919      	adds	r1, r3, r4
 8001392:	4288      	cmp	r0, r1
 8001394:	bfc4      	itt	gt
 8001396:	5d39      	ldrbgt	r1, [r7, r4]
 8001398:	54a1      	strbgt	r1, [r4, r2]
 800139a:	3401      	adds	r4, #1
 800139c:	2c10      	cmp	r4, #16
 800139e:	d1f7      	bne.n	8001390 <getScreenOutputStart+0x6c>
 80013a0:	4622      	mov	r2, r4
 80013a2:	a901      	add	r1, sp, #4
 80013a4:	4630      	mov	r0, r6
 80013a6:	f005 f84f 	bl	8006448 <strncpy>
 80013aa:	4622      	mov	r2, r4
 80013ac:	a906      	add	r1, sp, #24
 80013ae:	4628      	mov	r0, r5
 80013b0:	f005 f84a 	bl	8006448 <strncpy>
 80013b4:	b014      	add	sp, #80	; 0x50
 80013b6:	e8bd 81f0 	ldmia.w	sp!, {r4, r5, r6, r7, r8, pc}
 80013ba:	bf00      	nop
 80013bc:	0800648c 	.word	0x0800648c
 80013c0:	08006636 	.word	0x08006636

080013c4 <getScreenOutputMenu>:
 80013c4:	b5f0      	push	{r4, r5, r6, r7, lr}
 80013c6:	4614      	mov	r4, r2
 80013c8:	2206      	movs	r2, #6
 80013ca:	230f      	movs	r3, #15
 80013cc:	fbb0 f3f3 	udiv	r3, r0, r3
 80013d0:	fbb3 f0f2 	udiv	r0, r3, r2
 80013d4:	fb02 3010 	mls	r0, r2, r0, r3
 80013d8:	3801      	subs	r0, #1
 80013da:	b08b      	sub	sp, #44	; 0x2c
 80013dc:	460d      	mov	r5, r1
 80013de:	2804      	cmp	r0, #4
 80013e0:	d804      	bhi.n	80013ec <getScreenOutputMenu+0x28>
 80013e2:	e8df f000 	tbb	[pc, r0]
 80013e6:	2e21      	.short	0x2e21
 80013e8:	2e3b      	.short	0x2e3b
 80013ea:	21          	.byte	0x21
 80013eb:	00          	.byte	0x00
 80013ec:	4b34      	ldr	r3, [pc, #208]	; (80014c0 <getScreenOutputMenu+0xfc>)
 80013ee:	466e      	mov	r6, sp
 80013f0:	f103 0710 	add.w	r7, r3, #16
 80013f4:	6818      	ldr	r0, [r3, #0]
 80013f6:	6859      	ldr	r1, [r3, #4]
 80013f8:	4632      	mov	r2, r6
 80013fa:	c203      	stmia	r2!, {r0, r1}
 80013fc:	3308      	adds	r3, #8
 80013fe:	42bb      	cmp	r3, r7
 8001400:	4616      	mov	r6, r2
 8001402:	d1f7      	bne.n	80013f4 <getScreenOutputMenu+0x30>
 8001404:	4b2f      	ldr	r3, [pc, #188]	; (80014c4 <getScreenOutputMenu+0x100>)
 8001406:	781b      	ldrb	r3, [r3, #0]
 8001408:	b3ab      	cbz	r3, 8001476 <getScreenOutputMenu+0xb2>
 800140a:	2b01      	cmp	r3, #1
 800140c:	d04b      	beq.n	80014a6 <getScreenOutputMenu+0xe2>
 800140e:	4b2e      	ldr	r3, [pc, #184]	; (80014c8 <getScreenOutputMenu+0x104>)
 8001410:	ae05      	add	r6, sp, #20
 8001412:	f103 0710 	add.w	r7, r3, #16
 8001416:	6818      	ldr	r0, [r3, #0]
 8001418:	6859      	ldr	r1, [r3, #4]
 800141a:	4632      	mov	r2, r6
 800141c:	c203      	stmia	r2!, {r0, r1}
 800141e:	3308      	adds	r3, #8
 8001420:	42bb      	cmp	r3, r7
 8001422:	4616      	mov	r6, r2
 8001424:	d1f7      	bne.n	8001416 <getScreenOutputMenu+0x52>
 8001426:	e032      	b.n	800148e <getScreenOutputMenu+0xca>
 8001428:	4b28      	ldr	r3, [pc, #160]	; (80014cc <getScreenOutputMenu+0x108>)
 800142a:	466e      	mov	r6, sp
 800142c:	f103 0710 	add.w	r7, r3, #16
 8001430:	6818      	ldr	r0, [r3, #0]
 8001432:	6859      	ldr	r1, [r3, #4]
 8001434:	4632      	mov	r2, r6
 8001436:	c203      	stmia	r2!, {r0, r1}
 8001438:	3308      	adds	r3, #8
 800143a:	42bb      	cmp	r3, r7
 800143c:	4616      	mov	r6, r2
 800143e:	d1f7      	bne.n	8001430 <getScreenOutputMenu+0x6c>
 8001440:	e7e0      	b.n	8001404 <getScreenOutputMenu+0x40>
 8001442:	4b23      	ldr	r3, [pc, #140]	; (80014d0 <getScreenOutputMenu+0x10c>)
 8001444:	466e      	mov	r6, sp
 8001446:	f103 0710 	add.w	r7, r3, #16
 800144a:	6818      	ldr	r0, [r3, #0]
 800144c:	6859      	ldr	r1, [r3, #4]
 800144e:	4632      	mov	r2, r6
 8001450:	c203      	stmia	r2!, {r0, r1}
 8001452:	3308      	adds	r3, #8
 8001454:	42bb      	cmp	r3, r7
 8001456:	4616      	mov	r6, r2
 8001458:	d1f7      	bne.n	800144a <getScreenOutputMenu+0x86>
 800145a:	e7d3      	b.n	8001404 <getScreenOutputMenu+0x40>
 800145c:	4b1d      	ldr	r3, [pc, #116]	; (80014d4 <getScreenOutputMenu+0x110>)
 800145e:	466e      	mov	r6, sp
 8001460:	f103 0710 	add.w	r7, r3, #16
 8001464:	6818      	ldr	r0, [r3, #0]
 8001466:	6859      	ldr	r1, [r3, #4]
 8001468:	4632      	mov	r2, r6
 800146a:	c203      	stmia	r2!, {r0, r1}
 800146c:	3308      	adds	r3, #8
 800146e:	42bb      	cmp	r3, r7
 8001470:	4616      	mov	r6, r2
 8001472:	d1f7      	bne.n	8001464 <getScreenOutputMenu+0xa0>
 8001474:	e7c6      	b.n	8001404 <getScreenOutputMenu+0x40>
 8001476:	4b18      	ldr	r3, [pc, #96]	; (80014d8 <getScreenOutputMenu+0x114>)
 8001478:	ae05      	add	r6, sp, #20
 800147a:	f103 0710 	add.w	r7, r3, #16
 800147e:	6818      	ldr	r0, [r3, #0]
 8001480:	6859      	ldr	r1, [r3, #4]
 8001482:	4632      	mov	r2, r6
 8001484:	c203      	stmia	r2!, {r0, r1}
 8001486:	3308      	adds	r3, #8
 8001488:	42bb      	cmp	r3, r7
 800148a:	4616      	mov	r6, r2
 800148c:	d1f7      	bne.n	800147e <getScreenOutputMenu+0xba>
 800148e:	4669      	mov	r1, sp
 8001490:	2210      	movs	r2, #16
 8001492:	4628      	mov	r0, r5
 8001494:	f004 ffd8 	bl	8006448 <strncpy>
 8001498:	2210      	movs	r2, #16
 800149a:	a905      	add	r1, sp, #20
 800149c:	4620      	mov	r0, r4
 800149e:	f004 ffd3 	bl	8006448 <strncpy>
 80014a2:	b00b      	add	sp, #44	; 0x2c
 80014a4:	bdf0      	pop	{r4, r5, r6, r7, pc}
 80014a6:	4b0d      	ldr	r3, [pc, #52]	; (80014dc <getScreenOutputMenu+0x118>)
 80014a8:	ae05      	add	r6, sp, #20
 80014aa:	f103 0710 	add.w	r7, r3, #16
 80014ae:	6818      	ldr	r0, [r3, #0]
 80014b0:	6859      	ldr	r1, [r3, #4]
 80014b2:	4632      	mov	r2, r6
 80014b4:	c203      	stmia	r2!, {r0, r1}
 80014b6:	3308      	adds	r3, #8
 80014b8:	42bb      	cmp	r3, r7
 80014ba:	4616      	mov	r6, r2
 80014bc:	d1f7      	bne.n	80014ae <getScreenOutputMenu+0xea>
 80014be:	e7e6      	b.n	800148e <getScreenOutputMenu+0xca>
 80014c0:	0800659c 	.word	0x0800659c
 80014c4:	200000de 	.word	0x200000de
 80014c8:	08006602 	.word	0x08006602
 80014cc:	080065ad 	.word	0x080065ad
 80014d0:	080065be 	.word	0x080065be
 80014d4:	080065cf 	.word	0x080065cf
 80014d8:	080065e0 	.word	0x080065e0
 80014dc:	080065f1 	.word	0x080065f1

080014e0 <getScreenOutputLed>:
 80014e0:	b5f0      	push	{r4, r5, r6, r7, lr}
 80014e2:	4b81      	ldr	r3, [pc, #516]	; (80016e8 <getScreenOutputLed+0x208>)
 80014e4:	781f      	ldrb	r7, [r3, #0]
 80014e6:	b08b      	sub	sp, #44	; 0x2c
 80014e8:	4606      	mov	r6, r0
 80014ea:	460d      	mov	r5, r1
 80014ec:	4614      	mov	r4, r2
 80014ee:	2f04      	cmp	r7, #4
 80014f0:	d812      	bhi.n	8001518 <getScreenOutputLed+0x38>
 80014f2:	e8df f007 	tbb	[pc, r7]
 80014f6:	3403      	.short	0x3403
 80014f8:	5151      	.short	0x5151
 80014fa:	51          	.byte	0x51
 80014fb:	00          	.byte	0x00
 80014fc:	07f0      	lsls	r0, r6, #31
 80014fe:	d420      	bmi.n	8001542 <getScreenOutputLed+0x62>
 8001500:	4b7a      	ldr	r3, [pc, #488]	; (80016ec <getScreenOutputLed+0x20c>)
 8001502:	46ec      	mov	ip, sp
 8001504:	f103 0e10 	add.w	lr, r3, #16
 8001508:	6818      	ldr	r0, [r3, #0]
 800150a:	6859      	ldr	r1, [r3, #4]
 800150c:	4662      	mov	r2, ip
 800150e:	c203      	stmia	r2!, {r0, r1}
 8001510:	3308      	adds	r3, #8
 8001512:	4573      	cmp	r3, lr
 8001514:	4694      	mov	ip, r2
 8001516:	d1f7      	bne.n	8001508 <getScreenOutputLed+0x28>
 8001518:	4b75      	ldr	r3, [pc, #468]	; (80016f0 <getScreenOutputLed+0x210>)
 800151a:	781b      	ldrb	r3, [r3, #0]
 800151c:	2b01      	cmp	r3, #1
 800151e:	d070      	beq.n	8001602 <getScreenOutputLed+0x122>
 8001520:	d347      	bcc.n	80015b2 <getScreenOutputLed+0xd2>
 8001522:	2b02      	cmp	r3, #2
 8001524:	f000 80d3 	beq.w	80016ce <getScreenOutputLed+0x1ee>
 8001528:	4b72      	ldr	r3, [pc, #456]	; (80016f4 <getScreenOutputLed+0x214>)
 800152a:	ae05      	add	r6, sp, #20
 800152c:	f103 0710 	add.w	r7, r3, #16
 8001530:	6818      	ldr	r0, [r3, #0]
 8001532:	6859      	ldr	r1, [r3, #4]
 8001534:	4632      	mov	r2, r6
 8001536:	c203      	stmia	r2!, {r0, r1}
 8001538:	3308      	adds	r3, #8
 800153a:	42bb      	cmp	r3, r7
 800153c:	4616      	mov	r6, r2
 800153e:	d1f7      	bne.n	8001530 <getScreenOutputLed+0x50>
 8001540:	e046      	b.n	80015d0 <getScreenOutputLed+0xf0>
 8001542:	4b6d      	ldr	r3, [pc, #436]	; (80016f8 <getScreenOutputLed+0x218>)
 8001544:	466a      	mov	r2, sp
 8001546:	f103 0e10 	add.w	lr, r3, #16
 800154a:	6818      	ldr	r0, [r3, #0]
 800154c:	6859      	ldr	r1, [r3, #4]
 800154e:	4694      	mov	ip, r2
 8001550:	e8ac 0003 	stmia.w	ip!, {r0, r1}
 8001554:	3308      	adds	r3, #8
 8001556:	4573      	cmp	r3, lr
 8001558:	4662      	mov	r2, ip
 800155a:	d1f6      	bne.n	800154a <getScreenOutputLed+0x6a>
 800155c:	e7dc      	b.n	8001518 <getScreenOutputLed+0x38>
 800155e:	07c1      	lsls	r1, r0, #31
 8001560:	d40c      	bmi.n	800157c <getScreenOutputLed+0x9c>
 8001562:	4b66      	ldr	r3, [pc, #408]	; (80016fc <getScreenOutputLed+0x21c>)
 8001564:	46ec      	mov	ip, sp
 8001566:	f103 0e10 	add.w	lr, r3, #16
 800156a:	6818      	ldr	r0, [r3, #0]
 800156c:	6859      	ldr	r1, [r3, #4]
 800156e:	4662      	mov	r2, ip
 8001570:	c203      	stmia	r2!, {r0, r1}
 8001572:	3308      	adds	r3, #8
 8001574:	4573      	cmp	r3, lr
 8001576:	4694      	mov	ip, r2
 8001578:	d1f7      	bne.n	800156a <getScreenOutputLed+0x8a>
 800157a:	e7cd      	b.n	8001518 <getScreenOutputLed+0x38>
 800157c:	4b60      	ldr	r3, [pc, #384]	; (8001700 <getScreenOutputLed+0x220>)
 800157e:	466a      	mov	r2, sp
 8001580:	f103 0e10 	add.w	lr, r3, #16
 8001584:	6818      	ldr	r0, [r3, #0]
 8001586:	6859      	ldr	r1, [r3, #4]
 8001588:	4694      	mov	ip, r2
 800158a:	e8ac 0003 	stmia.w	ip!, {r0, r1}
 800158e:	3308      	adds	r3, #8
 8001590:	4573      	cmp	r3, lr
 8001592:	4662      	mov	r2, ip
 8001594:	d1f6      	bne.n	8001584 <getScreenOutputLed+0xa4>
 8001596:	e7bf      	b.n	8001518 <getScreenOutputLed+0x38>
 8001598:	4b5a      	ldr	r3, [pc, #360]	; (8001704 <getScreenOutputLed+0x224>)
 800159a:	46ec      	mov	ip, sp
 800159c:	f103 0e10 	add.w	lr, r3, #16
 80015a0:	6818      	ldr	r0, [r3, #0]
 80015a2:	6859      	ldr	r1, [r3, #4]
 80015a4:	4662      	mov	r2, ip
 80015a6:	c203      	stmia	r2!, {r0, r1}
 80015a8:	3308      	adds	r3, #8
 80015aa:	4573      	cmp	r3, lr
 80015ac:	4694      	mov	ip, r2
 80015ae:	d1f7      	bne.n	80015a0 <getScreenOutputLed+0xc0>
 80015b0:	e7b2      	b.n	8001518 <getScreenOutputLed+0x38>
 80015b2:	4b55      	ldr	r3, [pc, #340]	; (8001708 <getScreenOutputLed+0x228>)
 80015b4:	781b      	ldrb	r3, [r3, #0]
 80015b6:	b1bb      	cbz	r3, 80015e8 <getScreenOutputLed+0x108>
 80015b8:	4b54      	ldr	r3, [pc, #336]	; (800170c <getScreenOutputLed+0x22c>)
 80015ba:	ae05      	add	r6, sp, #20
 80015bc:	f103 0710 	add.w	r7, r3, #16
 80015c0:	6818      	ldr	r0, [r3, #0]
 80015c2:	6859      	ldr	r1, [r3, #4]
 80015c4:	4632      	mov	r2, r6
 80015c6:	c203      	stmia	r2!, {r0, r1}
 80015c8:	3308      	adds	r3, #8
 80015ca:	42bb      	cmp	r3, r7
 80015cc:	4616      	mov	r6, r2
 80015ce:	d1f7      	bne.n	80015c0 <getScreenOutputLed+0xe0>
 80015d0:	4669      	mov	r1, sp
 80015d2:	2210      	movs	r2, #16
 80015d4:	4628      	mov	r0, r5
 80015d6:	f004 ff37 	bl	8006448 <strncpy>
 80015da:	2210      	movs	r2, #16
 80015dc:	a905      	add	r1, sp, #20
 80015de:	4620      	mov	r0, r4
 80015e0:	f004 ff32 	bl	8006448 <strncpy>
 80015e4:	b00b      	add	sp, #44	; 0x2c
 80015e6:	bdf0      	pop	{r4, r5, r6, r7, pc}
 80015e8:	4b49      	ldr	r3, [pc, #292]	; (8001710 <getScreenOutputLed+0x230>)
 80015ea:	ae05      	add	r6, sp, #20
 80015ec:	f103 0710 	add.w	r7, r3, #16
 80015f0:	6818      	ldr	r0, [r3, #0]
 80015f2:	6859      	ldr	r1, [r3, #4]
 80015f4:	4632      	mov	r2, r6
 80015f6:	c203      	stmia	r2!, {r0, r1}
 80015f8:	3308      	adds	r3, #8
 80015fa:	42bb      	cmp	r3, r7
 80015fc:	4616      	mov	r6, r2
 80015fe:	d1f7      	bne.n	80015f0 <getScreenOutputLed+0x110>
 8001600:	e7e6      	b.n	80015d0 <getScreenOutputLed+0xf0>
 8001602:	2f04      	cmp	r7, #4
 8001604:	d8e4      	bhi.n	80015d0 <getScreenOutputLed+0xf0>
 8001606:	e8df f007 	tbb	[pc, r7]
 800160a:	1f03      	.short	0x1f03
 800160c:	483b      	.short	0x483b
 800160e:	55          	.byte	0x55
 800160f:	00          	.byte	0x00
 8001610:	07f2      	lsls	r2, r6, #31
 8001612:	d40c      	bmi.n	800162e <getScreenOutputLed+0x14e>
 8001614:	4b3f      	ldr	r3, [pc, #252]	; (8001714 <getScreenOutputLed+0x234>)
 8001616:	ae05      	add	r6, sp, #20
 8001618:	f103 0710 	add.w	r7, r3, #16
 800161c:	6818      	ldr	r0, [r3, #0]
 800161e:	6859      	ldr	r1, [r3, #4]
 8001620:	4632      	mov	r2, r6
 8001622:	c203      	stmia	r2!, {r0, r1}
 8001624:	3308      	adds	r3, #8
 8001626:	42bb      	cmp	r3, r7
 8001628:	4616      	mov	r6, r2
 800162a:	d1f7      	bne.n	800161c <getScreenOutputLed+0x13c>
 800162c:	e7d0      	b.n	80015d0 <getScreenOutputLed+0xf0>
 800162e:	4b3a      	ldr	r3, [pc, #232]	; (8001718 <getScreenOutputLed+0x238>)
 8001630:	ae05      	add	r6, sp, #20
 8001632:	f103 0710 	add.w	r7, r3, #16
 8001636:	6818      	ldr	r0, [r3, #0]
 8001638:	6859      	ldr	r1, [r3, #4]
 800163a:	4632      	mov	r2, r6
 800163c:	c203      	stmia	r2!, {r0, r1}
 800163e:	3308      	adds	r3, #8
 8001640:	42bb      	cmp	r3, r7
 8001642:	4616      	mov	r6, r2
 8001644:	d1f7      	bne.n	8001636 <getScreenOutputLed+0x156>
 8001646:	e7c3      	b.n	80015d0 <getScreenOutputLed+0xf0>
 8001648:	07f3      	lsls	r3, r6, #31
 800164a:	d40c      	bmi.n	8001666 <getScreenOutputLed+0x186>
 800164c:	4b33      	ldr	r3, [pc, #204]	; (800171c <getScreenOutputLed+0x23c>)
 800164e:	ae05      	add	r6, sp, #20
 8001650:	f103 0710 	add.w	r7, r3, #16
 8001654:	6818      	ldr	r0, [r3, #0]
 8001656:	6859      	ldr	r1, [r3, #4]
 8001658:	4632      	mov	r2, r6
 800165a:	c203      	stmia	r2!, {r0, r1}
 800165c:	3308      	adds	r3, #8
 800165e:	42bb      	cmp	r3, r7
 8001660:	4616      	mov	r6, r2
 8001662:	d1f7      	bne.n	8001654 <getScreenOutputLed+0x174>
 8001664:	e7b4      	b.n	80015d0 <getScreenOutputLed+0xf0>
 8001666:	4b2e      	ldr	r3, [pc, #184]	; (8001720 <getScreenOutputLed+0x240>)
 8001668:	ae05      	add	r6, sp, #20
 800166a:	f103 0710 	add.w	r7, r3, #16
 800166e:	6818      	ldr	r0, [r3, #0]
 8001670:	6859      	ldr	r1, [r3, #4]
 8001672:	4632      	mov	r2, r6
 8001674:	c203      	stmia	r2!, {r0, r1}
 8001676:	3308      	adds	r3, #8
 8001678:	42bb      	cmp	r3, r7
 800167a:	4616      	mov	r6, r2
 800167c:	d1f7      	bne.n	800166e <getScreenOutputLed+0x18e>
 800167e:	e7a7      	b.n	80015d0 <getScreenOutputLed+0xf0>
 8001680:	4b28      	ldr	r3, [pc, #160]	; (8001724 <getScreenOutputLed+0x244>)
 8001682:	ae05      	add	r6, sp, #20
 8001684:	f103 0710 	add.w	r7, r3, #16
 8001688:	6818      	ldr	r0, [r3, #0]
 800168a:	6859      	ldr	r1, [r3, #4]
 800168c:	4632      	mov	r2, r6
 800168e:	c203      	stmia	r2!, {r0, r1}
 8001690:	3308      	adds	r3, #8
 8001692:	42bb      	cmp	r3, r7
 8001694:	4616      	mov	r6, r2
 8001696:	d1f7      	bne.n	8001688 <getScreenOutputLed+0x1a8>
 8001698:	e79a      	b.n	80015d0 <getScreenOutputLed+0xf0>
 800169a:	4b23      	ldr	r3, [pc, #140]	; (8001728 <getScreenOutputLed+0x248>)
 800169c:	ae05      	add	r6, sp, #20
 800169e:	f103 0710 	add.w	r7, r3, #16
 80016a2:	6818      	ldr	r0, [r3, #0]
 80016a4:	6859      	ldr	r1, [r3, #4]
 80016a6:	4632      	mov	r2, r6
 80016a8:	c203      	stmia	r2!, {r0, r1}
 80016aa:	3308      	adds	r3, #8
 80016ac:	42bb      	cmp	r3, r7
 80016ae:	4616      	mov	r6, r2
 80016b0:	d1f7      	bne.n	80016a2 <getScreenOutputLed+0x1c2>
 80016b2:	e78d      	b.n	80015d0 <getScreenOutputLed+0xf0>
 80016b4:	4b1d      	ldr	r3, [pc, #116]	; (800172c <getScreenOutputLed+0x24c>)
 80016b6:	ae05      	add	r6, sp, #20
 80016b8:	f103 0710 	add.w	r7, r3, #16
 80016bc:	6818      	ldr	r0, [r3, #0]
 80016be:	6859      	ldr	r1, [r3, #4]
 80016c0:	4632      	mov	r2, r6
 80016c2:	c203      	stmia	r2!, {r0, r1}
 80016c4:	3308      	adds	r3, #8
 80016c6:	42bb      	cmp	r3, r7
 80016c8:	4616      	mov	r6, r2
 80016ca:	d1f7      	bne.n	80016bc <getScreenOutputLed+0x1dc>
 80016cc:	e780      	b.n	80015d0 <getScreenOutputLed+0xf0>
 80016ce:	4b18      	ldr	r3, [pc, #96]	; (8001730 <getScreenOutputLed+0x250>)
 80016d0:	ae05      	add	r6, sp, #20
 80016d2:	f103 0710 	add.w	r7, r3, #16
 80016d6:	6818      	ldr	r0, [r3, #0]
 80016d8:	6859      	ldr	r1, [r3, #4]
 80016da:	4632      	mov	r2, r6
 80016dc:	c203      	stmia	r2!, {r0, r1}
 80016de:	3308      	adds	r3, #8
 80016e0:	42bb      	cmp	r3, r7
 80016e2:	4616      	mov	r6, r2
 80016e4:	d1f7      	bne.n	80016d6 <getScreenOutputLed+0x1f6>
 80016e6:	e773      	b.n	80015d0 <getScreenOutputLed+0xf0>
 80016e8:	200000df 	.word	0x200000df
 80016ec:	0800649d 	.word	0x0800649d
 80016f0:	200000dd 	.word	0x200000dd
 80016f4:	08006602 	.word	0x08006602
 80016f8:	080064ae 	.word	0x080064ae
 80016fc:	080064bf 	.word	0x080064bf
 8001700:	080064d0 	.word	0x080064d0
 8001704:	080064e1 	.word	0x080064e1
 8001708:	200000d0 	.word	0x200000d0
 800170c:	080064f2 	.word	0x080064f2
 8001710:	08006503 	.word	0x08006503
 8001714:	08006514 	.word	0x08006514
 8001718:	08006525 	.word	0x08006525
 800171c:	08006536 	.word	0x08006536
 8001720:	08006547 	.word	0x08006547
 8001724:	08006558 	.word	0x08006558
 8001728:	08006569 	.word	0x08006569
 800172c:	0800657a 	.word	0x0800657a
 8001730:	0800658b 	.word	0x0800658b

08001734 <getScreenOutputSong>:
 8001734:	e92d 43f0 	stmdb	sp!, {r4, r5, r6, r7, r8, r9, lr}
 8001738:	4615      	mov	r5, r2
 800173a:	4a3f      	ldr	r2, [pc, #252]	; (8001838 <getScreenOutputSong+0x104>)
 800173c:	b095      	sub	sp, #84	; 0x54
 800173e:	4680      	mov	r8, r0
 8001740:	460e      	mov	r6, r1
 8001742:	6810      	ldr	r0, [r2, #0]
 8001744:	6851      	ldr	r1, [r2, #4]
 8001746:	7a12      	ldrb	r2, [r2, #8]
 8001748:	466b      	mov	r3, sp
 800174a:	c303      	stmia	r3!, {r0, r1}
 800174c:	701a      	strb	r2, [r3, #0]
 800174e:	4b3b      	ldr	r3, [pc, #236]	; (800183c <getScreenOutputSong+0x108>)
 8001750:	aa0d      	add	r2, sp, #52	; 0x34
 8001752:	f103 0c18 	add.w	ip, r3, #24
 8001756:	4614      	mov	r4, r2
 8001758:	6818      	ldr	r0, [r3, #0]
 800175a:	6859      	ldr	r1, [r3, #4]
 800175c:	4617      	mov	r7, r2
 800175e:	c703      	stmia	r7!, {r0, r1}
 8001760:	3308      	adds	r3, #8
 8001762:	4563      	cmp	r3, ip
 8001764:	463a      	mov	r2, r7
 8001766:	d1f7      	bne.n	8001758 <getScreenOutputSong+0x24>
 8001768:	8819      	ldrh	r1, [r3, #0]
 800176a:	789b      	ldrb	r3, [r3, #2]
 800176c:	8039      	strh	r1, [r7, #0]
 800176e:	70bb      	strb	r3, [r7, #2]
 8001770:	220d      	movs	r2, #13
 8001772:	4b33      	ldr	r3, [pc, #204]	; (8001840 <getScreenOutputSong+0x10c>)
 8001774:	9303      	str	r3, [sp, #12]
 8001776:	2100      	movs	r1, #0
 8001778:	a804      	add	r0, sp, #16
 800177a:	f004 fe4e 	bl	800641a <memset>
 800177e:	4b31      	ldr	r3, [pc, #196]	; (8001844 <getScreenOutputSong+0x110>)
 8001780:	9308      	str	r3, [sp, #32]
 8001782:	220d      	movs	r2, #13
 8001784:	2100      	movs	r1, #0
 8001786:	a809      	add	r0, sp, #36	; 0x24
 8001788:	f004 fe47 	bl	800641a <memset>
 800178c:	4668      	mov	r0, sp
 800178e:	f7fe fd47 	bl	8000220 <strlen>
 8001792:	4681      	mov	r9, r0
 8001794:	4620      	mov	r0, r4
 8001796:	f7fe fd43 	bl	8000220 <strlen>
 800179a:	f1b9 0f0e 	cmp.w	r9, #14
 800179e:	4607      	mov	r7, r0
 80017a0:	d816      	bhi.n	80017d0 <getScreenOutputSong+0x9c>
 80017a2:	4669      	mov	r1, sp
 80017a4:	a803      	add	r0, sp, #12
 80017a6:	f004 fe40 	bl	800642a <strcat>
 80017aa:	2f0e      	cmp	r7, #14
 80017ac:	d82b      	bhi.n	8001806 <getScreenOutputSong+0xd2>
 80017ae:	4621      	mov	r1, r4
 80017b0:	a808      	add	r0, sp, #32
 80017b2:	f004 fe3a 	bl	800642a <strcat>
 80017b6:	a903      	add	r1, sp, #12
 80017b8:	2210      	movs	r2, #16
 80017ba:	4630      	mov	r0, r6
 80017bc:	f004 fe44 	bl	8006448 <strncpy>
 80017c0:	2210      	movs	r2, #16
 80017c2:	a908      	add	r1, sp, #32
 80017c4:	4628      	mov	r0, r5
 80017c6:	f004 fe3f 	bl	8006448 <strncpy>
 80017ca:	b015      	add	sp, #84	; 0x54
 80017cc:	e8bd 83f0 	ldmia.w	sp!, {r4, r5, r6, r7, r8, r9, pc}
 80017d0:	231e      	movs	r3, #30
 80017d2:	fb03 f109 	mul.w	r1, r3, r9
 80017d6:	fbb8 f2f1 	udiv	r2, r8, r1
 80017da:	fb01 8212 	mls	r2, r1, r2, r8
 80017de:	fbb2 f2f3 	udiv	r2, r2, r3
 80017e2:	3a01      	subs	r2, #1
 80017e4:	b2d2      	uxtb	r2, r2
 80017e6:	2300      	movs	r3, #0
 80017e8:	eb0d 0102 	add.w	r1, sp, r2
 80017ec:	18d0      	adds	r0, r2, r3
 80017ee:	4581      	cmp	r9, r0
 80017f0:	bfc1      	itttt	gt
 80017f2:	a803      	addgt	r0, sp, #12
 80017f4:	18c0      	addgt	r0, r0, r3
 80017f6:	f811 c003 	ldrbgt.w	ip, [r1, r3]
 80017fa:	f880 c003 	strbgt.w	ip, [r0, #3]
 80017fe:	3301      	adds	r3, #1
 8001800:	2b0d      	cmp	r3, #13
 8001802:	d1f3      	bne.n	80017ec <getScreenOutputSong+0xb8>
 8001804:	e7d1      	b.n	80017aa <getScreenOutputSong+0x76>
 8001806:	221e      	movs	r2, #30
 8001808:	fb02 f107 	mul.w	r1, r2, r7
 800180c:	fbb8 f3f1 	udiv	r3, r8, r1
 8001810:	fb01 8313 	mls	r3, r1, r3, r8
 8001814:	fbb3 f3f2 	udiv	r3, r3, r2
 8001818:	3b01      	subs	r3, #1
 800181a:	b2db      	uxtb	r3, r3
 800181c:	2200      	movs	r2, #0
 800181e:	441c      	add	r4, r3
 8001820:	18d1      	adds	r1, r2, r3
 8001822:	428f      	cmp	r7, r1
 8001824:	bfc1      	itttt	gt
 8001826:	a908      	addgt	r1, sp, #32
 8001828:	1889      	addgt	r1, r1, r2
 800182a:	5ca0      	ldrbgt	r0, [r4, r2]
 800182c:	70c8      	strbgt	r0, [r1, #3]
 800182e:	3201      	adds	r2, #1
 8001830:	2a0d      	cmp	r2, #13
 8001832:	d1f5      	bne.n	8001820 <getScreenOutputSong+0xec>
 8001834:	e7bf      	b.n	80017b6 <getScreenOutputSong+0x82>
 8001836:	bf00      	nop
 8001838:	08006612 	.word	0x08006612
 800183c:	0800661b 	.word	0x0800661b
 8001840:	00203a53 	.word	0x00203a53
 8001844:	00203a41 	.word	0x00203a41

08001848 <interrupt_timer_led>:
 8001848:	b570      	push	{r4, r5, r6, lr}
 800184a:	4e15      	ldr	r6, [pc, #84]	; (80018a0 <interrupt_timer_led+0x58>)
 800184c:	6833      	ldr	r3, [r6, #0]
 800184e:	4283      	cmp	r3, r0
 8001850:	d125      	bne.n	800189e <interrupt_timer_led+0x56>
 8001852:	681b      	ldr	r3, [r3, #0]
 8001854:	4c13      	ldr	r4, [pc, #76]	; (80018a4 <interrupt_timer_led+0x5c>)
 8001856:	f64c 327f 	movw	r2, #52095	; 0xcb7f
 800185a:	625a      	str	r2, [r3, #36]	; 0x24
 800185c:	7823      	ldrb	r3, [r4, #0]
 800185e:	b1c3      	cbz	r3, 8001892 <interrupt_timer_led+0x4a>
 8001860:	4d11      	ldr	r5, [pc, #68]	; (80018a8 <interrupt_timer_led+0x60>)
 8001862:	4812      	ldr	r0, [pc, #72]	; (80018ac <interrupt_timer_led+0x64>)
 8001864:	2200      	movs	r2, #0
 8001866:	2110      	movs	r1, #16
 8001868:	f001 fc1a 	bl	80030a0 <HAL_GPIO_WritePin>
 800186c:	782b      	ldrb	r3, [r5, #0]
 800186e:	4a10      	ldr	r2, [pc, #64]	; (80018b0 <interrupt_timer_led+0x68>)
 8001870:	480e      	ldr	r0, [pc, #56]	; (80018ac <interrupt_timer_led+0x64>)
 8001872:	5cd2      	ldrb	r2, [r2, r3]
 8001874:	2120      	movs	r1, #32
 8001876:	f001 fc13 	bl	80030a0 <HAL_GPIO_WritePin>
 800187a:	782b      	ldrb	r3, [r5, #0]
 800187c:	3301      	adds	r3, #1
 800187e:	702b      	strb	r3, [r5, #0]
 8001880:	7823      	ldrb	r3, [r4, #0]
 8001882:	6830      	ldr	r0, [r6, #0]
 8001884:	f083 0301 	eor.w	r3, r3, #1
 8001888:	7023      	strb	r3, [r4, #0]
 800188a:	e8bd 4070 	ldmia.w	sp!, {r4, r5, r6, lr}
 800188e:	f002 bb63 	b.w	8003f58 <HAL_TIM_Base_Start_IT>
 8001892:	2201      	movs	r2, #1
 8001894:	2110      	movs	r1, #16
 8001896:	4805      	ldr	r0, [pc, #20]	; (80018ac <interrupt_timer_led+0x64>)
 8001898:	f001 fc02 	bl	80030a0 <HAL_GPIO_WritePin>
 800189c:	e7f0      	b.n	8001880 <interrupt_timer_led+0x38>
 800189e:	bd70      	pop	{r4, r5, r6, pc}
 80018a0:	20001a3c 	.word	0x20001a3c
 80018a4:	200000e0 	.word	0x200000e0
 80018a8:	200000e1 	.word	0x200000e1
 80018ac:	48000400 	.word	0x48000400
 80018b0:	20001a40 	.word	0x20001a40

080018b4 <colors_to_screen>:
 80018b4:	e92d 4ff8 	stmdb	sp!, {r3, r4, r5, r6, r7, r8, r9, sl, fp, lr}
 80018b8:	2400      	movs	r4, #0
 80018ba:	4d1f      	ldr	r5, [pc, #124]	; (8001938 <colors_to_screen+0x84>)
 80018bc:	f8df b080 	ldr.w	fp, [pc, #128]	; 8001940 <colors_to_screen+0x8c>
 80018c0:	4607      	mov	r7, r0
 80018c2:	4626      	mov	r6, r4
 80018c4:	f004 031f 	and.w	r3, r4, #31
 80018c8:	f1a3 0a08 	sub.w	sl, r3, #8
 80018cc:	fa5f f28a 	uxtb.w	r2, sl
 80018d0:	2a13      	cmp	r2, #19
 80018d2:	d82c      	bhi.n	800192e <colors_to_screen+0x7a>
 80018d4:	0960      	lsrs	r0, r4, #5
 80018d6:	eb00 0080 	add.w	r0, r0, r0, lsl #2
 80018da:	0040      	lsls	r0, r0, #1
 80018dc:	f000 00fe 	and.w	r0, r0, #254	; 0xfe
 80018e0:	f7fe fdf8 	bl	80004d4 <__aeabi_i2d>
 80018e4:	4680      	mov	r8, r0
 80018e6:	ea4f 006a 	mov.w	r0, sl, asr #1
 80018ea:	4689      	mov	r9, r1
 80018ec:	f7fe fdf2 	bl	80004d4 <__aeabi_i2d>
 80018f0:	4602      	mov	r2, r0
 80018f2:	460b      	mov	r3, r1
 80018f4:	4640      	mov	r0, r8
 80018f6:	4649      	mov	r1, r9
 80018f8:	f7fe fca0 	bl	800023c <__adddf3>
 80018fc:	f7ff f866 	bl	80009cc <__aeabi_d2uiz>
 8001900:	b2c0      	uxtb	r0, r0
 8001902:	5c3b      	ldrb	r3, [r7, r0]
 8001904:	3b01      	subs	r3, #1
 8001906:	b2db      	uxtb	r3, r3
 8001908:	2b02      	cmp	r3, #2
 800190a:	bf97      	itett	ls
 800190c:	4a0b      	ldrls	r2, [pc, #44]	; (800193c <colors_to_screen+0x88>)
 800190e:	2200      	movhi	r2, #0
 8001910:	56d1      	ldrsbls	r1, [r2, r3]
 8001912:	f91b 2003 	ldrsbls.w	r2, [fp, r3]
 8001916:	eb05 0304 	add.w	r3, r5, r4
 800191a:	bf88      	it	hi
 800191c:	4611      	movhi	r1, r2
 800191e:	5529      	strb	r1, [r5, r4]
 8001920:	705a      	strb	r2, [r3, #1]
 8001922:	3402      	adds	r4, #2
 8001924:	f5b4 7f80 	cmp.w	r4, #256	; 0x100
 8001928:	d1cc      	bne.n	80018c4 <colors_to_screen+0x10>
 800192a:	e8bd 8ff8 	ldmia.w	sp!, {r3, r4, r5, r6, r7, r8, r9, sl, fp, pc}
 800192e:	192b      	adds	r3, r5, r4
 8001930:	552e      	strb	r6, [r5, r4]
 8001932:	705e      	strb	r6, [r3, #1]
 8001934:	e7f5      	b.n	8001922 <colors_to_screen+0x6e>
 8001936:	bf00      	nop
 8001938:	20001a40 	.word	0x20001a40
 800193c:	08006665 	.word	0x08006665
 8001940:	08006668 	.word	0x08006668

08001944 <init_led>:
 8001944:	b510      	push	{r4, lr}
 8001946:	4c09      	ldr	r4, [pc, #36]	; (800196c <init_led+0x28>)
 8001948:	b092      	sub	sp, #72	; 0x48
 800194a:	6020      	str	r0, [r4, #0]
 800194c:	2300      	movs	r3, #0
 800194e:	f003 0203 	and.w	r2, r3, #3
 8001952:	f80d 2003 	strb.w	r2, [sp, r3]
 8001956:	3301      	adds	r3, #1
 8001958:	2b46      	cmp	r3, #70	; 0x46
 800195a:	d1f8      	bne.n	800194e <init_led+0xa>
 800195c:	4668      	mov	r0, sp
 800195e:	f7ff ffa9 	bl	80018b4 <colors_to_screen>
 8001962:	6820      	ldr	r0, [r4, #0]
 8001964:	f002 faf8 	bl	8003f58 <HAL_TIM_Base_Start_IT>
 8001968:	b012      	add	sp, #72	; 0x48
 800196a:	bd10      	pop	{r4, pc}
 800196c:	20001a3c 	.word	0x20001a3c

08001970 <tick_led>:
 8001970:	b570      	push	{r4, r5, r6, lr}
 8001972:	4b3d      	ldr	r3, [pc, #244]	; (8001a68 <tick_led+0xf8>)
 8001974:	781b      	ldrb	r3, [r3, #0]
 8001976:	b092      	sub	sp, #72	; 0x48
 8001978:	2b00      	cmp	r3, #0
 800197a:	d06d      	beq.n	8001a58 <tick_led+0xe8>
 800197c:	4b3b      	ldr	r3, [pc, #236]	; (8001a6c <tick_led+0xfc>)
 800197e:	781b      	ldrb	r3, [r3, #0]
 8001980:	2b04      	cmp	r3, #4
 8001982:	d861      	bhi.n	8001a48 <tick_led+0xd8>
 8001984:	e8df f003 	tbb	[pc, r3]
 8001988:	50483503 	.word	0x50483503
 800198c:	58          	.byte	0x58
 800198d:	00          	.byte	0x00
 800198e:	230f      	movs	r3, #15
 8001990:	fbb0 f0f3 	udiv	r0, r0, r3
 8001994:	f000 0003 	and.w	r0, r0, #3
 8001998:	1c85      	adds	r5, r0, #2
 800199a:	1c44      	adds	r4, r0, #1
 800199c:	1cc6      	adds	r6, r0, #3
 800199e:	2300      	movs	r3, #0
 80019a0:	210a      	movs	r1, #10
 80019a2:	fb93 f2f1 	sdiv	r2, r3, r1
 80019a6:	fb01 3212 	mls	r2, r1, r2, r3
 80019aa:	3a01      	subs	r2, #1
 80019ac:	2a08      	cmp	r2, #8
 80019ae:	d806      	bhi.n	80019be <tick_led+0x4e>
 80019b0:	e8df f002 	tbb	[pc, r2]
 80019b4:	191c1916 	.word	0x191c1916
 80019b8:	19160516 	.word	0x19160516
 80019bc:	1c          	.byte	0x1c
 80019bd:	00          	.byte	0x00
 80019be:	f80d 0003 	strb.w	r0, [sp, r3]
 80019c2:	f81d 2003 	ldrb.w	r2, [sp, r3]
 80019c6:	2a03      	cmp	r2, #3
 80019c8:	bf84      	itt	hi
 80019ca:	3a03      	subhi	r2, #3
 80019cc:	f80d 2003 	strbhi.w	r2, [sp, r3]
 80019d0:	3301      	adds	r3, #1
 80019d2:	2b46      	cmp	r3, #70	; 0x46
 80019d4:	d1e5      	bne.n	80019a2 <tick_led+0x32>
 80019d6:	4668      	mov	r0, sp
 80019d8:	f7ff ff6c 	bl	80018b4 <colors_to_screen>
 80019dc:	b012      	add	sp, #72	; 0x48
 80019de:	bd70      	pop	{r4, r5, r6, pc}
 80019e0:	f80d 4003 	strb.w	r4, [sp, r3]
 80019e4:	e7ed      	b.n	80019c2 <tick_led+0x52>
 80019e6:	f80d 5003 	strb.w	r5, [sp, r3]
 80019ea:	e7ea      	b.n	80019c2 <tick_led+0x52>
 80019ec:	f80d 6003 	strb.w	r6, [sp, r3]
 80019f0:	e7e7      	b.n	80019c2 <tick_led+0x52>
 80019f2:	230f      	movs	r3, #15
 80019f4:	2200      	movs	r2, #0
 80019f6:	fbb0 f0f3 	udiv	r0, r0, r3
 80019fa:	2103      	movs	r1, #3
 80019fc:	f000 0001 	and.w	r0, r0, #1
 8001a00:	fb92 f3f1 	sdiv	r3, r2, r1
 8001a04:	eb03 0343 	add.w	r3, r3, r3, lsl #1
 8001a08:	1ad3      	subs	r3, r2, r3
 8001a0a:	4403      	add	r3, r0
 8001a0c:	f80d 3002 	strb.w	r3, [sp, r2]
 8001a10:	3201      	adds	r2, #1
 8001a12:	2a46      	cmp	r2, #70	; 0x46
 8001a14:	d1f4      	bne.n	8001a00 <tick_led+0x90>
 8001a16:	e7de      	b.n	80019d6 <tick_led+0x66>
 8001a18:	2300      	movs	r3, #0
 8001a1a:	2202      	movs	r2, #2
 8001a1c:	f80d 2003 	strb.w	r2, [sp, r3]
 8001a20:	3301      	adds	r3, #1
 8001a22:	2b46      	cmp	r3, #70	; 0x46
 8001a24:	d1fa      	bne.n	8001a1c <tick_led+0xac>
 8001a26:	e7d6      	b.n	80019d6 <tick_led+0x66>
 8001a28:	2300      	movs	r3, #0
 8001a2a:	2201      	movs	r2, #1
 8001a2c:	f80d 2003 	strb.w	r2, [sp, r3]
 8001a30:	3301      	adds	r3, #1
 8001a32:	2b46      	cmp	r3, #70	; 0x46
 8001a34:	d1fa      	bne.n	8001a2c <tick_led+0xbc>
 8001a36:	e7ce      	b.n	80019d6 <tick_led+0x66>
 8001a38:	2300      	movs	r3, #0
 8001a3a:	2203      	movs	r2, #3
 8001a3c:	f80d 2003 	strb.w	r2, [sp, r3]
 8001a40:	3301      	adds	r3, #1
 8001a42:	2b46      	cmp	r3, #70	; 0x46
 8001a44:	d1fa      	bne.n	8001a3c <tick_led+0xcc>
 8001a46:	e7c6      	b.n	80019d6 <tick_led+0x66>
 8001a48:	2300      	movs	r3, #0
 8001a4a:	461a      	mov	r2, r3
 8001a4c:	f80d 2003 	strb.w	r2, [sp, r3]
 8001a50:	3301      	adds	r3, #1
 8001a52:	2b46      	cmp	r3, #70	; 0x46
 8001a54:	d1fa      	bne.n	8001a4c <tick_led+0xdc>
 8001a56:	e7be      	b.n	80019d6 <tick_led+0x66>
 8001a58:	461a      	mov	r2, r3
 8001a5a:	f80d 2003 	strb.w	r2, [sp, r3]
 8001a5e:	3301      	adds	r3, #1
 8001a60:	2b46      	cmp	r3, #70	; 0x46
 8001a62:	d1fa      	bne.n	8001a5a <tick_led+0xea>
 8001a64:	e7b7      	b.n	80019d6 <tick_led+0x66>
 8001a66:	bf00      	nop
 8001a68:	200000d0 	.word	0x200000d0
 8001a6c:	200000df 	.word	0x200000df

08001a70 <StartMainTask>:
 8001a70:	4e0d      	ldr	r6, [pc, #52]	; (8001aa8 <StartMainTask+0x38>)
 8001a72:	b500      	push	{lr}
 8001a74:	f106 0510 	add.w	r5, r6, #16
 8001a78:	cd0f      	ldmia	r5!, {r0, r1, r2, r3}
 8001a7a:	b091      	sub	sp, #68	; 0x44
 8001a7c:	466c      	mov	r4, sp
 8001a7e:	c40f      	stmia	r4!, {r0, r1, r2, r3}
 8001a80:	cd0f      	ldmia	r5!, {r0, r1, r2, r3}
 8001a82:	c40f      	stmia	r4!, {r0, r1, r2, r3}
 8001a84:	cd0f      	ldmia	r5!, {r0, r1, r2, r3}
 8001a86:	c40f      	stmia	r4!, {r0, r1, r2, r3}
 8001a88:	e895 0007 	ldmia.w	r5, {r0, r1, r2}
 8001a8c:	e884 0007 	stmia.w	r4, {r0, r1, r2}
 8001a90:	e896 000f 	ldmia.w	r6, {r0, r1, r2, r3}
 8001a94:	f7ff fa04 	bl	8000ea0 <init_app>
 8001a98:	f44f 707a 	mov.w	r0, #1000	; 0x3e8
 8001a9c:	f002 ffe0 	bl	8004a60 <osDelay>
 8001aa0:	f7ff fa10 	bl	8000ec4 <tick_app>
 8001aa4:	e7f8      	b.n	8001a98 <StartMainTask+0x28>
 8001aa6:	bf00      	nop
 8001aa8:	200019ec 	.word	0x200019ec

08001aac <StartInterfaceTask>:
 8001aac:	b510      	push	{r4, lr}
 8001aae:	4906      	ldr	r1, [pc, #24]	; (8001ac8 <StartInterfaceTask+0x1c>)
 8001ab0:	4806      	ldr	r0, [pc, #24]	; (8001acc <StartInterfaceTask+0x20>)
 8001ab2:	f7ff fa09 	bl	8000ec8 <init_interface>
 8001ab6:	2400      	movs	r4, #0
 8001ab8:	2021      	movs	r0, #33	; 0x21
 8001aba:	f002 ffd1 	bl	8004a60 <osDelay>
 8001abe:	4620      	mov	r0, r4
 8001ac0:	f7ff fb70 	bl	80011a4 <tick_interface>
 8001ac4:	3401      	adds	r4, #1
 8001ac6:	e7f7      	b.n	8001ab8 <StartInterfaceTask+0xc>
 8001ac8:	20001c90 	.word	0x20001c90
 8001acc:	200019ec 	.word	0x200019ec

08001ad0 <StartLEDscreenDriver>:
 8001ad0:	b510      	push	{r4, lr}
 8001ad2:	4806      	ldr	r0, [pc, #24]	; (8001aec <StartLEDscreenDriver+0x1c>)
 8001ad4:	f7ff ff36 	bl	8001944 <init_led>
 8001ad8:	2400      	movs	r4, #0
 8001ada:	2021      	movs	r0, #33	; 0x21
 8001adc:	f002 ffc0 	bl	8004a60 <osDelay>
 8001ae0:	4620      	mov	r0, r4
 8001ae2:	f7ff ff45 	bl	8001970 <tick_led>
 8001ae6:	3401      	adds	r4, #1
 8001ae8:	e7f7      	b.n	8001ada <StartLEDscreenDriver+0xa>
 8001aea:	bf00      	nop
 8001aec:	20001c44 	.word	0x20001c44

08001af0 <SystemClock_Config>:
 8001af0:	b510      	push	{r4, lr}
 8001af2:	b0a4      	sub	sp, #144	; 0x90
 8001af4:	2238      	movs	r2, #56	; 0x38
 8001af6:	2100      	movs	r1, #0
 8001af8:	a805      	add	r0, sp, #20
 8001afa:	f004 fc8e 	bl	800641a <memset>
 8001afe:	2214      	movs	r2, #20
 8001b00:	2100      	movs	r1, #0
 8001b02:	4668      	mov	r0, sp
 8001b04:	f004 fc89 	bl	800641a <memset>
 8001b08:	2244      	movs	r2, #68	; 0x44
 8001b0a:	2100      	movs	r1, #0
 8001b0c:	a813      	add	r0, sp, #76	; 0x4c
 8001b0e:	f004 fc84 	bl	800641a <memset>
 8001b12:	2000      	movs	r0, #0
 8001b14:	f001 fcda 	bl	80034cc <HAL_PWREx_ControlVoltageScaling>
 8001b18:	2240      	movs	r2, #64	; 0x40
 8001b1a:	f44f 7180 	mov.w	r1, #256	; 0x100
 8001b1e:	2302      	movs	r3, #2
 8001b20:	e9cd 1208 	strd	r1, r2, [sp, #32]
 8001b24:	2404      	movs	r4, #4
 8001b26:	2255      	movs	r2, #85	; 0x55
 8001b28:	a805      	add	r0, sp, #20
 8001b2a:	9305      	str	r3, [sp, #20]
 8001b2c:	e9cd 330c 	strd	r3, r3, [sp, #48]	; 0x30
 8001b30:	e9cd 420e 	strd	r4, r2, [sp, #56]	; 0x38
 8001b34:	e9cd 3310 	strd	r3, r3, [sp, #64]	; 0x40
 8001b38:	9312      	str	r3, [sp, #72]	; 0x48
 8001b3a:	f001 fd29 	bl	8003590 <HAL_RCC_OscConfig>
 8001b3e:	b108      	cbz	r0, 8001b44 <SystemClock_Config+0x54>
 8001b40:	b672      	cpsid	i
 8001b42:	e7fe      	b.n	8001b42 <SystemClock_Config+0x52>
 8001b44:	2303      	movs	r3, #3
 8001b46:	220f      	movs	r2, #15
 8001b48:	e9cd 2300 	strd	r2, r3, [sp]
 8001b4c:	f44f 6380 	mov.w	r3, #1024	; 0x400
 8001b50:	9002      	str	r0, [sp, #8]
 8001b52:	e9cd 3003 	strd	r3, r0, [sp, #12]
 8001b56:	4621      	mov	r1, r4
 8001b58:	4668      	mov	r0, sp
 8001b5a:	f001 ff63 	bl	8003a24 <HAL_RCC_ClockConfig>
 8001b5e:	b108      	cbz	r0, 8001b64 <SystemClock_Config+0x74>
 8001b60:	b672      	cpsid	i
 8001b62:	e7fe      	b.n	8001b62 <SystemClock_Config+0x72>
 8001b64:	f248 0342 	movw	r3, #32834	; 0x8042
 8001b68:	9313      	str	r3, [sp, #76]	; 0x4c
 8001b6a:	9015      	str	r0, [sp, #84]	; 0x54
 8001b6c:	9019      	str	r0, [sp, #100]	; 0x64
 8001b6e:	f04f 5300 	mov.w	r3, #536870912	; 0x20000000
 8001b72:	a813      	add	r0, sp, #76	; 0x4c
 8001b74:	9322      	str	r3, [sp, #136]	; 0x88
 8001b76:	f002 f86d 	bl	8003c54 <HAL_RCCEx_PeriphCLKConfig>
 8001b7a:	b108      	cbz	r0, 8001b80 <SystemClock_Config+0x90>
 8001b7c:	b672      	cpsid	i
 8001b7e:	e7fe      	b.n	8001b7e <SystemClock_Config+0x8e>
 8001b80:	b024      	add	sp, #144	; 0x90
 8001b82:	bd10      	pop	{r4, pc}

08001b84 <main>:
 8001b84:	b580      	push	{r7, lr}
 8001b86:	b08e      	sub	sp, #56	; 0x38
 8001b88:	f000 fafc 	bl	8002184 <HAL_Init>
 8001b8c:	f7ff ffb0 	bl	8001af0 <SystemClock_Config>
 8001b90:	2214      	movs	r2, #20
 8001b92:	2100      	movs	r1, #0
 8001b94:	a806      	add	r0, sp, #24
 8001b96:	f004 fc40 	bl	800641a <memset>
 8001b9a:	4b98      	ldr	r3, [pc, #608]	; (8001dfc <main+0x278>)
 8001b9c:	4d98      	ldr	r5, [pc, #608]	; (8001e00 <main+0x27c>)
 8001b9e:	6cda      	ldr	r2, [r3, #76]	; 0x4c
 8001ba0:	f042 0201 	orr.w	r2, r2, #1
 8001ba4:	64da      	str	r2, [r3, #76]	; 0x4c
 8001ba6:	6cda      	ldr	r2, [r3, #76]	; 0x4c
 8001ba8:	f002 0201 	and.w	r2, r2, #1
 8001bac:	9201      	str	r2, [sp, #4]
 8001bae:	9a01      	ldr	r2, [sp, #4]
 8001bb0:	6cda      	ldr	r2, [r3, #76]	; 0x4c
 8001bb2:	f042 0202 	orr.w	r2, r2, #2
 8001bb6:	64da      	str	r2, [r3, #76]	; 0x4c
 8001bb8:	6cdb      	ldr	r3, [r3, #76]	; 0x4c
 8001bba:	f003 0302 	and.w	r3, r3, #2
 8001bbe:	9302      	str	r3, [sp, #8]
 8001bc0:	2200      	movs	r2, #0
 8001bc2:	f641 0193 	movw	r1, #6291	; 0x1893
 8001bc6:	f04f 4090 	mov.w	r0, #1207959552	; 0x48000000
 8001bca:	9b02      	ldr	r3, [sp, #8]
 8001bcc:	f001 fa68 	bl	80030a0 <HAL_GPIO_WritePin>
 8001bd0:	2200      	movs	r2, #0
 8001bd2:	f44f 7198 	mov.w	r1, #304	; 0x130
 8001bd6:	488b      	ldr	r0, [pc, #556]	; (8001e04 <main+0x280>)
 8001bd8:	2400      	movs	r4, #0
 8001bda:	f001 fa61 	bl	80030a0 <HAL_GPIO_WritePin>
 8001bde:	2601      	movs	r6, #1
 8001be0:	f641 0393 	movw	r3, #6291	; 0x1893
 8001be4:	a906      	add	r1, sp, #24
 8001be6:	f04f 4090 	mov.w	r0, #1207959552	; 0x48000000
 8001bea:	e9cd 3606 	strd	r3, r6, [sp, #24]
 8001bee:	e9cd 4408 	strd	r4, r4, [sp, #32]
 8001bf2:	f001 f983 	bl	8002efc <HAL_GPIO_Init>
 8001bf6:	4b84      	ldr	r3, [pc, #528]	; (8001e08 <main+0x284>)
 8001bf8:	9408      	str	r4, [sp, #32]
 8001bfa:	f44f 7280 	mov.w	r2, #256	; 0x100
 8001bfe:	a906      	add	r1, sp, #24
 8001c00:	f04f 4090 	mov.w	r0, #1207959552	; 0x48000000
 8001c04:	e9cd 2306 	strd	r2, r3, [sp, #24]
 8001c08:	f001 f978 	bl	8002efc <HAL_GPIO_Init>
 8001c0c:	4b7f      	ldr	r3, [pc, #508]	; (8001e0c <main+0x288>)
 8001c0e:	9408      	str	r4, [sp, #32]
 8001c10:	f44f 7100 	mov.w	r1, #512	; 0x200
 8001c14:	e9cd 1306 	strd	r1, r3, [sp, #24]
 8001c18:	f04f 4090 	mov.w	r0, #1207959552	; 0x48000000
 8001c1c:	a906      	add	r1, sp, #24
 8001c1e:	f001 f96d 	bl	8002efc <HAL_GPIO_Init>
 8001c22:	f44f 6380 	mov.w	r3, #1024	; 0x400
 8001c26:	a906      	add	r1, sp, #24
 8001c28:	f04f 4090 	mov.w	r0, #1207959552	; 0x48000000
 8001c2c:	e9cd 3406 	strd	r3, r4, [sp, #24]
 8001c30:	9408      	str	r4, [sp, #32]
 8001c32:	f001 f963 	bl	8002efc <HAL_GPIO_Init>
 8001c36:	f44f 7398 	mov.w	r3, #304	; 0x130
 8001c3a:	a906      	add	r1, sp, #24
 8001c3c:	4871      	ldr	r0, [pc, #452]	; (8001e04 <main+0x280>)
 8001c3e:	e9cd 3606 	strd	r3, r6, [sp, #24]
 8001c42:	e9cd 4408 	strd	r4, r4, [sp, #32]
 8001c46:	f001 f959 	bl	8002efc <HAL_GPIO_Init>
 8001c4a:	2105      	movs	r1, #5
 8001c4c:	4622      	mov	r2, r4
 8001c4e:	2017      	movs	r0, #23
 8001c50:	f001 f8fc 	bl	8002e4c <HAL_NVIC_SetPriority>
 8001c54:	2017      	movs	r0, #23
 8001c56:	f001 f92d 	bl	8002eb4 <HAL_NVIC_EnableIRQ>
 8001c5a:	486d      	ldr	r0, [pc, #436]	; (8001e10 <main+0x28c>)
 8001c5c:	612c      	str	r4, [r5, #16]
 8001c5e:	f44f 33e1 	mov.w	r3, #115200	; 0x1c200
 8001c62:	e9c5 0300 	strd	r0, r3, [r5]
 8001c66:	230c      	movs	r3, #12
 8001c68:	4628      	mov	r0, r5
 8001c6a:	e9c5 4402 	strd	r4, r4, [r5, #8]
 8001c6e:	e9c5 3405 	strd	r3, r4, [r5, #20]
 8001c72:	e9c5 4407 	strd	r4, r4, [r5, #28]
 8001c76:	e9c5 4409 	strd	r4, r4, [r5, #36]	; 0x24
 8001c7a:	f002 fd97 	bl	80047ac <HAL_UART_Init>
 8001c7e:	4601      	mov	r1, r0
 8001c80:	b108      	cbz	r0, 8001c86 <main+0x102>
 8001c82:	b672      	cpsid	i
 8001c84:	e7fe      	b.n	8001c84 <main+0x100>
 8001c86:	4628      	mov	r0, r5
 8001c88:	f002 fe11 	bl	80048ae <HAL_UARTEx_SetTxFifoThreshold>
 8001c8c:	4601      	mov	r1, r0
 8001c8e:	b108      	cbz	r0, 8001c94 <main+0x110>
 8001c90:	b672      	cpsid	i
 8001c92:	e7fe      	b.n	8001c92 <main+0x10e>
 8001c94:	4628      	mov	r0, r5
 8001c96:	f002 fe2e 	bl	80048f6 <HAL_UARTEx_SetRxFifoThreshold>
 8001c9a:	b108      	cbz	r0, 8001ca0 <main+0x11c>
 8001c9c:	b672      	cpsid	i
 8001c9e:	e7fe      	b.n	8001c9e <main+0x11a>
 8001ca0:	4628      	mov	r0, r5
 8001ca2:	f002 fde9 	bl	8004878 <HAL_UARTEx_DisableFifoMode>
 8001ca6:	4605      	mov	r5, r0
 8001ca8:	b108      	cbz	r0, 8001cae <main+0x12a>
 8001caa:	b672      	cpsid	i
 8001cac:	e7fe      	b.n	8001cac <main+0x128>
 8001cae:	4c59      	ldr	r4, [pc, #356]	; (8001e14 <main+0x290>)
 8001cb0:	9005      	str	r0, [sp, #20]
 8001cb2:	e9cd 0003 	strd	r0, r0, [sp, #12]
 8001cb6:	4601      	mov	r1, r0
 8001cb8:	2220      	movs	r2, #32
 8001cba:	a806      	add	r0, sp, #24
 8001cbc:	f004 fbad 	bl	800641a <memset>
 8001cc0:	2704      	movs	r7, #4
 8001cc2:	f04f 4ea0 	mov.w	lr, #1342177280	; 0x50000000
 8001cc6:	f44f 3340 	mov.w	r3, #196608	; 0x30000
 8001cca:	4620      	mov	r0, r4
 8001ccc:	e9c4 e300 	strd	lr, r3, [r4]
 8001cd0:	e9c4 5502 	strd	r5, r5, [r4, #8]
 8001cd4:	e9c4 5504 	strd	r5, r5, [r4, #16]
 8001cd8:	61a7      	str	r7, [r4, #24]
 8001cda:	7725      	strb	r5, [r4, #28]
 8001cdc:	7765      	strb	r5, [r4, #29]
 8001cde:	6226      	str	r6, [r4, #32]
 8001ce0:	f884 5024 	strb.w	r5, [r4, #36]	; 0x24
 8001ce4:	e9c4 550b 	strd	r5, r5, [r4, #44]	; 0x2c
 8001ce8:	f884 5038 	strb.w	r5, [r4, #56]	; 0x38
 8001cec:	63e5      	str	r5, [r4, #60]	; 0x3c
 8001cee:	f884 5040 	strb.w	r5, [r4, #64]	; 0x40
 8001cf2:	f000 fa83 	bl	80021fc <HAL_ADC_Init>
 8001cf6:	b108      	cbz	r0, 8001cfc <main+0x178>
 8001cf8:	b672      	cpsid	i
 8001cfa:	e7fe      	b.n	8001cfa <main+0x176>
 8001cfc:	9003      	str	r0, [sp, #12]
 8001cfe:	a903      	add	r1, sp, #12
 8001d00:	4620      	mov	r0, r4
 8001d02:	f001 f823 	bl	8002d4c <HAL_ADCEx_MultiModeConfigChannel>
 8001d06:	b108      	cbz	r0, 8001d0c <main+0x188>
 8001d08:	b672      	cpsid	i
 8001d0a:	e7fe      	b.n	8001d0a <main+0x186>
 8001d0c:	f8df c148 	ldr.w	ip, [pc, #328]	; 8001e58 <main+0x2d4>
 8001d10:	9008      	str	r0, [sp, #32]
 8001d12:	2306      	movs	r3, #6
 8001d14:	e9cd c306 	strd	ip, r3, [sp, #24]
 8001d18:	900b      	str	r0, [sp, #44]	; 0x2c
 8001d1a:	237f      	movs	r3, #127	; 0x7f
 8001d1c:	a906      	add	r1, sp, #24
 8001d1e:	4620      	mov	r0, r4
 8001d20:	e9cd 3709 	strd	r3, r7, [sp, #36]	; 0x24
 8001d24:	f000 fc80 	bl	8002628 <HAL_ADC_ConfigChannel>
 8001d28:	b108      	cbz	r0, 8001d2e <main+0x1aa>
 8001d2a:	b672      	cpsid	i
 8001d2c:	e7fe      	b.n	8001d2c <main+0x1a8>
 8001d2e:	4c3a      	ldr	r4, [pc, #232]	; (8001e18 <main+0x294>)
 8001d30:	4b3a      	ldr	r3, [pc, #232]	; (8001e1c <main+0x298>)
 8001d32:	4d3b      	ldr	r5, [pc, #236]	; (8001e20 <main+0x29c>)
 8001d34:	6220      	str	r0, [r4, #32]
 8001d36:	e9c4 0602 	strd	r0, r6, [r4, #8]
 8001d3a:	e9c4 0004 	strd	r0, r0, [r4, #16]
 8001d3e:	e9c4 0006 	strd	r0, r0, [r4, #24]
 8001d42:	4620      	mov	r0, r4
 8001d44:	e9c4 5300 	strd	r5, r3, [r4]
 8001d48:	f001 fa91 	bl	800326e <HAL_I2C_Init>
 8001d4c:	4601      	mov	r1, r0
 8001d4e:	b108      	cbz	r0, 8001d54 <main+0x1d0>
 8001d50:	b672      	cpsid	i
 8001d52:	e7fe      	b.n	8001d52 <main+0x1ce>
 8001d54:	4620      	mov	r0, r4
 8001d56:	f001 fb6d 	bl	8003434 <HAL_I2CEx_ConfigAnalogFilter>
 8001d5a:	4601      	mov	r1, r0
 8001d5c:	b108      	cbz	r0, 8001d62 <main+0x1de>
 8001d5e:	b672      	cpsid	i
 8001d60:	e7fe      	b.n	8001d60 <main+0x1dc>
 8001d62:	4620      	mov	r0, r4
 8001d64:	f001 fb8c 	bl	8003480 <HAL_I2CEx_ConfigDigitalFilter>
 8001d68:	b108      	cbz	r0, 8001d6e <main+0x1ea>
 8001d6a:	b672      	cpsid	i
 8001d6c:	e7fe      	b.n	8001d6c <main+0x1e8>
 8001d6e:	4c2d      	ldr	r4, [pc, #180]	; (8001e24 <main+0x2a0>)
 8001d70:	492d      	ldr	r1, [pc, #180]	; (8001e28 <main+0x2a4>)
 8001d72:	2300      	movs	r3, #0
 8001d74:	22a9      	movs	r2, #169	; 0xa9
 8001d76:	f64f 75ff 	movw	r5, #65535	; 0xffff
 8001d7a:	4620      	mov	r0, r4
 8001d7c:	e9cd 3306 	strd	r3, r3, [sp, #24]
 8001d80:	9308      	str	r3, [sp, #32]
 8001d82:	e9c4 1200 	strd	r1, r2, [r4]
 8001d86:	60a3      	str	r3, [r4, #8]
 8001d88:	60e5      	str	r5, [r4, #12]
 8001d8a:	61a3      	str	r3, [r4, #24]
 8001d8c:	f002 fa64 	bl	8004258 <HAL_TIM_Base_Init>
 8001d90:	b108      	cbz	r0, 8001d96 <main+0x212>
 8001d92:	b672      	cpsid	i
 8001d94:	e7fe      	b.n	8001d94 <main+0x210>
 8001d96:	9006      	str	r0, [sp, #24]
 8001d98:	9008      	str	r0, [sp, #32]
 8001d9a:	a906      	add	r1, sp, #24
 8001d9c:	4620      	mov	r0, r4
 8001d9e:	f002 fa8b 	bl	80042b8 <HAL_TIMEx_MasterConfigSynchronization>
 8001da2:	b108      	cbz	r0, 8001da8 <main+0x224>
 8001da4:	b672      	cpsid	i
 8001da6:	e7fe      	b.n	8001da6 <main+0x222>
 8001da8:	4b20      	ldr	r3, [pc, #128]	; (8001e2c <main+0x2a8>)
 8001daa:	4a21      	ldr	r2, [pc, #132]	; (8001e30 <main+0x2ac>)
 8001dac:	6198      	str	r0, [r3, #24]
 8001dae:	e9c3 2000 	strd	r2, r0, [r3]
 8001db2:	e9c3 0502 	strd	r0, r5, [r3, #8]
 8001db6:	e9c3 0004 	strd	r0, r0, [r3, #16]
 8001dba:	4618      	mov	r0, r3
 8001dbc:	f002 fa4c 	bl	8004258 <HAL_TIM_Base_Init>
 8001dc0:	4604      	mov	r4, r0
 8001dc2:	b108      	cbz	r0, 8001dc8 <main+0x244>
 8001dc4:	b672      	cpsid	i
 8001dc6:	e7fe      	b.n	8001dc6 <main+0x242>
 8001dc8:	f002 fdba 	bl	8004940 <osKernelInitialize>
 8001dcc:	4a19      	ldr	r2, [pc, #100]	; (8001e34 <main+0x2b0>)
 8001dce:	481a      	ldr	r0, [pc, #104]	; (8001e38 <main+0x2b4>)
 8001dd0:	4621      	mov	r1, r4
 8001dd2:	f002 fdef 	bl	80049b4 <osThreadNew>
 8001dd6:	4b19      	ldr	r3, [pc, #100]	; (8001e3c <main+0x2b8>)
 8001dd8:	4a19      	ldr	r2, [pc, #100]	; (8001e40 <main+0x2bc>)
 8001dda:	6018      	str	r0, [r3, #0]
 8001ddc:	4621      	mov	r1, r4
 8001dde:	4819      	ldr	r0, [pc, #100]	; (8001e44 <main+0x2c0>)
 8001de0:	f002 fde8 	bl	80049b4 <osThreadNew>
 8001de4:	4b18      	ldr	r3, [pc, #96]	; (8001e48 <main+0x2c4>)
 8001de6:	4a19      	ldr	r2, [pc, #100]	; (8001e4c <main+0x2c8>)
 8001de8:	6018      	str	r0, [r3, #0]
 8001dea:	4621      	mov	r1, r4
 8001dec:	4818      	ldr	r0, [pc, #96]	; (8001e50 <main+0x2cc>)
 8001dee:	f002 fde1 	bl	80049b4 <osThreadNew>
 8001df2:	4b18      	ldr	r3, [pc, #96]	; (8001e54 <main+0x2d0>)
 8001df4:	6018      	str	r0, [r3, #0]
 8001df6:	f002 fdbd 	bl	8004974 <osKernelStart>
 8001dfa:	e7fe      	b.n	8001dfa <main+0x276>
 8001dfc:	40021000 	.word	0x40021000
 8001e00:	20001bb8 	.word	0x20001bb8
 8001e04:	48000400 	.word	0x48000400
 8001e08:	10310000 	.word	0x10310000
 8001e0c:	10210000 	.word	0x10210000
 8001e10:	40004400 	.word	0x40004400
 8001e14:	20001b4c 	.word	0x20001b4c
 8001e18:	200019ec 	.word	0x200019ec
 8001e1c:	10a0a6fb 	.word	0x10a0a6fb
 8001e20:	40005400 	.word	0x40005400
 8001e24:	20001c90 	.word	0x20001c90
 8001e28:	40001400 	.word	0x40001400
 8001e2c:	20001c44 	.word	0x20001c44
 8001e30:	40014400 	.word	0x40014400
 8001e34:	080066b4 	.word	0x080066b4
 8001e38:	08001a71 	.word	0x08001a71
 8001e3c:	20001b40 	.word	0x20001b40
 8001e40:	0800666c 	.word	0x0800666c
 8001e44:	08001aad 	.word	0x08001aad
 8001e48:	20001b48 	.word	0x20001b48
 8001e4c:	08006690 	.word	0x08006690
 8001e50:	08001ad1 	.word	0x08001ad1
 8001e54:	20001b44 	.word	0x20001b44
 8001e58:	3ef08000 	.word	0x3ef08000

08001e5c <HAL_GPIO_EXTI_Callback>:
 8001e5c:	4901      	ldr	r1, [pc, #4]	; (8001e64 <HAL_GPIO_EXTI_Callback+0x8>)
 8001e5e:	f7ff b845 	b.w	8000eec <interrupt_interface>
 8001e62:	bf00      	nop
 8001e64:	20001b4c 	.word	0x20001b4c

08001e68 <HAL_ADC_ConvCpltCallback>:
 8001e68:	f7ff b94e 	b.w	8001108 <interrupt_adc_interface>

08001e6c <HAL_TIM_PeriodElapsedCallback>:
 8001e6c:	f7ff bcec 	b.w	8001848 <interrupt_timer_led>

08001e70 <HAL_MspInit>:
 8001e70:	4b0f      	ldr	r3, [pc, #60]	; (8001eb0 <HAL_MspInit+0x40>)
 8001e72:	b507      	push	{r0, r1, r2, lr}
 8001e74:	6e1a      	ldr	r2, [r3, #96]	; 0x60
 8001e76:	f042 0201 	orr.w	r2, r2, #1
 8001e7a:	661a      	str	r2, [r3, #96]	; 0x60
 8001e7c:	6e1a      	ldr	r2, [r3, #96]	; 0x60
 8001e7e:	f002 0201 	and.w	r2, r2, #1
 8001e82:	9200      	str	r2, [sp, #0]
 8001e84:	9a00      	ldr	r2, [sp, #0]
 8001e86:	6d9a      	ldr	r2, [r3, #88]	; 0x58
 8001e88:	f042 5280 	orr.w	r2, r2, #268435456	; 0x10000000
 8001e8c:	659a      	str	r2, [r3, #88]	; 0x58
 8001e8e:	6d9b      	ldr	r3, [r3, #88]	; 0x58
 8001e90:	f003 5380 	and.w	r3, r3, #268435456	; 0x10000000
 8001e94:	9301      	str	r3, [sp, #4]
 8001e96:	2200      	movs	r2, #0
 8001e98:	210f      	movs	r1, #15
 8001e9a:	f06f 0001 	mvn.w	r0, #1
 8001e9e:	9b01      	ldr	r3, [sp, #4]
 8001ea0:	f000 ffd4 	bl	8002e4c <HAL_NVIC_SetPriority>
 8001ea4:	b003      	add	sp, #12
 8001ea6:	f85d eb04 	ldr.w	lr, [sp], #4
 8001eaa:	f001 bb69 	b.w	8003580 <HAL_PWREx_DisableUCPDDeadBattery>
 8001eae:	bf00      	nop
 8001eb0:	40021000 	.word	0x40021000

08001eb4 <HAL_ADC_MspInit>:
 8001eb4:	b510      	push	{r4, lr}
 8001eb6:	4604      	mov	r4, r0
 8001eb8:	b088      	sub	sp, #32
 8001eba:	2214      	movs	r2, #20
 8001ebc:	2100      	movs	r1, #0
 8001ebe:	a803      	add	r0, sp, #12
 8001ec0:	f004 faab 	bl	800641a <memset>
 8001ec4:	6823      	ldr	r3, [r4, #0]
 8001ec6:	f1b3 4fa0 	cmp.w	r3, #1342177280	; 0x50000000
 8001eca:	d125      	bne.n	8001f18 <HAL_ADC_MspInit+0x64>
 8001ecc:	f103 4370 	add.w	r3, r3, #4026531840	; 0xf0000000
 8001ed0:	f503 3304 	add.w	r3, r3, #135168	; 0x21000
 8001ed4:	a903      	add	r1, sp, #12
 8001ed6:	6cda      	ldr	r2, [r3, #76]	; 0x4c
 8001ed8:	4810      	ldr	r0, [pc, #64]	; (8001f1c <HAL_ADC_MspInit+0x68>)
 8001eda:	f442 5200 	orr.w	r2, r2, #8192	; 0x2000
 8001ede:	64da      	str	r2, [r3, #76]	; 0x4c
 8001ee0:	6cda      	ldr	r2, [r3, #76]	; 0x4c
 8001ee2:	f402 5200 	and.w	r2, r2, #8192	; 0x2000
 8001ee6:	9201      	str	r2, [sp, #4]
 8001ee8:	9a01      	ldr	r2, [sp, #4]
 8001eea:	6cda      	ldr	r2, [r3, #76]	; 0x4c
 8001eec:	f042 0202 	orr.w	r2, r2, #2
 8001ef0:	64da      	str	r2, [r3, #76]	; 0x4c
 8001ef2:	6cdb      	ldr	r3, [r3, #76]	; 0x4c
 8001ef4:	f003 0302 	and.w	r3, r3, #2
 8001ef8:	9302      	str	r3, [sp, #8]
 8001efa:	2201      	movs	r2, #1
 8001efc:	9b02      	ldr	r3, [sp, #8]
 8001efe:	2303      	movs	r3, #3
 8001f00:	e9cd 2303 	strd	r2, r3, [sp, #12]
 8001f04:	f000 fffa 	bl	8002efc <HAL_GPIO_Init>
 8001f08:	2012      	movs	r0, #18
 8001f0a:	2200      	movs	r2, #0
 8001f0c:	2105      	movs	r1, #5
 8001f0e:	f000 ff9d 	bl	8002e4c <HAL_NVIC_SetPriority>
 8001f12:	2012      	movs	r0, #18
 8001f14:	f000 ffce 	bl	8002eb4 <HAL_NVIC_EnableIRQ>
 8001f18:	b008      	add	sp, #32
 8001f1a:	bd10      	pop	{r4, pc}
 8001f1c:	48000400 	.word	0x48000400

08001f20 <HAL_I2C_MspInit>:
 8001f20:	b5f0      	push	{r4, r5, r6, r7, lr}
 8001f22:	4604      	mov	r4, r0
 8001f24:	b089      	sub	sp, #36	; 0x24
 8001f26:	2214      	movs	r2, #20
 8001f28:	2100      	movs	r1, #0
 8001f2a:	a803      	add	r0, sp, #12
 8001f2c:	f004 fa75 	bl	800641a <memset>
 8001f30:	6822      	ldr	r2, [r4, #0]
 8001f32:	4b1d      	ldr	r3, [pc, #116]	; (8001fa8 <HAL_I2C_MspInit+0x88>)
 8001f34:	429a      	cmp	r2, r3
 8001f36:	d134      	bne.n	8001fa2 <HAL_I2C_MspInit+0x82>
 8001f38:	4c1c      	ldr	r4, [pc, #112]	; (8001fac <HAL_I2C_MspInit+0x8c>)
 8001f3a:	6ce3      	ldr	r3, [r4, #76]	; 0x4c
 8001f3c:	f043 0301 	orr.w	r3, r3, #1
 8001f40:	64e3      	str	r3, [r4, #76]	; 0x4c
 8001f42:	6ce3      	ldr	r3, [r4, #76]	; 0x4c
 8001f44:	f003 0301 	and.w	r3, r3, #1
 8001f48:	9300      	str	r3, [sp, #0]
 8001f4a:	9b00      	ldr	r3, [sp, #0]
 8001f4c:	6ce3      	ldr	r3, [r4, #76]	; 0x4c
 8001f4e:	f043 0302 	orr.w	r3, r3, #2
 8001f52:	64e3      	str	r3, [r4, #76]	; 0x4c
 8001f54:	6ce3      	ldr	r3, [r4, #76]	; 0x4c
 8001f56:	f003 0302 	and.w	r3, r3, #2
 8001f5a:	9301      	str	r3, [sp, #4]
 8001f5c:	9b01      	ldr	r3, [sp, #4]
 8001f5e:	2712      	movs	r7, #18
 8001f60:	f44f 4300 	mov.w	r3, #32768	; 0x8000
 8001f64:	2601      	movs	r6, #1
 8001f66:	2504      	movs	r5, #4
 8001f68:	a903      	add	r1, sp, #12
 8001f6a:	f04f 4090 	mov.w	r0, #1207959552	; 0x48000000
 8001f6e:	e9cd 3703 	strd	r3, r7, [sp, #12]
 8001f72:	9605      	str	r6, [sp, #20]
 8001f74:	9507      	str	r5, [sp, #28]
 8001f76:	f000 ffc1 	bl	8002efc <HAL_GPIO_Init>
 8001f7a:	2380      	movs	r3, #128	; 0x80
 8001f7c:	e9cd 3703 	strd	r3, r7, [sp, #12]
 8001f80:	a903      	add	r1, sp, #12
 8001f82:	2300      	movs	r3, #0
 8001f84:	480a      	ldr	r0, [pc, #40]	; (8001fb0 <HAL_I2C_MspInit+0x90>)
 8001f86:	9605      	str	r6, [sp, #20]
 8001f88:	e9cd 3506 	strd	r3, r5, [sp, #24]
 8001f8c:	f000 ffb6 	bl	8002efc <HAL_GPIO_Init>
 8001f90:	6da3      	ldr	r3, [r4, #88]	; 0x58
 8001f92:	f443 1300 	orr.w	r3, r3, #2097152	; 0x200000
 8001f96:	65a3      	str	r3, [r4, #88]	; 0x58
 8001f98:	6da3      	ldr	r3, [r4, #88]	; 0x58
 8001f9a:	f403 1300 	and.w	r3, r3, #2097152	; 0x200000
 8001f9e:	9302      	str	r3, [sp, #8]
 8001fa0:	9b02      	ldr	r3, [sp, #8]
 8001fa2:	b009      	add	sp, #36	; 0x24
 8001fa4:	bdf0      	pop	{r4, r5, r6, r7, pc}
 8001fa6:	bf00      	nop
 8001fa8:	40005400 	.word	0x40005400
 8001fac:	40021000 	.word	0x40021000
 8001fb0:	48000400 	.word	0x48000400

08001fb4 <HAL_TIM_Base_MspInit>:
 8001fb4:	b507      	push	{r0, r1, r2, lr}
 8001fb6:	6803      	ldr	r3, [r0, #0]
 8001fb8:	4a13      	ldr	r2, [pc, #76]	; (8002008 <HAL_TIM_Base_MspInit+0x54>)
 8001fba:	4293      	cmp	r3, r2
 8001fbc:	d10c      	bne.n	8001fd8 <HAL_TIM_Base_MspInit+0x24>
 8001fbe:	4b13      	ldr	r3, [pc, #76]	; (800200c <HAL_TIM_Base_MspInit+0x58>)
 8001fc0:	6d9a      	ldr	r2, [r3, #88]	; 0x58
 8001fc2:	f042 0220 	orr.w	r2, r2, #32
 8001fc6:	659a      	str	r2, [r3, #88]	; 0x58
 8001fc8:	6d9b      	ldr	r3, [r3, #88]	; 0x58
 8001fca:	f003 0320 	and.w	r3, r3, #32
 8001fce:	9300      	str	r3, [sp, #0]
 8001fd0:	9b00      	ldr	r3, [sp, #0]
 8001fd2:	b003      	add	sp, #12
 8001fd4:	f85d fb04 	ldr.w	pc, [sp], #4
 8001fd8:	4a0d      	ldr	r2, [pc, #52]	; (8002010 <HAL_TIM_Base_MspInit+0x5c>)
 8001fda:	4293      	cmp	r3, r2
 8001fdc:	d1f9      	bne.n	8001fd2 <HAL_TIM_Base_MspInit+0x1e>
 8001fde:	4b0b      	ldr	r3, [pc, #44]	; (800200c <HAL_TIM_Base_MspInit+0x58>)
 8001fe0:	6e1a      	ldr	r2, [r3, #96]	; 0x60
 8001fe2:	f442 3200 	orr.w	r2, r2, #131072	; 0x20000
 8001fe6:	661a      	str	r2, [r3, #96]	; 0x60
 8001fe8:	6e1b      	ldr	r3, [r3, #96]	; 0x60
 8001fea:	f403 3300 	and.w	r3, r3, #131072	; 0x20000
 8001fee:	9301      	str	r3, [sp, #4]
 8001ff0:	2200      	movs	r2, #0
 8001ff2:	2105      	movs	r1, #5
 8001ff4:	2019      	movs	r0, #25
 8001ff6:	9b01      	ldr	r3, [sp, #4]
 8001ff8:	f000 ff28 	bl	8002e4c <HAL_NVIC_SetPriority>
 8001ffc:	2019      	movs	r0, #25
 8001ffe:	b003      	add	sp, #12
 8002000:	f85d eb04 	ldr.w	lr, [sp], #4
 8002004:	f000 bf56 	b.w	8002eb4 <HAL_NVIC_EnableIRQ>
 8002008:	40001400 	.word	0x40001400
 800200c:	40021000 	.word	0x40021000
 8002010:	40014400 	.word	0x40014400

08002014 <HAL_UART_MspInit>:
 8002014:	b510      	push	{r4, lr}
 8002016:	4604      	mov	r4, r0
 8002018:	b088      	sub	sp, #32
 800201a:	2214      	movs	r2, #20
 800201c:	2100      	movs	r1, #0
 800201e:	a803      	add	r0, sp, #12
 8002020:	f004 f9fb 	bl	800641a <memset>
 8002024:	6822      	ldr	r2, [r4, #0]
 8002026:	4b12      	ldr	r3, [pc, #72]	; (8002070 <HAL_UART_MspInit+0x5c>)
 8002028:	429a      	cmp	r2, r3
 800202a:	d11e      	bne.n	800206a <HAL_UART_MspInit+0x56>
 800202c:	f503 33e6 	add.w	r3, r3, #117760	; 0x1cc00
 8002030:	a903      	add	r1, sp, #12
 8002032:	6d9a      	ldr	r2, [r3, #88]	; 0x58
 8002034:	f442 3200 	orr.w	r2, r2, #131072	; 0x20000
 8002038:	659a      	str	r2, [r3, #88]	; 0x58
 800203a:	6d9a      	ldr	r2, [r3, #88]	; 0x58
 800203c:	f402 3200 	and.w	r2, r2, #131072	; 0x20000
 8002040:	9201      	str	r2, [sp, #4]
 8002042:	9a01      	ldr	r2, [sp, #4]
 8002044:	6cda      	ldr	r2, [r3, #76]	; 0x4c
 8002046:	f042 0201 	orr.w	r2, r2, #1
 800204a:	64da      	str	r2, [r3, #76]	; 0x4c
 800204c:	6cdb      	ldr	r3, [r3, #76]	; 0x4c
 800204e:	f003 0301 	and.w	r3, r3, #1
 8002052:	9302      	str	r3, [sp, #8]
 8002054:	9b02      	ldr	r3, [sp, #8]
 8002056:	220c      	movs	r2, #12
 8002058:	2302      	movs	r3, #2
 800205a:	e9cd 2303 	strd	r2, r3, [sp, #12]
 800205e:	f04f 4090 	mov.w	r0, #1207959552	; 0x48000000
 8002062:	2307      	movs	r3, #7
 8002064:	9307      	str	r3, [sp, #28]
 8002066:	f000 ff49 	bl	8002efc <HAL_GPIO_Init>
 800206a:	b008      	add	sp, #32
 800206c:	bd10      	pop	{r4, pc}
 800206e:	bf00      	nop
 8002070:	40004400 	.word	0x40004400

08002074 <NMI_Handler>:
 8002074:	e7fe      	b.n	8002074 <NMI_Handler>

08002076 <HardFault_Handler>:
 8002076:	e7fe      	b.n	8002076 <HardFault_Handler>

08002078 <MemManage_Handler>:
 8002078:	e7fe      	b.n	8002078 <MemManage_Handler>

0800207a <BusFault_Handler>:
 800207a:	e7fe      	b.n	800207a <BusFault_Handler>

0800207c <UsageFault_Handler>:
 800207c:	e7fe      	b.n	800207c <UsageFault_Handler>

0800207e <DebugMon_Handler>:
 800207e:	4770      	bx	lr

08002080 <SysTick_Handler>:
 8002080:	b508      	push	{r3, lr}
 8002082:	f000 f88f 	bl	80021a4 <HAL_IncTick>
 8002086:	f003 fcab 	bl	80059e0 <xTaskGetSchedulerState>
 800208a:	2801      	cmp	r0, #1
 800208c:	d003      	beq.n	8002096 <SysTick_Handler+0x16>
 800208e:	e8bd 4008 	ldmia.w	sp!, {r3, lr}
 8002092:	f003 bfc7 	b.w	8006024 <xPortSysTickHandler>
 8002096:	bd08      	pop	{r3, pc}

08002098 <ADC1_2_IRQHandler>:
 8002098:	4801      	ldr	r0, [pc, #4]	; (80020a0 <ADC1_2_IRQHandler+0x8>)
 800209a:	f000 b9a7 	b.w	80023ec <HAL_ADC_IRQHandler>
 800209e:	bf00      	nop
 80020a0:	20001b4c 	.word	0x20001b4c

080020a4 <EXTI9_5_IRQHandler>:
 80020a4:	b508      	push	{r3, lr}
 80020a6:	f44f 7080 	mov.w	r0, #256	; 0x100
 80020aa:	f000 ffff 	bl	80030ac <HAL_GPIO_EXTI_IRQHandler>
 80020ae:	f44f 7000 	mov.w	r0, #512	; 0x200
 80020b2:	e8bd 4008 	ldmia.w	sp!, {r3, lr}
 80020b6:	f000 bff9 	b.w	80030ac <HAL_GPIO_EXTI_IRQHandler>
	...

080020bc <TIM1_UP_TIM16_IRQHandler>:
 80020bc:	4801      	ldr	r0, [pc, #4]	; (80020c4 <TIM1_UP_TIM16_IRQHandler+0x8>)
 80020be:	f001 bf85 	b.w	8003fcc <HAL_TIM_IRQHandler>
 80020c2:	bf00      	nop
 80020c4:	20001c44 	.word	0x20001c44

080020c8 <SystemInit>:
 80020c8:	4b05      	ldr	r3, [pc, #20]	; (80020e0 <SystemInit+0x18>)
 80020ca:	f8d3 2088 	ldr.w	r2, [r3, #136]	; 0x88
 80020ce:	f442 0270 	orr.w	r2, r2, #15728640	; 0xf00000
 80020d2:	f8c3 2088 	str.w	r2, [r3, #136]	; 0x88
 80020d6:	f04f 6200 	mov.w	r2, #134217728	; 0x8000000
 80020da:	609a      	str	r2, [r3, #8]
 80020dc:	4770      	bx	lr
 80020de:	bf00      	nop
 80020e0:	e000ed00 	.word	0xe000ed00

080020e4 <Reset_Handler>:
 80020e4:	480d      	ldr	r0, [pc, #52]	; (800211c <LoopForever+0x2>)
 80020e6:	4685      	mov	sp, r0
 80020e8:	480d      	ldr	r0, [pc, #52]	; (8002120 <LoopForever+0x6>)
 80020ea:	490e      	ldr	r1, [pc, #56]	; (8002124 <LoopForever+0xa>)
 80020ec:	4a0e      	ldr	r2, [pc, #56]	; (8002128 <LoopForever+0xe>)
 80020ee:	2300      	movs	r3, #0
 80020f0:	e002      	b.n	80020f8 <LoopCopyDataInit>

080020f2 <CopyDataInit>:
 80020f2:	58d4      	ldr	r4, [r2, r3]
 80020f4:	50c4      	str	r4, [r0, r3]
 80020f6:	3304      	adds	r3, #4

080020f8 <LoopCopyDataInit>:
 80020f8:	18c4      	adds	r4, r0, r3
 80020fa:	428c      	cmp	r4, r1
 80020fc:	d3f9      	bcc.n	80020f2 <CopyDataInit>
 80020fe:	4a0b      	ldr	r2, [pc, #44]	; (800212c <LoopForever+0x12>)
 8002100:	4c0b      	ldr	r4, [pc, #44]	; (8002130 <LoopForever+0x16>)
 8002102:	2300      	movs	r3, #0
 8002104:	e001      	b.n	800210a <LoopFillZerobss>

08002106 <FillZerobss>:
 8002106:	6013      	str	r3, [r2, #0]
 8002108:	3204      	adds	r2, #4

0800210a <LoopFillZerobss>:
 800210a:	42a2      	cmp	r2, r4
 800210c:	d3fb      	bcc.n	8002106 <FillZerobss>
 800210e:	f7ff ffdb 	bl	80020c8 <SystemInit>
 8002112:	f004 f953 	bl	80063bc <__libc_init_array>
 8002116:	f7ff fd35 	bl	8001b84 <main>

0800211a <LoopForever>:
 800211a:	e7fe      	b.n	800211a <LoopForever>
 800211c:	20008000 	.word	0x20008000
 8002120:	20000000 	.word	0x20000000
 8002124:	200000b4 	.word	0x200000b4
 8002128:	08006764 	.word	0x08006764
 800212c:	200000b4 	.word	0x200000b4
 8002130:	20001d20 	.word	0x20001d20

08002134 <COMP1_2_3_IRQHandler>:
 8002134:	e7fe      	b.n	8002134 <COMP1_2_3_IRQHandler>
	...

08002138 <HAL_InitTick>:
 8002138:	b538      	push	{r3, r4, r5, lr}
 800213a:	4b0f      	ldr	r3, [pc, #60]	; (8002178 <HAL_InitTick+0x40>)
 800213c:	4605      	mov	r5, r0
 800213e:	6818      	ldr	r0, [r3, #0]
 8002140:	b908      	cbnz	r0, 8002146 <HAL_InitTick+0xe>
 8002142:	2001      	movs	r0, #1
 8002144:	bd38      	pop	{r3, r4, r5, pc}
 8002146:	4a0d      	ldr	r2, [pc, #52]	; (800217c <HAL_InitTick+0x44>)
 8002148:	f44f 737a 	mov.w	r3, #1000	; 0x3e8
 800214c:	fbb3 f3f0 	udiv	r3, r3, r0
 8002150:	6810      	ldr	r0, [r2, #0]
 8002152:	fbb0 f0f3 	udiv	r0, r0, r3
 8002156:	f000 febb 	bl	8002ed0 <HAL_SYSTICK_Config>
 800215a:	4604      	mov	r4, r0
 800215c:	2800      	cmp	r0, #0
 800215e:	d1f0      	bne.n	8002142 <HAL_InitTick+0xa>
 8002160:	2d0f      	cmp	r5, #15
 8002162:	d8ee      	bhi.n	8002142 <HAL_InitTick+0xa>
 8002164:	4602      	mov	r2, r0
 8002166:	4629      	mov	r1, r5
 8002168:	f04f 30ff 	mov.w	r0, #4294967295	; 0xffffffff
 800216c:	f000 fe6e 	bl	8002e4c <HAL_NVIC_SetPriority>
 8002170:	4b03      	ldr	r3, [pc, #12]	; (8002180 <HAL_InitTick+0x48>)
 8002172:	4620      	mov	r0, r4
 8002174:	601d      	str	r5, [r3, #0]
 8002176:	e7e5      	b.n	8002144 <HAL_InitTick+0xc>
 8002178:	200000a8 	.word	0x200000a8
 800217c:	200000a4 	.word	0x200000a4
 8002180:	200000ac 	.word	0x200000ac

08002184 <HAL_Init>:
 8002184:	b510      	push	{r4, lr}
 8002186:	2003      	movs	r0, #3
 8002188:	f000 fe4e 	bl	8002e28 <HAL_NVIC_SetPriorityGrouping>
 800218c:	200f      	movs	r0, #15
 800218e:	f7ff ffd3 	bl	8002138 <HAL_InitTick>
 8002192:	4604      	mov	r4, r0
 8002194:	b918      	cbnz	r0, 800219e <HAL_Init+0x1a>
 8002196:	f7ff fe6b 	bl	8001e70 <HAL_MspInit>
 800219a:	4620      	mov	r0, r4
 800219c:	bd10      	pop	{r4, pc}
 800219e:	2401      	movs	r4, #1
 80021a0:	e7fb      	b.n	800219a <HAL_Init+0x16>
	...

080021a4 <HAL_IncTick>:
 80021a4:	4a03      	ldr	r2, [pc, #12]	; (80021b4 <HAL_IncTick+0x10>)
 80021a6:	4904      	ldr	r1, [pc, #16]	; (80021b8 <HAL_IncTick+0x14>)
 80021a8:	6813      	ldr	r3, [r2, #0]
 80021aa:	6809      	ldr	r1, [r1, #0]
 80021ac:	440b      	add	r3, r1
 80021ae:	6013      	str	r3, [r2, #0]
 80021b0:	4770      	bx	lr
 80021b2:	bf00      	nop
 80021b4:	20001cdc 	.word	0x20001cdc
 80021b8:	200000a8 	.word	0x200000a8

080021bc <HAL_GetTick>:
 80021bc:	4b01      	ldr	r3, [pc, #4]	; (80021c4 <HAL_GetTick+0x8>)
 80021be:	6818      	ldr	r0, [r3, #0]
 80021c0:	4770      	bx	lr
 80021c2:	bf00      	nop
 80021c4:	20001cdc 	.word	0x20001cdc

080021c8 <LL_ADC_SetChannelSamplingTime>:
 80021c8:	b530      	push	{r4, r5, lr}
 80021ca:	0dcc      	lsrs	r4, r1, #23
 80021cc:	f004 0404 	and.w	r4, r4, #4
 80021d0:	3014      	adds	r0, #20
 80021d2:	f3c1 5104 	ubfx	r1, r1, #20, #5
 80021d6:	5823      	ldr	r3, [r4, r0]
 80021d8:	2507      	movs	r5, #7
 80021da:	408d      	lsls	r5, r1
 80021dc:	ea23 0305 	bic.w	r3, r3, r5
 80021e0:	fa02 f101 	lsl.w	r1, r2, r1
 80021e4:	4319      	orrs	r1, r3
 80021e6:	5021      	str	r1, [r4, r0]
 80021e8:	bd30      	pop	{r4, r5, pc}

080021ea <LL_ADC_IsEnabled>:
 80021ea:	6880      	ldr	r0, [r0, #8]
 80021ec:	f000 0001 	and.w	r0, r0, #1
 80021f0:	4770      	bx	lr

080021f2 <LL_ADC_REG_IsConversionOngoing>:
 80021f2:	6880      	ldr	r0, [r0, #8]
 80021f4:	f3c0 0080 	ubfx	r0, r0, #2, #1
 80021f8:	4770      	bx	lr
	...

080021fc <HAL_ADC_Init>:
 80021fc:	b573      	push	{r0, r1, r4, r5, r6, lr}
 80021fe:	2300      	movs	r3, #0
 8002200:	9301      	str	r3, [sp, #4]
 8002202:	4604      	mov	r4, r0
 8002204:	2800      	cmp	r0, #0
 8002206:	f000 80ab 	beq.w	8002360 <HAL_ADC_Init+0x164>
 800220a:	6dc5      	ldr	r5, [r0, #92]	; 0x5c
 800220c:	b925      	cbnz	r5, 8002218 <HAL_ADC_Init+0x1c>
 800220e:	f7ff fe51 	bl	8001eb4 <HAL_ADC_MspInit>
 8002212:	6625      	str	r5, [r4, #96]	; 0x60
 8002214:	f884 5058 	strb.w	r5, [r4, #88]	; 0x58
 8002218:	6820      	ldr	r0, [r4, #0]
 800221a:	6883      	ldr	r3, [r0, #8]
 800221c:	009e      	lsls	r6, r3, #2
 800221e:	bf41      	itttt	mi
 8002220:	6883      	ldrmi	r3, [r0, #8]
 8002222:	f023 4320 	bicmi.w	r3, r3, #2684354560	; 0xa0000000
 8002226:	f023 033f 	bicmi.w	r3, r3, #63	; 0x3f
 800222a:	6083      	strmi	r3, [r0, #8]
 800222c:	6883      	ldr	r3, [r0, #8]
 800222e:	00dd      	lsls	r5, r3, #3
 8002230:	d504      	bpl.n	800223c <HAL_ADC_Init+0x40>
 8002232:	6883      	ldr	r3, [r0, #8]
 8002234:	00d9      	lsls	r1, r3, #3
 8002236:	d515      	bpl.n	8002264 <HAL_ADC_Init+0x68>
 8002238:	2100      	movs	r1, #0
 800223a:	e01c      	b.n	8002276 <HAL_ADC_Init+0x7a>
 800223c:	6883      	ldr	r3, [r0, #8]
 800223e:	4a62      	ldr	r2, [pc, #392]	; (80023c8 <HAL_ADC_Init+0x1cc>)
 8002240:	f023 4310 	bic.w	r3, r3, #2415919104	; 0x90000000
 8002244:	f023 033f 	bic.w	r3, r3, #63	; 0x3f
 8002248:	f043 5380 	orr.w	r3, r3, #268435456	; 0x10000000
 800224c:	6083      	str	r3, [r0, #8]
 800224e:	4b5f      	ldr	r3, [pc, #380]	; (80023cc <HAL_ADC_Init+0x1d0>)
 8002250:	681b      	ldr	r3, [r3, #0]
 8002252:	fbb3 f3f2 	udiv	r3, r3, r2
 8002256:	9301      	str	r3, [sp, #4]
 8002258:	9b01      	ldr	r3, [sp, #4]
 800225a:	2b00      	cmp	r3, #0
 800225c:	d0e9      	beq.n	8002232 <HAL_ADC_Init+0x36>
 800225e:	9b01      	ldr	r3, [sp, #4]
 8002260:	3b01      	subs	r3, #1
 8002262:	e7f8      	b.n	8002256 <HAL_ADC_Init+0x5a>
 8002264:	6de3      	ldr	r3, [r4, #92]	; 0x5c
 8002266:	f043 0310 	orr.w	r3, r3, #16
 800226a:	65e3      	str	r3, [r4, #92]	; 0x5c
 800226c:	6e23      	ldr	r3, [r4, #96]	; 0x60
 800226e:	f043 0301 	orr.w	r3, r3, #1
 8002272:	6623      	str	r3, [r4, #96]	; 0x60
 8002274:	2101      	movs	r1, #1
 8002276:	f7ff ffbc 	bl	80021f2 <LL_ADC_REG_IsConversionOngoing>
 800227a:	6de3      	ldr	r3, [r4, #92]	; 0x5c
 800227c:	f013 0f10 	tst.w	r3, #16
 8002280:	6de3      	ldr	r3, [r4, #92]	; 0x5c
 8002282:	d16a      	bne.n	800235a <HAL_ADC_Init+0x15e>
 8002284:	2800      	cmp	r0, #0
 8002286:	d168      	bne.n	800235a <HAL_ADC_Init+0x15e>
 8002288:	f423 7381 	bic.w	r3, r3, #258	; 0x102
 800228c:	f043 0302 	orr.w	r3, r3, #2
 8002290:	65e3      	str	r3, [r4, #92]	; 0x5c
 8002292:	6820      	ldr	r0, [r4, #0]
 8002294:	f7ff ffa9 	bl	80021ea <LL_ADC_IsEnabled>
 8002298:	b980      	cbnz	r0, 80022bc <HAL_ADC_Init+0xc0>
 800229a:	f04f 40a0 	mov.w	r0, #1342177280	; 0x50000000
 800229e:	f7ff ffa4 	bl	80021ea <LL_ADC_IsEnabled>
 80022a2:	4603      	mov	r3, r0
 80022a4:	484a      	ldr	r0, [pc, #296]	; (80023d0 <HAL_ADC_Init+0x1d4>)
 80022a6:	f7ff ffa0 	bl	80021ea <LL_ADC_IsEnabled>
 80022aa:	4303      	orrs	r3, r0
 80022ac:	d106      	bne.n	80022bc <HAL_ADC_Init+0xc0>
 80022ae:	4a49      	ldr	r2, [pc, #292]	; (80023d4 <HAL_ADC_Init+0x1d8>)
 80022b0:	6860      	ldr	r0, [r4, #4]
 80022b2:	6893      	ldr	r3, [r2, #8]
 80022b4:	f423 137c 	bic.w	r3, r3, #4128768	; 0x3f0000
 80022b8:	4303      	orrs	r3, r0
 80022ba:	6093      	str	r3, [r2, #8]
 80022bc:	68e0      	ldr	r0, [r4, #12]
 80022be:	6be3      	ldr	r3, [r4, #60]	; 0x3c
 80022c0:	f894 2024 	ldrb.w	r2, [r4, #36]	; 0x24
 80022c4:	4303      	orrs	r3, r0
 80022c6:	68a0      	ldr	r0, [r4, #8]
 80022c8:	4303      	orrs	r3, r0
 80022ca:	7f60      	ldrb	r0, [r4, #29]
 80022cc:	2a01      	cmp	r2, #1
 80022ce:	ea43 3340 	orr.w	r3, r3, r0, lsl #13
 80022d2:	ea43 4302 	orr.w	r3, r3, r2, lsl #16
 80022d6:	bf02      	ittt	eq
 80022d8:	6aa2      	ldreq	r2, [r4, #40]	; 0x28
 80022da:	f102 32ff 	addeq.w	r2, r2, #4294967295	; 0xffffffff
 80022de:	ea43 4342 	orreq.w	r3, r3, r2, lsl #17
 80022e2:	6ae2      	ldr	r2, [r4, #44]	; 0x2c
 80022e4:	b122      	cbz	r2, 80022f0 <HAL_ADC_Init+0xf4>
 80022e6:	6b20      	ldr	r0, [r4, #48]	; 0x30
 80022e8:	f402 7278 	and.w	r2, r2, #992	; 0x3e0
 80022ec:	4302      	orrs	r2, r0
 80022ee:	4313      	orrs	r3, r2
 80022f0:	6820      	ldr	r0, [r4, #0]
 80022f2:	4a39      	ldr	r2, [pc, #228]	; (80023d8 <HAL_ADC_Init+0x1dc>)
 80022f4:	68c5      	ldr	r5, [r0, #12]
 80022f6:	402a      	ands	r2, r5
 80022f8:	4313      	orrs	r3, r2
 80022fa:	60c3      	str	r3, [r0, #12]
 80022fc:	6903      	ldr	r3, [r0, #16]
 80022fe:	6b62      	ldr	r2, [r4, #52]	; 0x34
 8002300:	f023 6340 	bic.w	r3, r3, #201326592	; 0xc000000
 8002304:	4313      	orrs	r3, r2
 8002306:	6103      	str	r3, [r0, #16]
 8002308:	f7ff ff73 	bl	80021f2 <LL_ADC_REG_IsConversionOngoing>
 800230c:	6823      	ldr	r3, [r4, #0]
 800230e:	689a      	ldr	r2, [r3, #8]
 8002310:	0712      	lsls	r2, r2, #28
 8002312:	d527      	bpl.n	8002364 <HAL_ADC_Init+0x168>
 8002314:	6962      	ldr	r2, [r4, #20]
 8002316:	2a01      	cmp	r2, #1
 8002318:	bf05      	ittet	eq
 800231a:	6b18      	ldreq	r0, [r3, #48]	; 0x30
 800231c:	6a22      	ldreq	r2, [r4, #32]
 800231e:	6b1a      	ldrne	r2, [r3, #48]	; 0x30
 8002320:	f102 32ff 	addeq.w	r2, r2, #4294967295	; 0xffffffff
 8002324:	bf06      	itte	eq
 8002326:	f020 000f 	biceq.w	r0, r0, #15
 800232a:	4302      	orreq	r2, r0
 800232c:	f022 020f 	bicne.w	r2, r2, #15
 8002330:	631a      	str	r2, [r3, #48]	; 0x30
 8002332:	6de3      	ldr	r3, [r4, #92]	; 0x5c
 8002334:	f023 0303 	bic.w	r3, r3, #3
 8002338:	f043 0301 	orr.w	r3, r3, #1
 800233c:	65e3      	str	r3, [r4, #92]	; 0x5c
 800233e:	4608      	mov	r0, r1
 8002340:	b002      	add	sp, #8
 8002342:	bd70      	pop	{r4, r5, r6, pc}
 8002344:	f420 3080 	bic.w	r0, r0, #65536	; 0x10000
 8002348:	6118      	str	r0, [r3, #16]
 800234a:	f8d3 20c0 	ldr.w	r2, [r3, #192]	; 0xc0
 800234e:	402a      	ands	r2, r5
 8002350:	e023      	b.n	800239a <HAL_ADC_Init+0x19e>
 8002352:	691a      	ldr	r2, [r3, #16]
 8002354:	f022 0201 	bic.w	r2, r2, #1
 8002358:	e034      	b.n	80023c4 <HAL_ADC_Init+0x1c8>
 800235a:	f043 0310 	orr.w	r3, r3, #16
 800235e:	65e3      	str	r3, [r4, #92]	; 0x5c
 8002360:	2101      	movs	r1, #1
 8002362:	e7ec      	b.n	800233e <HAL_ADC_Init+0x142>
 8002364:	2800      	cmp	r0, #0
 8002366:	d1d5      	bne.n	8002314 <HAL_ADC_Init+0x118>
 8002368:	68d8      	ldr	r0, [r3, #12]
 800236a:	f894 2038 	ldrb.w	r2, [r4, #56]	; 0x38
 800236e:	7f25      	ldrb	r5, [r4, #28]
 8002370:	6926      	ldr	r6, [r4, #16]
 8002372:	0052      	lsls	r2, r2, #1
 8002374:	f420 4080 	bic.w	r0, r0, #16384	; 0x4000
 8002378:	ea42 3285 	orr.w	r2, r2, r5, lsl #14
 800237c:	f020 0002 	bic.w	r0, r0, #2
 8002380:	4302      	orrs	r2, r0
 8002382:	60da      	str	r2, [r3, #12]
 8002384:	4d15      	ldr	r5, [pc, #84]	; (80023dc <HAL_ADC_Init+0x1e0>)
 8002386:	6918      	ldr	r0, [r3, #16]
 8002388:	2e00      	cmp	r6, #0
 800238a:	d0db      	beq.n	8002344 <HAL_ADC_Init+0x148>
 800238c:	f440 3080 	orr.w	r0, r0, #65536	; 0x10000
 8002390:	6118      	str	r0, [r3, #16]
 8002392:	f8d3 20c0 	ldr.w	r2, [r3, #192]	; 0xc0
 8002396:	402a      	ands	r2, r5
 8002398:	4332      	orrs	r2, r6
 800239a:	f8c3 20c0 	str.w	r2, [r3, #192]	; 0xc0
 800239e:	f894 2040 	ldrb.w	r2, [r4, #64]	; 0x40
 80023a2:	2a01      	cmp	r2, #1
 80023a4:	d1d5      	bne.n	8002352 <HAL_ADC_Init+0x156>
 80023a6:	e9d4 2511 	ldrd	r2, r5, [r4, #68]	; 0x44
 80023aa:	432a      	orrs	r2, r5
 80023ac:	6ce5      	ldr	r5, [r4, #76]	; 0x4c
 80023ae:	6918      	ldr	r0, [r3, #16]
 80023b0:	f042 0201 	orr.w	r2, r2, #1
 80023b4:	432a      	orrs	r2, r5
 80023b6:	6d25      	ldr	r5, [r4, #80]	; 0x50
 80023b8:	f420 60ff 	bic.w	r0, r0, #2040	; 0x7f8
 80023bc:	432a      	orrs	r2, r5
 80023be:	f020 0004 	bic.w	r0, r0, #4
 80023c2:	4302      	orrs	r2, r0
 80023c4:	611a      	str	r2, [r3, #16]
 80023c6:	e7a5      	b.n	8002314 <HAL_ADC_Init+0x118>
 80023c8:	00030d40 	.word	0x00030d40
 80023cc:	200000a4 	.word	0x200000a4
 80023d0:	50000100 	.word	0x50000100
 80023d4:	50000300 	.word	0x50000300
 80023d8:	fff04007 	.word	0xfff04007
 80023dc:	ffffc000 	.word	0xffffc000

080023e0 <HAL_ADC_GetValue>:
 80023e0:	6803      	ldr	r3, [r0, #0]
 80023e2:	6c18      	ldr	r0, [r3, #64]	; 0x40
 80023e4:	4770      	bx	lr

080023e6 <HAL_ADC_LevelOutOfWindowCallback>:
 80023e6:	4770      	bx	lr

080023e8 <HAL_ADC_ErrorCallback>:
 80023e8:	4770      	bx	lr
	...

080023ec <HAL_ADC_IRQHandler>:
 80023ec:	b5f8      	push	{r3, r4, r5, r6, r7, lr}
 80023ee:	6803      	ldr	r3, [r0, #0]
 80023f0:	681d      	ldr	r5, [r3, #0]
 80023f2:	685e      	ldr	r6, [r3, #4]
 80023f4:	4b8a      	ldr	r3, [pc, #552]	; (8002620 <HAL_ADC_IRQHandler+0x234>)
 80023f6:	689f      	ldr	r7, [r3, #8]
 80023f8:	07ab      	lsls	r3, r5, #30
 80023fa:	4604      	mov	r4, r0
 80023fc:	f007 071f 	and.w	r7, r7, #31
 8002400:	d50e      	bpl.n	8002420 <HAL_ADC_IRQHandler+0x34>
 8002402:	07b0      	lsls	r0, r6, #30
 8002404:	d50c      	bpl.n	8002420 <HAL_ADC_IRQHandler+0x34>
 8002406:	6de3      	ldr	r3, [r4, #92]	; 0x5c
 8002408:	06d9      	lsls	r1, r3, #27
 800240a:	bf5e      	ittt	pl
 800240c:	6de3      	ldrpl	r3, [r4, #92]	; 0x5c
 800240e:	f443 6300 	orrpl.w	r3, r3, #2048	; 0x800
 8002412:	65e3      	strpl	r3, [r4, #92]	; 0x5c
 8002414:	4620      	mov	r0, r4
 8002416:	f000 fc98 	bl	8002d4a <HAL_ADCEx_EndOfSamplingCallback>
 800241a:	6823      	ldr	r3, [r4, #0]
 800241c:	2202      	movs	r2, #2
 800241e:	601a      	str	r2, [r3, #0]
 8002420:	076a      	lsls	r2, r5, #29
 8002422:	d501      	bpl.n	8002428 <HAL_ADC_IRQHandler+0x3c>
 8002424:	0773      	lsls	r3, r6, #29
 8002426:	d403      	bmi.n	8002430 <HAL_ADC_IRQHandler+0x44>
 8002428:	0728      	lsls	r0, r5, #28
 800242a:	d532      	bpl.n	8002492 <HAL_ADC_IRQHandler+0xa6>
 800242c:	0731      	lsls	r1, r6, #28
 800242e:	d530      	bpl.n	8002492 <HAL_ADC_IRQHandler+0xa6>
 8002430:	6de3      	ldr	r3, [r4, #92]	; 0x5c
 8002432:	6820      	ldr	r0, [r4, #0]
 8002434:	06da      	lsls	r2, r3, #27
 8002436:	bf5e      	ittt	pl
 8002438:	6de3      	ldrpl	r3, [r4, #92]	; 0x5c
 800243a:	f443 7300 	orrpl.w	r3, r3, #512	; 0x200
 800243e:	65e3      	strpl	r3, [r4, #92]	; 0x5c
 8002440:	68c3      	ldr	r3, [r0, #12]
 8002442:	f413 6f40 	tst.w	r3, #3072	; 0xc00
 8002446:	d11e      	bne.n	8002486 <HAL_ADC_IRQHandler+0x9a>
 8002448:	4b76      	ldr	r3, [pc, #472]	; (8002624 <HAL_ADC_IRQHandler+0x238>)
 800244a:	4298      	cmp	r0, r3
 800244c:	f000 80db 	beq.w	8002606 <HAL_ADC_IRQHandler+0x21a>
 8002450:	68c3      	ldr	r3, [r0, #12]
 8002452:	049b      	lsls	r3, r3, #18
 8002454:	d417      	bmi.n	8002486 <HAL_ADC_IRQHandler+0x9a>
 8002456:	6803      	ldr	r3, [r0, #0]
 8002458:	0719      	lsls	r1, r3, #28
 800245a:	d514      	bpl.n	8002486 <HAL_ADC_IRQHandler+0x9a>
 800245c:	f7ff fec9 	bl	80021f2 <LL_ADC_REG_IsConversionOngoing>
 8002460:	2800      	cmp	r0, #0
 8002462:	f040 80b0 	bne.w	80025c6 <HAL_ADC_IRQHandler+0x1da>
 8002466:	6822      	ldr	r2, [r4, #0]
 8002468:	6853      	ldr	r3, [r2, #4]
 800246a:	f023 030c 	bic.w	r3, r3, #12
 800246e:	6053      	str	r3, [r2, #4]
 8002470:	6de3      	ldr	r3, [r4, #92]	; 0x5c
 8002472:	f423 7380 	bic.w	r3, r3, #256	; 0x100
 8002476:	65e3      	str	r3, [r4, #92]	; 0x5c
 8002478:	6de3      	ldr	r3, [r4, #92]	; 0x5c
 800247a:	04da      	lsls	r2, r3, #19
 800247c:	d403      	bmi.n	8002486 <HAL_ADC_IRQHandler+0x9a>
 800247e:	6de3      	ldr	r3, [r4, #92]	; 0x5c
 8002480:	f043 0301 	orr.w	r3, r3, #1
 8002484:	65e3      	str	r3, [r4, #92]	; 0x5c
 8002486:	4620      	mov	r0, r4
 8002488:	f7ff fcee 	bl	8001e68 <HAL_ADC_ConvCpltCallback>
 800248c:	6823      	ldr	r3, [r4, #0]
 800248e:	220c      	movs	r2, #12
 8002490:	601a      	str	r2, [r3, #0]
 8002492:	06ab      	lsls	r3, r5, #26
 8002494:	d501      	bpl.n	800249a <HAL_ADC_IRQHandler+0xae>
 8002496:	06b0      	lsls	r0, r6, #26
 8002498:	d403      	bmi.n	80024a2 <HAL_ADC_IRQHandler+0xb6>
 800249a:	0669      	lsls	r1, r5, #25
 800249c:	d537      	bpl.n	800250e <HAL_ADC_IRQHandler+0x122>
 800249e:	0672      	lsls	r2, r6, #25
 80024a0:	d535      	bpl.n	800250e <HAL_ADC_IRQHandler+0x122>
 80024a2:	6de3      	ldr	r3, [r4, #92]	; 0x5c
 80024a4:	4a5f      	ldr	r2, [pc, #380]	; (8002624 <HAL_ADC_IRQHandler+0x238>)
 80024a6:	06db      	lsls	r3, r3, #27
 80024a8:	bf5e      	ittt	pl
 80024aa:	6de3      	ldrpl	r3, [r4, #92]	; 0x5c
 80024ac:	f443 5300 	orrpl.w	r3, r3, #8192	; 0x2000
 80024b0:	65e3      	strpl	r3, [r4, #92]	; 0x5c
 80024b2:	6823      	ldr	r3, [r4, #0]
 80024b4:	6cd8      	ldr	r0, [r3, #76]	; 0x4c
 80024b6:	68d9      	ldr	r1, [r3, #12]
 80024b8:	4293      	cmp	r3, r2
 80024ba:	f400 70c0 	and.w	r0, r0, #384	; 0x180
 80024be:	f401 6140 	and.w	r1, r1, #3072	; 0xc00
 80024c2:	d104      	bne.n	80024ce <HAL_ADC_IRQHandler+0xe2>
 80024c4:	b11f      	cbz	r7, 80024ce <HAL_ADC_IRQHandler+0xe2>
 80024c6:	1fba      	subs	r2, r7, #6
 80024c8:	2a01      	cmp	r2, #1
 80024ca:	f200 8085 	bhi.w	80025d8 <HAL_ADC_IRQHandler+0x1ec>
 80024ce:	68da      	ldr	r2, [r3, #12]
 80024d0:	b120      	cbz	r0, 80024dc <HAL_ADC_IRQHandler+0xf0>
 80024d2:	0190      	lsls	r0, r2, #6
 80024d4:	d415      	bmi.n	8002502 <HAL_ADC_IRQHandler+0x116>
 80024d6:	b9a1      	cbnz	r1, 8002502 <HAL_ADC_IRQHandler+0x116>
 80024d8:	0491      	lsls	r1, r2, #18
 80024da:	d412      	bmi.n	8002502 <HAL_ADC_IRQHandler+0x116>
 80024dc:	6819      	ldr	r1, [r3, #0]
 80024de:	0648      	lsls	r0, r1, #25
 80024e0:	d50f      	bpl.n	8002502 <HAL_ADC_IRQHandler+0x116>
 80024e2:	0291      	lsls	r1, r2, #10
 80024e4:	d40d      	bmi.n	8002502 <HAL_ADC_IRQHandler+0x116>
 80024e6:	689a      	ldr	r2, [r3, #8]
 80024e8:	0712      	lsls	r2, r2, #28
 80024ea:	d479      	bmi.n	80025e0 <HAL_ADC_IRQHandler+0x1f4>
 80024ec:	685a      	ldr	r2, [r3, #4]
 80024ee:	f022 0260 	bic.w	r2, r2, #96	; 0x60
 80024f2:	605a      	str	r2, [r3, #4]
 80024f4:	6de3      	ldr	r3, [r4, #92]	; 0x5c
 80024f6:	f423 5380 	bic.w	r3, r3, #4096	; 0x1000
 80024fa:	65e3      	str	r3, [r4, #92]	; 0x5c
 80024fc:	6de3      	ldr	r3, [r4, #92]	; 0x5c
 80024fe:	05d8      	lsls	r0, r3, #23
 8002500:	d577      	bpl.n	80025f2 <HAL_ADC_IRQHandler+0x206>
 8002502:	4620      	mov	r0, r4
 8002504:	f000 fc1d 	bl	8002d42 <HAL_ADCEx_InjectedConvCpltCallback>
 8002508:	6823      	ldr	r3, [r4, #0]
 800250a:	2260      	movs	r2, #96	; 0x60
 800250c:	601a      	str	r2, [r3, #0]
 800250e:	0629      	lsls	r1, r5, #24
 8002510:	d50b      	bpl.n	800252a <HAL_ADC_IRQHandler+0x13e>
 8002512:	0632      	lsls	r2, r6, #24
 8002514:	d509      	bpl.n	800252a <HAL_ADC_IRQHandler+0x13e>
 8002516:	6de3      	ldr	r3, [r4, #92]	; 0x5c
 8002518:	f443 3380 	orr.w	r3, r3, #65536	; 0x10000
 800251c:	65e3      	str	r3, [r4, #92]	; 0x5c
 800251e:	4620      	mov	r0, r4
 8002520:	f7ff ff61 	bl	80023e6 <HAL_ADC_LevelOutOfWindowCallback>
 8002524:	6823      	ldr	r3, [r4, #0]
 8002526:	2280      	movs	r2, #128	; 0x80
 8002528:	601a      	str	r2, [r3, #0]
 800252a:	05eb      	lsls	r3, r5, #23
 800252c:	d50c      	bpl.n	8002548 <HAL_ADC_IRQHandler+0x15c>
 800252e:	05f0      	lsls	r0, r6, #23
 8002530:	d50a      	bpl.n	8002548 <HAL_ADC_IRQHandler+0x15c>
 8002532:	6de3      	ldr	r3, [r4, #92]	; 0x5c
 8002534:	f443 3300 	orr.w	r3, r3, #131072	; 0x20000
 8002538:	65e3      	str	r3, [r4, #92]	; 0x5c
 800253a:	4620      	mov	r0, r4
 800253c:	f000 fc03 	bl	8002d46 <HAL_ADCEx_LevelOutOfWindow2Callback>
 8002540:	6823      	ldr	r3, [r4, #0]
 8002542:	f44f 7280 	mov.w	r2, #256	; 0x100
 8002546:	601a      	str	r2, [r3, #0]
 8002548:	05a9      	lsls	r1, r5, #22
 800254a:	d50c      	bpl.n	8002566 <HAL_ADC_IRQHandler+0x17a>
 800254c:	05b2      	lsls	r2, r6, #22
 800254e:	d50a      	bpl.n	8002566 <HAL_ADC_IRQHandler+0x17a>
 8002550:	6de3      	ldr	r3, [r4, #92]	; 0x5c
 8002552:	f443 2380 	orr.w	r3, r3, #262144	; 0x40000
 8002556:	65e3      	str	r3, [r4, #92]	; 0x5c
 8002558:	4620      	mov	r0, r4
 800255a:	f000 fbf5 	bl	8002d48 <HAL_ADCEx_LevelOutOfWindow3Callback>
 800255e:	6823      	ldr	r3, [r4, #0]
 8002560:	f44f 7200 	mov.w	r2, #512	; 0x200
 8002564:	601a      	str	r2, [r3, #0]
 8002566:	06eb      	lsls	r3, r5, #27
 8002568:	d518      	bpl.n	800259c <HAL_ADC_IRQHandler+0x1b0>
 800256a:	06f0      	lsls	r0, r6, #27
 800256c:	d516      	bpl.n	800259c <HAL_ADC_IRQHandler+0x1b0>
 800256e:	6be3      	ldr	r3, [r4, #60]	; 0x3c
 8002570:	b133      	cbz	r3, 8002580 <HAL_ADC_IRQHandler+0x194>
 8002572:	2f00      	cmp	r7, #0
 8002574:	d042      	beq.n	80025fc <HAL_ADC_IRQHandler+0x210>
 8002576:	4b2a      	ldr	r3, [pc, #168]	; (8002620 <HAL_ADC_IRQHandler+0x234>)
 8002578:	689b      	ldr	r3, [r3, #8]
 800257a:	f413 4f60 	tst.w	r3, #57344	; 0xe000
 800257e:	d00a      	beq.n	8002596 <HAL_ADC_IRQHandler+0x1aa>
 8002580:	6de3      	ldr	r3, [r4, #92]	; 0x5c
 8002582:	f443 6380 	orr.w	r3, r3, #1024	; 0x400
 8002586:	65e3      	str	r3, [r4, #92]	; 0x5c
 8002588:	6e23      	ldr	r3, [r4, #96]	; 0x60
 800258a:	f043 0302 	orr.w	r3, r3, #2
 800258e:	6623      	str	r3, [r4, #96]	; 0x60
 8002590:	4620      	mov	r0, r4
 8002592:	f7ff ff29 	bl	80023e8 <HAL_ADC_ErrorCallback>
 8002596:	6823      	ldr	r3, [r4, #0]
 8002598:	2210      	movs	r2, #16
 800259a:	601a      	str	r2, [r3, #0]
 800259c:	0569      	lsls	r1, r5, #21
 800259e:	d53e      	bpl.n	800261e <HAL_ADC_IRQHandler+0x232>
 80025a0:	0572      	lsls	r2, r6, #21
 80025a2:	d53c      	bpl.n	800261e <HAL_ADC_IRQHandler+0x232>
 80025a4:	6de3      	ldr	r3, [r4, #92]	; 0x5c
 80025a6:	f443 4380 	orr.w	r3, r3, #16384	; 0x4000
 80025aa:	65e3      	str	r3, [r4, #92]	; 0x5c
 80025ac:	6e23      	ldr	r3, [r4, #96]	; 0x60
 80025ae:	f043 0308 	orr.w	r3, r3, #8
 80025b2:	6623      	str	r3, [r4, #96]	; 0x60
 80025b4:	6823      	ldr	r3, [r4, #0]
 80025b6:	f44f 6280 	mov.w	r2, #1024	; 0x400
 80025ba:	601a      	str	r2, [r3, #0]
 80025bc:	4620      	mov	r0, r4
 80025be:	e8bd 40f8 	ldmia.w	sp!, {r3, r4, r5, r6, r7, lr}
 80025c2:	f000 bbbf 	b.w	8002d44 <HAL_ADCEx_InjectedQueueOverflowCallback>
 80025c6:	6de3      	ldr	r3, [r4, #92]	; 0x5c
 80025c8:	f043 0310 	orr.w	r3, r3, #16
 80025cc:	65e3      	str	r3, [r4, #92]	; 0x5c
 80025ce:	6e23      	ldr	r3, [r4, #96]	; 0x60
 80025d0:	f043 0301 	orr.w	r3, r3, #1
 80025d4:	6623      	str	r3, [r4, #96]	; 0x60
 80025d6:	e756      	b.n	8002486 <HAL_ADC_IRQHandler+0x9a>
 80025d8:	f04f 42a0 	mov.w	r2, #1342177280	; 0x50000000
 80025dc:	68d2      	ldr	r2, [r2, #12]
 80025de:	e777      	b.n	80024d0 <HAL_ADC_IRQHandler+0xe4>
 80025e0:	6de3      	ldr	r3, [r4, #92]	; 0x5c
 80025e2:	f043 0310 	orr.w	r3, r3, #16
 80025e6:	65e3      	str	r3, [r4, #92]	; 0x5c
 80025e8:	6e23      	ldr	r3, [r4, #96]	; 0x60
 80025ea:	f043 0301 	orr.w	r3, r3, #1
 80025ee:	6623      	str	r3, [r4, #96]	; 0x60
 80025f0:	e787      	b.n	8002502 <HAL_ADC_IRQHandler+0x116>
 80025f2:	6de3      	ldr	r3, [r4, #92]	; 0x5c
 80025f4:	f043 0301 	orr.w	r3, r3, #1
 80025f8:	65e3      	str	r3, [r4, #92]	; 0x5c
 80025fa:	e782      	b.n	8002502 <HAL_ADC_IRQHandler+0x116>
 80025fc:	6823      	ldr	r3, [r4, #0]
 80025fe:	68db      	ldr	r3, [r3, #12]
 8002600:	f013 0f01 	tst.w	r3, #1
 8002604:	e7bb      	b.n	800257e <HAL_ADC_IRQHandler+0x192>
 8002606:	2f09      	cmp	r7, #9
 8002608:	d805      	bhi.n	8002616 <HAL_ADC_IRQHandler+0x22a>
 800260a:	f240 2321 	movw	r3, #545	; 0x221
 800260e:	40fb      	lsrs	r3, r7
 8002610:	07db      	lsls	r3, r3, #31
 8002612:	f53f af1d 	bmi.w	8002450 <HAL_ADC_IRQHandler+0x64>
 8002616:	f04f 43a0 	mov.w	r3, #1342177280	; 0x50000000
 800261a:	68db      	ldr	r3, [r3, #12]
 800261c:	e719      	b.n	8002452 <HAL_ADC_IRQHandler+0x66>
 800261e:	bdf8      	pop	{r3, r4, r5, r6, r7, pc}
 8002620:	50000300 	.word	0x50000300
 8002624:	50000100 	.word	0x50000100

08002628 <HAL_ADC_ConfigChannel>:
 8002628:	b5f7      	push	{r0, r1, r2, r4, r5, r6, r7, lr}
 800262a:	2300      	movs	r3, #0
 800262c:	9301      	str	r3, [sp, #4]
 800262e:	f890 3058 	ldrb.w	r3, [r0, #88]	; 0x58
 8002632:	2b01      	cmp	r3, #1
 8002634:	4605      	mov	r5, r0
 8002636:	460c      	mov	r4, r1
 8002638:	f000 8175 	beq.w	8002926 <HAL_ADC_ConfigChannel+0x2fe>
 800263c:	2301      	movs	r3, #1
 800263e:	f880 3058 	strb.w	r3, [r0, #88]	; 0x58
 8002642:	6800      	ldr	r0, [r0, #0]
 8002644:	f7ff fdd5 	bl	80021f2 <LL_ADC_REG_IsConversionOngoing>
 8002648:	2800      	cmp	r0, #0
 800264a:	f040 8166 	bne.w	800291a <HAL_ADC_ConfigChannel+0x2f2>
 800264e:	684a      	ldr	r2, [r1, #4]
 8002650:	6828      	ldr	r0, [r5, #0]
 8002652:	6823      	ldr	r3, [r4, #0]
 8002654:	0991      	lsrs	r1, r2, #6
 8002656:	f001 010c 	and.w	r1, r1, #12
 800265a:	f100 0730 	add.w	r7, r0, #48	; 0x30
 800265e:	f002 021f 	and.w	r2, r2, #31
 8002662:	59ce      	ldr	r6, [r1, r7]
 8002664:	f04f 0c1f 	mov.w	ip, #31
 8002668:	f3c3 6384 	ubfx	r3, r3, #26, #5
 800266c:	4093      	lsls	r3, r2
 800266e:	fa0c f202 	lsl.w	r2, ip, r2
 8002672:	ea26 0202 	bic.w	r2, r6, r2
 8002676:	4313      	orrs	r3, r2
 8002678:	51cb      	str	r3, [r1, r7]
 800267a:	f7ff fdba 	bl	80021f2 <LL_ADC_REG_IsConversionOngoing>
 800267e:	4603      	mov	r3, r0
 8002680:	6828      	ldr	r0, [r5, #0]
 8002682:	6886      	ldr	r6, [r0, #8]
 8002684:	f016 0608 	ands.w	r6, r6, #8
 8002688:	f000 8166 	beq.w	8002958 <HAL_ADC_ConfigChannel+0x330>
 800268c:	6828      	ldr	r0, [r5, #0]
 800268e:	f7ff fdac 	bl	80021ea <LL_ADC_IsEnabled>
 8002692:	2800      	cmp	r0, #0
 8002694:	f040 80c9 	bne.w	800282a <HAL_ADC_ConfigChannel+0x202>
 8002698:	68e6      	ldr	r6, [r4, #12]
 800269a:	6828      	ldr	r0, [r5, #0]
 800269c:	6823      	ldr	r3, [r4, #0]
 800269e:	4aa3      	ldr	r2, [pc, #652]	; (800292c <HAL_ADC_ConfigChannel+0x304>)
 80026a0:	f8d0 10b0 	ldr.w	r1, [r0, #176]	; 0xb0
 80026a4:	f006 0c18 	and.w	ip, r6, #24
 80026a8:	f3c3 0712 	ubfx	r7, r3, #0, #19
 80026ac:	fa22 f20c 	lsr.w	r2, r2, ip
 80026b0:	401a      	ands	r2, r3
 80026b2:	ea21 0107 	bic.w	r1, r1, r7
 80026b6:	430a      	orrs	r2, r1
 80026b8:	f8c0 20b0 	str.w	r2, [r0, #176]	; 0xb0
 80026bc:	4a9c      	ldr	r2, [pc, #624]	; (8002930 <HAL_ADC_ConfigChannel+0x308>)
 80026be:	4296      	cmp	r6, r2
 80026c0:	f040 80b3 	bne.w	800282a <HAL_ADC_ConfigChannel+0x202>
 80026c4:	2f00      	cmp	r7, #0
 80026c6:	f040 8089 	bne.w	80027dc <HAL_ADC_ConfigChannel+0x1b4>
 80026ca:	0e9a      	lsrs	r2, r3, #26
 80026cc:	3201      	adds	r2, #1
 80026ce:	f002 061f 	and.w	r6, r2, #31
 80026d2:	0692      	lsls	r2, r2, #26
 80026d4:	f002 41f8 	and.w	r1, r2, #2080374784	; 0x7c000000
 80026d8:	2e09      	cmp	r6, #9
 80026da:	f04f 0201 	mov.w	r2, #1
 80026de:	fa02 f206 	lsl.w	r2, r2, r6
 80026e2:	f240 8095 	bls.w	8002810 <HAL_ADC_ConfigChannel+0x1e8>
 80026e6:	430a      	orrs	r2, r1
 80026e8:	2f00      	cmp	r7, #0
 80026ea:	f040 80bf 	bne.w	800286c <HAL_ADC_ConfigChannel+0x244>
 80026ee:	0e9b      	lsrs	r3, r3, #26
 80026f0:	3301      	adds	r3, #1
 80026f2:	f003 031f 	and.w	r3, r3, #31
 80026f6:	eb03 0143 	add.w	r1, r3, r3, lsl #1
 80026fa:	391e      	subs	r1, #30
 80026fc:	0509      	lsls	r1, r1, #20
 80026fe:	f041 7100 	orr.w	r1, r1, #33554432	; 0x2000000
 8002702:	4311      	orrs	r1, r2
 8002704:	e08e      	b.n	8002824 <HAL_ADC_ConfigChannel+0x1fc>
 8002706:	f7ff fd5f 	bl	80021c8 <LL_ADC_SetChannelSamplingTime>
 800270a:	682a      	ldr	r2, [r5, #0]
 800270c:	6953      	ldr	r3, [r2, #20]
 800270e:	f023 4300 	bic.w	r3, r3, #2147483648	; 0x80000000
 8002712:	e131      	b.n	8002978 <HAL_ADC_ConfigChannel+0x350>
 8002714:	6e01      	ldr	r1, [r0, #96]	; 0x60
 8002716:	6e01      	ldr	r1, [r0, #96]	; 0x60
 8002718:	f3c2 0612 	ubfx	r6, r2, #0, #19
 800271c:	f3c1 6184 	ubfx	r1, r1, #26, #5
 8002720:	2e00      	cmp	r6, #0
 8002722:	d13c      	bne.n	800279e <HAL_ADC_ConfigChannel+0x176>
 8002724:	f3c2 6284 	ubfx	r2, r2, #26, #5
 8002728:	4291      	cmp	r1, r2
 800272a:	bf02      	ittt	eq
 800272c:	6e02      	ldreq	r2, [r0, #96]	; 0x60
 800272e:	f022 4200 	biceq.w	r2, r2, #2147483648	; 0x80000000
 8002732:	6602      	streq	r2, [r0, #96]	; 0x60
 8002734:	685a      	ldr	r2, [r3, #4]
 8002736:	6822      	ldr	r2, [r4, #0]
 8002738:	6859      	ldr	r1, [r3, #4]
 800273a:	f3c2 0612 	ubfx	r6, r2, #0, #19
 800273e:	f3c1 6184 	ubfx	r1, r1, #26, #5
 8002742:	f103 000c 	add.w	r0, r3, #12
 8002746:	bb7e      	cbnz	r6, 80027a8 <HAL_ADC_ConfigChannel+0x180>
 8002748:	f3c2 6684 	ubfx	r6, r2, #26, #5
 800274c:	42b1      	cmp	r1, r6
 800274e:	f040 8147 	bne.w	80029e0 <HAL_ADC_ConfigChannel+0x3b8>
 8002752:	685a      	ldr	r2, [r3, #4]
 8002754:	f022 4200 	bic.w	r2, r2, #2147483648	; 0x80000000
 8002758:	605a      	str	r2, [r3, #4]
 800275a:	689a      	ldr	r2, [r3, #8]
 800275c:	6822      	ldr	r2, [r4, #0]
 800275e:	6899      	ldr	r1, [r3, #8]
 8002760:	f3c2 0612 	ubfx	r6, r2, #0, #19
 8002764:	f3c1 6184 	ubfx	r1, r1, #26, #5
 8002768:	bb46      	cbnz	r6, 80027bc <HAL_ADC_ConfigChannel+0x194>
 800276a:	f3c2 6284 	ubfx	r2, r2, #26, #5
 800276e:	428a      	cmp	r2, r1
 8002770:	f040 813b 	bne.w	80029ea <HAL_ADC_ConfigChannel+0x3c2>
 8002774:	689a      	ldr	r2, [r3, #8]
 8002776:	f022 4200 	bic.w	r2, r2, #2147483648	; 0x80000000
 800277a:	609a      	str	r2, [r3, #8]
 800277c:	68da      	ldr	r2, [r3, #12]
 800277e:	68da      	ldr	r2, [r3, #12]
 8002780:	6823      	ldr	r3, [r4, #0]
 8002782:	f3c3 0112 	ubfx	r1, r3, #0, #19
 8002786:	f3c2 6284 	ubfx	r2, r2, #26, #5
 800278a:	bb11      	cbnz	r1, 80027d2 <HAL_ADC_ConfigChannel+0x1aa>
 800278c:	f3c3 6384 	ubfx	r3, r3, #26, #5
 8002790:	429a      	cmp	r2, r3
 8002792:	bf02      	ittt	eq
 8002794:	6803      	ldreq	r3, [r0, #0]
 8002796:	f023 4300 	biceq.w	r3, r3, #2147483648	; 0x80000000
 800279a:	6003      	streq	r3, [r0, #0]
 800279c:	e776      	b.n	800268c <HAL_ADC_ConfigChannel+0x64>
 800279e:	fa92 f2a2 	rbit	r2, r2
 80027a2:	fab2 f282 	clz	r2, r2
 80027a6:	e7bf      	b.n	8002728 <HAL_ADC_ConfigChannel+0x100>
 80027a8:	fa92 f6a2 	rbit	r6, r2
 80027ac:	fab6 f686 	clz	r6, r6
 80027b0:	42b1      	cmp	r1, r6
 80027b2:	d0ce      	beq.n	8002752 <HAL_ADC_ConfigChannel+0x12a>
 80027b4:	6899      	ldr	r1, [r3, #8]
 80027b6:	6899      	ldr	r1, [r3, #8]
 80027b8:	f3c1 6184 	ubfx	r1, r1, #26, #5
 80027bc:	fa92 f2a2 	rbit	r2, r2
 80027c0:	fab2 f282 	clz	r2, r2
 80027c4:	428a      	cmp	r2, r1
 80027c6:	d0d5      	beq.n	8002774 <HAL_ADC_ConfigChannel+0x14c>
 80027c8:	68da      	ldr	r2, [r3, #12]
 80027ca:	68da      	ldr	r2, [r3, #12]
 80027cc:	6823      	ldr	r3, [r4, #0]
 80027ce:	f3c2 6284 	ubfx	r2, r2, #26, #5
 80027d2:	fa93 f3a3 	rbit	r3, r3
 80027d6:	fab3 f383 	clz	r3, r3
 80027da:	e7d9      	b.n	8002790 <HAL_ADC_ConfigChannel+0x168>
 80027dc:	fa93 f2a3 	rbit	r2, r3
 80027e0:	fab2 f282 	clz	r2, r2
 80027e4:	3201      	adds	r2, #1
 80027e6:	f002 021f 	and.w	r2, r2, #31
 80027ea:	2a09      	cmp	r2, #9
 80027ec:	d82c      	bhi.n	8002848 <HAL_ADC_ConfigChannel+0x220>
 80027ee:	fa93 f1a3 	rbit	r1, r3
 80027f2:	fab1 f181 	clz	r1, r1
 80027f6:	3101      	adds	r1, #1
 80027f8:	0689      	lsls	r1, r1, #26
 80027fa:	f001 41f8 	and.w	r1, r1, #2080374784	; 0x7c000000
 80027fe:	fa93 f2a3 	rbit	r2, r3
 8002802:	fab2 f282 	clz	r2, r2
 8002806:	3201      	adds	r2, #1
 8002808:	f002 061f 	and.w	r6, r2, #31
 800280c:	2201      	movs	r2, #1
 800280e:	40b2      	lsls	r2, r6
 8002810:	4311      	orrs	r1, r2
 8002812:	b9a7      	cbnz	r7, 800283e <HAL_ADC_ConfigChannel+0x216>
 8002814:	0e9b      	lsrs	r3, r3, #26
 8002816:	3301      	adds	r3, #1
 8002818:	f003 031f 	and.w	r3, r3, #31
 800281c:	eb03 0343 	add.w	r3, r3, r3, lsl #1
 8002820:	051b      	lsls	r3, r3, #20
 8002822:	4319      	orrs	r1, r3
 8002824:	68a2      	ldr	r2, [r4, #8]
 8002826:	f7ff fccf 	bl	80021c8 <LL_ADC_SetChannelSamplingTime>
 800282a:	6822      	ldr	r2, [r4, #0]
 800282c:	4b41      	ldr	r3, [pc, #260]	; (8002934 <HAL_ADC_ConfigChannel+0x30c>)
 800282e:	421a      	tst	r2, r3
 8002830:	d128      	bne.n	8002884 <HAL_ADC_ConfigChannel+0x25c>
 8002832:	2000      	movs	r0, #0
 8002834:	2300      	movs	r3, #0
 8002836:	f885 3058 	strb.w	r3, [r5, #88]	; 0x58
 800283a:	b003      	add	sp, #12
 800283c:	bdf0      	pop	{r4, r5, r6, r7, pc}
 800283e:	fa93 f3a3 	rbit	r3, r3
 8002842:	fab3 f383 	clz	r3, r3
 8002846:	e7e6      	b.n	8002816 <HAL_ADC_ConfigChannel+0x1ee>
 8002848:	fa93 f1a3 	rbit	r1, r3
 800284c:	fab1 f181 	clz	r1, r1
 8002850:	3101      	adds	r1, #1
 8002852:	0689      	lsls	r1, r1, #26
 8002854:	f001 41f8 	and.w	r1, r1, #2080374784	; 0x7c000000
 8002858:	fa93 f2a3 	rbit	r2, r3
 800285c:	fab2 f282 	clz	r2, r2
 8002860:	3201      	adds	r2, #1
 8002862:	f002 061f 	and.w	r6, r2, #31
 8002866:	2201      	movs	r2, #1
 8002868:	40b2      	lsls	r2, r6
 800286a:	e73c      	b.n	80026e6 <HAL_ADC_ConfigChannel+0xbe>
 800286c:	fa93 f3a3 	rbit	r3, r3
 8002870:	fab3 f383 	clz	r3, r3
 8002874:	3301      	adds	r3, #1
 8002876:	f003 031f 	and.w	r3, r3, #31
 800287a:	eb03 0343 	add.w	r3, r3, r3, lsl #1
 800287e:	f1a3 011e 	sub.w	r1, r3, #30
 8002882:	e73b      	b.n	80026fc <HAL_ADC_ConfigChannel+0xd4>
 8002884:	4b2c      	ldr	r3, [pc, #176]	; (8002938 <HAL_ADC_ConfigChannel+0x310>)
 8002886:	6898      	ldr	r0, [r3, #8]
 8002888:	4b2c      	ldr	r3, [pc, #176]	; (800293c <HAL_ADC_ConfigChannel+0x314>)
 800288a:	429a      	cmp	r2, r3
 800288c:	f000 71e0 	and.w	r1, r0, #29360128	; 0x1c00000
 8002890:	d002      	beq.n	8002898 <HAL_ADC_ConfigChannel+0x270>
 8002892:	4b2b      	ldr	r3, [pc, #172]	; (8002940 <HAL_ADC_ConfigChannel+0x318>)
 8002894:	429a      	cmp	r2, r3
 8002896:	d11b      	bne.n	80028d0 <HAL_ADC_ConfigChannel+0x2a8>
 8002898:	0203      	lsls	r3, r0, #8
 800289a:	d419      	bmi.n	80028d0 <HAL_ADC_ConfigChannel+0x2a8>
 800289c:	682b      	ldr	r3, [r5, #0]
 800289e:	f1b3 4fa0 	cmp.w	r3, #1342177280	; 0x50000000
 80028a2:	d1c6      	bne.n	8002832 <HAL_ADC_ConfigChannel+0x20a>
 80028a4:	4a24      	ldr	r2, [pc, #144]	; (8002938 <HAL_ADC_ConfigChannel+0x310>)
 80028a6:	6893      	ldr	r3, [r2, #8]
 80028a8:	f023 73e0 	bic.w	r3, r3, #29360128	; 0x1c00000
 80028ac:	430b      	orrs	r3, r1
 80028ae:	f443 0300 	orr.w	r3, r3, #8388608	; 0x800000
 80028b2:	6093      	str	r3, [r2, #8]
 80028b4:	4b23      	ldr	r3, [pc, #140]	; (8002944 <HAL_ADC_ConfigChannel+0x31c>)
 80028b6:	4a24      	ldr	r2, [pc, #144]	; (8002948 <HAL_ADC_ConfigChannel+0x320>)
 80028b8:	681b      	ldr	r3, [r3, #0]
 80028ba:	fbb3 f2f2 	udiv	r2, r3, r2
 80028be:	230c      	movs	r3, #12
 80028c0:	4353      	muls	r3, r2
 80028c2:	9301      	str	r3, [sp, #4]
 80028c4:	9b01      	ldr	r3, [sp, #4]
 80028c6:	2b00      	cmp	r3, #0
 80028c8:	d0b3      	beq.n	8002832 <HAL_ADC_ConfigChannel+0x20a>
 80028ca:	9b01      	ldr	r3, [sp, #4]
 80028cc:	3b01      	subs	r3, #1
 80028ce:	e7f8      	b.n	80028c2 <HAL_ADC_ConfigChannel+0x29a>
 80028d0:	4b1e      	ldr	r3, [pc, #120]	; (800294c <HAL_ADC_ConfigChannel+0x324>)
 80028d2:	429a      	cmp	r2, r3
 80028d4:	d10f      	bne.n	80028f6 <HAL_ADC_ConfigChannel+0x2ce>
 80028d6:	f010 7080 	ands.w	r0, r0, #16777216	; 0x1000000
 80028da:	d1aa      	bne.n	8002832 <HAL_ADC_ConfigChannel+0x20a>
 80028dc:	682a      	ldr	r2, [r5, #0]
 80028de:	4b1c      	ldr	r3, [pc, #112]	; (8002950 <HAL_ADC_ConfigChannel+0x328>)
 80028e0:	429a      	cmp	r2, r3
 80028e2:	d0a6      	beq.n	8002832 <HAL_ADC_ConfigChannel+0x20a>
 80028e4:	4a14      	ldr	r2, [pc, #80]	; (8002938 <HAL_ADC_ConfigChannel+0x310>)
 80028e6:	6893      	ldr	r3, [r2, #8]
 80028e8:	f023 73e0 	bic.w	r3, r3, #29360128	; 0x1c00000
 80028ec:	430b      	orrs	r3, r1
 80028ee:	f043 7380 	orr.w	r3, r3, #16777216	; 0x1000000
 80028f2:	6093      	str	r3, [r2, #8]
 80028f4:	e79e      	b.n	8002834 <HAL_ADC_ConfigChannel+0x20c>
 80028f6:	4b17      	ldr	r3, [pc, #92]	; (8002954 <HAL_ADC_ConfigChannel+0x32c>)
 80028f8:	429a      	cmp	r2, r3
 80028fa:	d19a      	bne.n	8002832 <HAL_ADC_ConfigChannel+0x20a>
 80028fc:	f410 0080 	ands.w	r0, r0, #4194304	; 0x400000
 8002900:	d197      	bne.n	8002832 <HAL_ADC_ConfigChannel+0x20a>
 8002902:	682a      	ldr	r2, [r5, #0]
 8002904:	4b12      	ldr	r3, [pc, #72]	; (8002950 <HAL_ADC_ConfigChannel+0x328>)
 8002906:	429a      	cmp	r2, r3
 8002908:	d093      	beq.n	8002832 <HAL_ADC_ConfigChannel+0x20a>
 800290a:	4a0b      	ldr	r2, [pc, #44]	; (8002938 <HAL_ADC_ConfigChannel+0x310>)
 800290c:	6893      	ldr	r3, [r2, #8]
 800290e:	f023 73e0 	bic.w	r3, r3, #29360128	; 0x1c00000
 8002912:	430b      	orrs	r3, r1
 8002914:	f443 0380 	orr.w	r3, r3, #4194304	; 0x400000
 8002918:	e7eb      	b.n	80028f2 <HAL_ADC_ConfigChannel+0x2ca>
 800291a:	6dea      	ldr	r2, [r5, #92]	; 0x5c
 800291c:	f042 0220 	orr.w	r2, r2, #32
 8002920:	65ea      	str	r2, [r5, #92]	; 0x5c
 8002922:	4618      	mov	r0, r3
 8002924:	e786      	b.n	8002834 <HAL_ADC_ConfigChannel+0x20c>
 8002926:	2002      	movs	r0, #2
 8002928:	e787      	b.n	800283a <HAL_ADC_ConfigChannel+0x212>
 800292a:	bf00      	nop
 800292c:	0007ffff 	.word	0x0007ffff
 8002930:	407f0000 	.word	0x407f0000
 8002934:	80080000 	.word	0x80080000
 8002938:	50000300 	.word	0x50000300
 800293c:	c3210000 	.word	0xc3210000
 8002940:	90c00010 	.word	0x90c00010
 8002944:	200000a4 	.word	0x200000a4
 8002948:	00030d40 	.word	0x00030d40
 800294c:	c7520000 	.word	0xc7520000
 8002950:	50000100 	.word	0x50000100
 8002954:	cb840000 	.word	0xcb840000
 8002958:	2b00      	cmp	r3, #0
 800295a:	f47f ae97 	bne.w	800268c <HAL_ADC_ConfigChannel+0x64>
 800295e:	68a2      	ldr	r2, [r4, #8]
 8002960:	6821      	ldr	r1, [r4, #0]
 8002962:	f1b2 4f00 	cmp.w	r2, #2147483648	; 0x80000000
 8002966:	f47f aece 	bne.w	8002706 <HAL_ADC_ConfigChannel+0xde>
 800296a:	4632      	mov	r2, r6
 800296c:	f7ff fc2c 	bl	80021c8 <LL_ADC_SetChannelSamplingTime>
 8002970:	682a      	ldr	r2, [r5, #0]
 8002972:	6953      	ldr	r3, [r2, #20]
 8002974:	f043 4300 	orr.w	r3, r3, #2147483648	; 0x80000000
 8002978:	6153      	str	r3, [r2, #20]
 800297a:	6927      	ldr	r7, [r4, #16]
 800297c:	6828      	ldr	r0, [r5, #0]
 800297e:	6822      	ldr	r2, [r4, #0]
 8002980:	68c1      	ldr	r1, [r0, #12]
 8002982:	2f04      	cmp	r7, #4
 8002984:	f100 0360 	add.w	r3, r0, #96	; 0x60
 8002988:	f43f aec4 	beq.w	8002714 <HAL_ADC_ConfigChannel+0xec>
 800298c:	f3c1 01c1 	ubfx	r1, r1, #3, #2
 8002990:	ea4f 0c41 	mov.w	ip, r1, lsl #1
 8002994:	6961      	ldr	r1, [r4, #20]
 8002996:	f853 0027 	ldr.w	r0, [r3, r7, lsl #2]
 800299a:	f002 42f8 	and.w	r2, r2, #2080374784	; 0x7c000000
 800299e:	fa01 f10c 	lsl.w	r1, r1, ip
 80029a2:	f042 4200 	orr.w	r2, r2, #2147483648	; 0x80000000
 80029a6:	430a      	orrs	r2, r1
 80029a8:	4913      	ldr	r1, [pc, #76]	; (80029f8 <HAL_ADC_ConfigChannel+0x3d0>)
 80029aa:	4001      	ands	r1, r0
 80029ac:	430a      	orrs	r2, r1
 80029ae:	f843 2027 	str.w	r2, [r3, r7, lsl #2]
 80029b2:	6921      	ldr	r1, [r4, #16]
 80029b4:	69a0      	ldr	r0, [r4, #24]
 80029b6:	f853 2021 	ldr.w	r2, [r3, r1, lsl #2]
 80029ba:	f022 7280 	bic.w	r2, r2, #16777216	; 0x1000000
 80029be:	4302      	orrs	r2, r0
 80029c0:	f843 2021 	str.w	r2, [r3, r1, lsl #2]
 80029c4:	7f22      	ldrb	r2, [r4, #28]
 80029c6:	6921      	ldr	r1, [r4, #16]
 80029c8:	2a01      	cmp	r2, #1
 80029ca:	f853 2021 	ldr.w	r2, [r3, r1, lsl #2]
 80029ce:	bf08      	it	eq
 80029d0:	f04f 7600 	moveq.w	r6, #33554432	; 0x2000000
 80029d4:	f022 7200 	bic.w	r2, r2, #33554432	; 0x2000000
 80029d8:	4316      	orrs	r6, r2
 80029da:	f843 6021 	str.w	r6, [r3, r1, lsl #2]
 80029de:	e655      	b.n	800268c <HAL_ADC_ConfigChannel+0x64>
 80029e0:	6899      	ldr	r1, [r3, #8]
 80029e2:	6899      	ldr	r1, [r3, #8]
 80029e4:	f3c1 6184 	ubfx	r1, r1, #26, #5
 80029e8:	e6bf      	b.n	800276a <HAL_ADC_ConfigChannel+0x142>
 80029ea:	68da      	ldr	r2, [r3, #12]
 80029ec:	68da      	ldr	r2, [r3, #12]
 80029ee:	6823      	ldr	r3, [r4, #0]
 80029f0:	f3c2 6284 	ubfx	r2, r2, #26, #5
 80029f4:	e6ca      	b.n	800278c <HAL_ADC_ConfigChannel+0x164>
 80029f6:	bf00      	nop
 80029f8:	03fff000 	.word	0x03fff000

080029fc <ADC_ConversionStop>:
 80029fc:	b570      	push	{r4, r5, r6, lr}
 80029fe:	4604      	mov	r4, r0
 8002a00:	6800      	ldr	r0, [r0, #0]
 8002a02:	f7ff fbf6 	bl	80021f2 <LL_ADC_REG_IsConversionOngoing>
 8002a06:	6823      	ldr	r3, [r4, #0]
 8002a08:	689a      	ldr	r2, [r3, #8]
 8002a0a:	0716      	lsls	r6, r2, #28
 8002a0c:	d556      	bpl.n	8002abc <ADC_ConversionStop+0xc0>
 8002a0e:	68da      	ldr	r2, [r3, #12]
 8002a10:	0190      	lsls	r0, r2, #6
 8002a12:	d52b      	bpl.n	8002a6c <ADC_ConversionStop+0x70>
 8002a14:	8ba0      	ldrh	r0, [r4, #28]
 8002a16:	f240 1201 	movw	r2, #257	; 0x101
 8002a1a:	4290      	cmp	r0, r2
 8002a1c:	d126      	bne.n	8002a6c <ADC_ConversionStop+0x70>
 8002a1e:	4a29      	ldr	r2, [pc, #164]	; (8002ac4 <ADC_ConversionStop+0xc8>)
 8002a20:	6819      	ldr	r1, [r3, #0]
 8002a22:	0649      	lsls	r1, r1, #25
 8002a24:	d516      	bpl.n	8002a54 <ADC_ConversionStop+0x58>
 8002a26:	2240      	movs	r2, #64	; 0x40
 8002a28:	601a      	str	r2, [r3, #0]
 8002a2a:	2101      	movs	r1, #1
 8002a2c:	4618      	mov	r0, r3
 8002a2e:	f7ff fbe0 	bl	80021f2 <LL_ADC_REG_IsConversionOngoing>
 8002a32:	b158      	cbz	r0, 8002a4c <ADC_ConversionStop+0x50>
 8002a34:	6822      	ldr	r2, [r4, #0]
 8002a36:	6893      	ldr	r3, [r2, #8]
 8002a38:	079e      	lsls	r6, r3, #30
 8002a3a:	d407      	bmi.n	8002a4c <ADC_ConversionStop+0x50>
 8002a3c:	6893      	ldr	r3, [r2, #8]
 8002a3e:	f023 4300 	bic.w	r3, r3, #2147483648	; 0x80000000
 8002a42:	f023 033f 	bic.w	r3, r3, #63	; 0x3f
 8002a46:	f043 0310 	orr.w	r3, r3, #16
 8002a4a:	6093      	str	r3, [r2, #8]
 8002a4c:	2901      	cmp	r1, #1
 8002a4e:	d10f      	bne.n	8002a70 <ADC_ConversionStop+0x74>
 8002a50:	2504      	movs	r5, #4
 8002a52:	e022      	b.n	8002a9a <ADC_ConversionStop+0x9e>
 8002a54:	3a01      	subs	r2, #1
 8002a56:	d1e3      	bne.n	8002a20 <ADC_ConversionStop+0x24>
 8002a58:	6de3      	ldr	r3, [r4, #92]	; 0x5c
 8002a5a:	f043 0310 	orr.w	r3, r3, #16
 8002a5e:	65e3      	str	r3, [r4, #92]	; 0x5c
 8002a60:	6e23      	ldr	r3, [r4, #96]	; 0x60
 8002a62:	f043 0301 	orr.w	r3, r3, #1
 8002a66:	6623      	str	r3, [r4, #96]	; 0x60
 8002a68:	2001      	movs	r0, #1
 8002a6a:	bd70      	pop	{r4, r5, r6, pc}
 8002a6c:	2902      	cmp	r1, #2
 8002a6e:	d1dd      	bne.n	8002a2c <ADC_ConversionStop+0x30>
 8002a70:	6822      	ldr	r2, [r4, #0]
 8002a72:	6893      	ldr	r3, [r2, #8]
 8002a74:	0718      	lsls	r0, r3, #28
 8002a76:	d50a      	bpl.n	8002a8e <ADC_ConversionStop+0x92>
 8002a78:	6893      	ldr	r3, [r2, #8]
 8002a7a:	079b      	lsls	r3, r3, #30
 8002a7c:	d407      	bmi.n	8002a8e <ADC_ConversionStop+0x92>
 8002a7e:	6893      	ldr	r3, [r2, #8]
 8002a80:	f023 4300 	bic.w	r3, r3, #2147483648	; 0x80000000
 8002a84:	f023 033f 	bic.w	r3, r3, #63	; 0x3f
 8002a88:	f043 0320 	orr.w	r3, r3, #32
 8002a8c:	6093      	str	r3, [r2, #8]
 8002a8e:	2902      	cmp	r1, #2
 8002a90:	d00c      	beq.n	8002aac <ADC_ConversionStop+0xb0>
 8002a92:	2903      	cmp	r1, #3
 8002a94:	bf0c      	ite	eq
 8002a96:	250c      	moveq	r5, #12
 8002a98:	2504      	movne	r5, #4
 8002a9a:	f7ff fb8f 	bl	80021bc <HAL_GetTick>
 8002a9e:	4606      	mov	r6, r0
 8002aa0:	6823      	ldr	r3, [r4, #0]
 8002aa2:	689b      	ldr	r3, [r3, #8]
 8002aa4:	422b      	tst	r3, r5
 8002aa6:	d103      	bne.n	8002ab0 <ADC_ConversionStop+0xb4>
 8002aa8:	2000      	movs	r0, #0
 8002aaa:	e7de      	b.n	8002a6a <ADC_ConversionStop+0x6e>
 8002aac:	2508      	movs	r5, #8
 8002aae:	e7f4      	b.n	8002a9a <ADC_ConversionStop+0x9e>
 8002ab0:	f7ff fb84 	bl	80021bc <HAL_GetTick>
 8002ab4:	1b80      	subs	r0, r0, r6
 8002ab6:	2805      	cmp	r0, #5
 8002ab8:	d9f2      	bls.n	8002aa0 <ADC_ConversionStop+0xa4>
 8002aba:	e7cd      	b.n	8002a58 <ADC_ConversionStop+0x5c>
 8002abc:	2800      	cmp	r0, #0
 8002abe:	d1a6      	bne.n	8002a0e <ADC_ConversionStop+0x12>
 8002ac0:	e7f2      	b.n	8002aa8 <ADC_ConversionStop+0xac>
 8002ac2:	bf00      	nop
 8002ac4:	a3400001 	.word	0xa3400001

08002ac8 <ADC_Enable>:
 8002ac8:	b570      	push	{r4, r5, r6, lr}
 8002aca:	4604      	mov	r4, r0
 8002acc:	6800      	ldr	r0, [r0, #0]
 8002ace:	f7ff fb8c 	bl	80021ea <LL_ADC_IsEnabled>
 8002ad2:	b108      	cbz	r0, 8002ad8 <ADC_Enable+0x10>
 8002ad4:	2000      	movs	r0, #0
 8002ad6:	bd70      	pop	{r4, r5, r6, pc}
 8002ad8:	6822      	ldr	r2, [r4, #0]
 8002ada:	4b15      	ldr	r3, [pc, #84]	; (8002b30 <ADC_Enable+0x68>)
 8002adc:	6891      	ldr	r1, [r2, #8]
 8002ade:	4219      	tst	r1, r3
 8002ae0:	d009      	beq.n	8002af6 <ADC_Enable+0x2e>
 8002ae2:	6de3      	ldr	r3, [r4, #92]	; 0x5c
 8002ae4:	f043 0310 	orr.w	r3, r3, #16
 8002ae8:	65e3      	str	r3, [r4, #92]	; 0x5c
 8002aea:	6e23      	ldr	r3, [r4, #96]	; 0x60
 8002aec:	f043 0301 	orr.w	r3, r3, #1
 8002af0:	6623      	str	r3, [r4, #96]	; 0x60
 8002af2:	2001      	movs	r0, #1
 8002af4:	e7ef      	b.n	8002ad6 <ADC_Enable+0xe>
 8002af6:	6893      	ldr	r3, [r2, #8]
 8002af8:	4d0e      	ldr	r5, [pc, #56]	; (8002b34 <ADC_Enable+0x6c>)
 8002afa:	402b      	ands	r3, r5
 8002afc:	f043 0301 	orr.w	r3, r3, #1
 8002b00:	6093      	str	r3, [r2, #8]
 8002b02:	f7ff fb5b 	bl	80021bc <HAL_GetTick>
 8002b06:	4606      	mov	r6, r0
 8002b08:	6820      	ldr	r0, [r4, #0]
 8002b0a:	6803      	ldr	r3, [r0, #0]
 8002b0c:	07db      	lsls	r3, r3, #31
 8002b0e:	d4e1      	bmi.n	8002ad4 <ADC_Enable+0xc>
 8002b10:	f7ff fb6b 	bl	80021ea <LL_ADC_IsEnabled>
 8002b14:	b928      	cbnz	r0, 8002b22 <ADC_Enable+0x5a>
 8002b16:	6822      	ldr	r2, [r4, #0]
 8002b18:	6893      	ldr	r3, [r2, #8]
 8002b1a:	402b      	ands	r3, r5
 8002b1c:	f043 0301 	orr.w	r3, r3, #1
 8002b20:	6093      	str	r3, [r2, #8]
 8002b22:	f7ff fb4b 	bl	80021bc <HAL_GetTick>
 8002b26:	1b80      	subs	r0, r0, r6
 8002b28:	2802      	cmp	r0, #2
 8002b2a:	d9ed      	bls.n	8002b08 <ADC_Enable+0x40>
 8002b2c:	e7d9      	b.n	8002ae2 <ADC_Enable+0x1a>
 8002b2e:	bf00      	nop
 8002b30:	8000003f 	.word	0x8000003f
 8002b34:	7fffffc0 	.word	0x7fffffc0

08002b38 <HAL_ADC_Start_IT>:
 8002b38:	4b50      	ldr	r3, [pc, #320]	; (8002c7c <HAL_ADC_Start_IT+0x144>)
 8002b3a:	b570      	push	{r4, r5, r6, lr}
 8002b3c:	4604      	mov	r4, r0
 8002b3e:	6800      	ldr	r0, [r0, #0]
 8002b40:	689e      	ldr	r6, [r3, #8]
 8002b42:	f7ff fb56 	bl	80021f2 <LL_ADC_REG_IsConversionOngoing>
 8002b46:	4605      	mov	r5, r0
 8002b48:	2800      	cmp	r0, #0
 8002b4a:	f040 808f 	bne.w	8002c6c <HAL_ADC_Start_IT+0x134>
 8002b4e:	f894 3058 	ldrb.w	r3, [r4, #88]	; 0x58
 8002b52:	2b01      	cmp	r3, #1
 8002b54:	f000 808a 	beq.w	8002c6c <HAL_ADC_Start_IT+0x134>
 8002b58:	2301      	movs	r3, #1
 8002b5a:	f884 3058 	strb.w	r3, [r4, #88]	; 0x58
 8002b5e:	4620      	mov	r0, r4
 8002b60:	f7ff ffb2 	bl	8002ac8 <ADC_Enable>
 8002b64:	2800      	cmp	r0, #0
 8002b66:	d17e      	bne.n	8002c66 <HAL_ADC_Start_IT+0x12e>
 8002b68:	6de3      	ldr	r3, [r4, #92]	; 0x5c
 8002b6a:	4945      	ldr	r1, [pc, #276]	; (8002c80 <HAL_ADC_Start_IT+0x148>)
 8002b6c:	f423 6370 	bic.w	r3, r3, #3840	; 0xf00
 8002b70:	f023 0301 	bic.w	r3, r3, #1
 8002b74:	f443 7380 	orr.w	r3, r3, #256	; 0x100
 8002b78:	65e3      	str	r3, [r4, #92]	; 0x5c
 8002b7a:	6823      	ldr	r3, [r4, #0]
 8002b7c:	428b      	cmp	r3, r1
 8002b7e:	f006 021f 	and.w	r2, r6, #31
 8002b82:	d075      	beq.n	8002c70 <HAL_ADC_Start_IT+0x138>
 8002b84:	4619      	mov	r1, r3
 8002b86:	6de5      	ldr	r5, [r4, #92]	; 0x5c
 8002b88:	f425 1580 	bic.w	r5, r5, #1048576	; 0x100000
 8002b8c:	65e5      	str	r5, [r4, #92]	; 0x5c
 8002b8e:	6de5      	ldr	r5, [r4, #92]	; 0x5c
 8002b90:	f415 5580 	ands.w	r5, r5, #4096	; 0x1000
 8002b94:	bf1c      	itt	ne
 8002b96:	6e25      	ldrne	r5, [r4, #96]	; 0x60
 8002b98:	f025 0506 	bicne.w	r5, r5, #6
 8002b9c:	6625      	str	r5, [r4, #96]	; 0x60
 8002b9e:	251c      	movs	r5, #28
 8002ba0:	601d      	str	r5, [r3, #0]
 8002ba2:	2500      	movs	r5, #0
 8002ba4:	f884 5058 	strb.w	r5, [r4, #88]	; 0x58
 8002ba8:	685d      	ldr	r5, [r3, #4]
 8002baa:	f025 051c 	bic.w	r5, r5, #28
 8002bae:	605d      	str	r5, [r3, #4]
 8002bb0:	69a5      	ldr	r5, [r4, #24]
 8002bb2:	685e      	ldr	r6, [r3, #4]
 8002bb4:	2d08      	cmp	r5, #8
 8002bb6:	bf0c      	ite	eq
 8002bb8:	f046 0608 	orreq.w	r6, r6, #8
 8002bbc:	f046 0604 	orrne.w	r6, r6, #4
 8002bc0:	605e      	str	r6, [r3, #4]
 8002bc2:	6be6      	ldr	r6, [r4, #60]	; 0x3c
 8002bc4:	b91e      	cbnz	r6, 8002bce <HAL_ADC_Start_IT+0x96>
 8002bc6:	685e      	ldr	r6, [r3, #4]
 8002bc8:	f046 0610 	orr.w	r6, r6, #16
 8002bcc:	605e      	str	r6, [r3, #4]
 8002bce:	428b      	cmp	r3, r1
 8002bd0:	d007      	beq.n	8002be2 <HAL_ADC_Start_IT+0xaa>
 8002bd2:	2a09      	cmp	r2, #9
 8002bd4:	d828      	bhi.n	8002c28 <HAL_ADC_Start_IT+0xf0>
 8002bd6:	f240 2621 	movw	r6, #545	; 0x221
 8002bda:	fa26 f202 	lsr.w	r2, r6, r2
 8002bde:	07d6      	lsls	r6, r2, #31
 8002be0:	d522      	bpl.n	8002c28 <HAL_ADC_Start_IT+0xf0>
 8002be2:	68da      	ldr	r2, [r3, #12]
 8002be4:	0191      	lsls	r1, r2, #6
 8002be6:	d516      	bpl.n	8002c16 <HAL_ADC_Start_IT+0xde>
 8002be8:	6de2      	ldr	r2, [r4, #92]	; 0x5c
 8002bea:	f422 5240 	bic.w	r2, r2, #12288	; 0x3000
 8002bee:	f442 5280 	orr.w	r2, r2, #4096	; 0x1000
 8002bf2:	65e2      	str	r2, [r4, #92]	; 0x5c
 8002bf4:	685a      	ldr	r2, [r3, #4]
 8002bf6:	2d08      	cmp	r5, #8
 8002bf8:	bf0b      	itete	eq
 8002bfa:	f022 0220 	biceq.w	r2, r2, #32
 8002bfe:	f022 0240 	bicne.w	r2, r2, #64	; 0x40
 8002c02:	605a      	streq	r2, [r3, #4]
 8002c04:	605a      	strne	r2, [r3, #4]
 8002c06:	bf0b      	itete	eq
 8002c08:	685a      	ldreq	r2, [r3, #4]
 8002c0a:	685a      	ldrne	r2, [r3, #4]
 8002c0c:	f042 0240 	orreq.w	r2, r2, #64	; 0x40
 8002c10:	f042 0220 	orrne.w	r2, r2, #32
 8002c14:	605a      	str	r2, [r3, #4]
 8002c16:	689a      	ldr	r2, [r3, #8]
 8002c18:	f022 4200 	bic.w	r2, r2, #2147483648	; 0x80000000
 8002c1c:	f022 023f 	bic.w	r2, r2, #63	; 0x3f
 8002c20:	f042 0204 	orr.w	r2, r2, #4
 8002c24:	609a      	str	r2, [r3, #8]
 8002c26:	bd70      	pop	{r4, r5, r6, pc}
 8002c28:	6de2      	ldr	r2, [r4, #92]	; 0x5c
 8002c2a:	f442 1280 	orr.w	r2, r2, #1048576	; 0x100000
 8002c2e:	65e2      	str	r2, [r4, #92]	; 0x5c
 8002c30:	68ca      	ldr	r2, [r1, #12]
 8002c32:	0192      	lsls	r2, r2, #6
 8002c34:	d5f7      	bpl.n	8002c26 <HAL_ADC_Start_IT+0xee>
 8002c36:	6de2      	ldr	r2, [r4, #92]	; 0x5c
 8002c38:	f422 5240 	bic.w	r2, r2, #12288	; 0x3000
 8002c3c:	f442 5280 	orr.w	r2, r2, #4096	; 0x1000
 8002c40:	65e2      	str	r2, [r4, #92]	; 0x5c
 8002c42:	685a      	ldr	r2, [r3, #4]
 8002c44:	2d08      	cmp	r5, #8
 8002c46:	bf0b      	itete	eq
 8002c48:	f022 0220 	biceq.w	r2, r2, #32
 8002c4c:	f022 0240 	bicne.w	r2, r2, #64	; 0x40
 8002c50:	605a      	streq	r2, [r3, #4]
 8002c52:	605a      	strne	r2, [r3, #4]
 8002c54:	bf0b      	itete	eq
 8002c56:	685a      	ldreq	r2, [r3, #4]
 8002c58:	685a      	ldrne	r2, [r3, #4]
 8002c5a:	f042 0240 	orreq.w	r2, r2, #64	; 0x40
 8002c5e:	f042 0220 	orrne.w	r2, r2, #32
 8002c62:	605a      	str	r2, [r3, #4]
 8002c64:	e7df      	b.n	8002c26 <HAL_ADC_Start_IT+0xee>
 8002c66:	f884 5058 	strb.w	r5, [r4, #88]	; 0x58
 8002c6a:	e7dc      	b.n	8002c26 <HAL_ADC_Start_IT+0xee>
 8002c6c:	2002      	movs	r0, #2
 8002c6e:	e7da      	b.n	8002c26 <HAL_ADC_Start_IT+0xee>
 8002c70:	f04f 41a0 	mov.w	r1, #1342177280	; 0x50000000
 8002c74:	2a00      	cmp	r2, #0
 8002c76:	d086      	beq.n	8002b86 <HAL_ADC_Start_IT+0x4e>
 8002c78:	e789      	b.n	8002b8e <HAL_ADC_Start_IT+0x56>
 8002c7a:	bf00      	nop
 8002c7c:	50000300 	.word	0x50000300
 8002c80:	50000100 	.word	0x50000100

08002c84 <ADC_Disable>:
 8002c84:	b538      	push	{r3, r4, r5, lr}
 8002c86:	4604      	mov	r4, r0
 8002c88:	6800      	ldr	r0, [r0, #0]
 8002c8a:	6883      	ldr	r3, [r0, #8]
 8002c8c:	f003 0302 	and.w	r3, r3, #2
 8002c90:	f7ff faab 	bl	80021ea <LL_ADC_IsEnabled>
 8002c94:	b908      	cbnz	r0, 8002c9a <ADC_Disable+0x16>
 8002c96:	2000      	movs	r0, #0
 8002c98:	bd38      	pop	{r3, r4, r5, pc}
 8002c9a:	2b00      	cmp	r3, #0
 8002c9c:	d1fb      	bne.n	8002c96 <ADC_Disable+0x12>
 8002c9e:	6822      	ldr	r2, [r4, #0]
 8002ca0:	6893      	ldr	r3, [r2, #8]
 8002ca2:	f003 030d 	and.w	r3, r3, #13
 8002ca6:	2b01      	cmp	r3, #1
 8002ca8:	d115      	bne.n	8002cd6 <ADC_Disable+0x52>
 8002caa:	6893      	ldr	r3, [r2, #8]
 8002cac:	f023 4300 	bic.w	r3, r3, #2147483648	; 0x80000000
 8002cb0:	f023 033f 	bic.w	r3, r3, #63	; 0x3f
 8002cb4:	f043 0302 	orr.w	r3, r3, #2
 8002cb8:	6093      	str	r3, [r2, #8]
 8002cba:	2303      	movs	r3, #3
 8002cbc:	6013      	str	r3, [r2, #0]
 8002cbe:	f7ff fa7d 	bl	80021bc <HAL_GetTick>
 8002cc2:	4605      	mov	r5, r0
 8002cc4:	6823      	ldr	r3, [r4, #0]
 8002cc6:	689b      	ldr	r3, [r3, #8]
 8002cc8:	07db      	lsls	r3, r3, #31
 8002cca:	d5e4      	bpl.n	8002c96 <ADC_Disable+0x12>
 8002ccc:	f7ff fa76 	bl	80021bc <HAL_GetTick>
 8002cd0:	1b40      	subs	r0, r0, r5
 8002cd2:	2802      	cmp	r0, #2
 8002cd4:	d9f6      	bls.n	8002cc4 <ADC_Disable+0x40>
 8002cd6:	6de3      	ldr	r3, [r4, #92]	; 0x5c
 8002cd8:	f043 0310 	orr.w	r3, r3, #16
 8002cdc:	65e3      	str	r3, [r4, #92]	; 0x5c
 8002cde:	6e23      	ldr	r3, [r4, #96]	; 0x60
 8002ce0:	f043 0301 	orr.w	r3, r3, #1
 8002ce4:	6623      	str	r3, [r4, #96]	; 0x60
 8002ce6:	2001      	movs	r0, #1
 8002ce8:	e7d6      	b.n	8002c98 <ADC_Disable+0x14>

08002cea <HAL_ADC_Stop_IT>:
 8002cea:	f890 3058 	ldrb.w	r3, [r0, #88]	; 0x58
 8002cee:	2b01      	cmp	r3, #1
 8002cf0:	b510      	push	{r4, lr}
 8002cf2:	4604      	mov	r4, r0
 8002cf4:	d01b      	beq.n	8002d2e <HAL_ADC_Stop_IT+0x44>
 8002cf6:	2301      	movs	r3, #1
 8002cf8:	f880 3058 	strb.w	r3, [r0, #88]	; 0x58
 8002cfc:	2103      	movs	r1, #3
 8002cfe:	f7ff fe7d 	bl	80029fc <ADC_ConversionStop>
 8002d02:	b980      	cbnz	r0, 8002d26 <HAL_ADC_Stop_IT+0x3c>
 8002d04:	6822      	ldr	r2, [r4, #0]
 8002d06:	6853      	ldr	r3, [r2, #4]
 8002d08:	f023 031c 	bic.w	r3, r3, #28
 8002d0c:	6053      	str	r3, [r2, #4]
 8002d0e:	4620      	mov	r0, r4
 8002d10:	f7ff ffb8 	bl	8002c84 <ADC_Disable>
 8002d14:	b938      	cbnz	r0, 8002d26 <HAL_ADC_Stop_IT+0x3c>
 8002d16:	6de3      	ldr	r3, [r4, #92]	; 0x5c
 8002d18:	f423 5388 	bic.w	r3, r3, #4352	; 0x1100
 8002d1c:	f023 0301 	bic.w	r3, r3, #1
 8002d20:	f043 0301 	orr.w	r3, r3, #1
 8002d24:	65e3      	str	r3, [r4, #92]	; 0x5c
 8002d26:	2300      	movs	r3, #0
 8002d28:	f884 3058 	strb.w	r3, [r4, #88]	; 0x58
 8002d2c:	bd10      	pop	{r4, pc}
 8002d2e:	2002      	movs	r0, #2
 8002d30:	e7fc      	b.n	8002d2c <HAL_ADC_Stop_IT+0x42>

08002d32 <LL_ADC_IsEnabled>:
 8002d32:	6880      	ldr	r0, [r0, #8]
 8002d34:	f000 0001 	and.w	r0, r0, #1
 8002d38:	4770      	bx	lr

08002d3a <LL_ADC_REG_IsConversionOngoing>:
 8002d3a:	6880      	ldr	r0, [r0, #8]
 8002d3c:	f3c0 0080 	ubfx	r0, r0, #2, #1
 8002d40:	4770      	bx	lr

08002d42 <HAL_ADCEx_InjectedConvCpltCallback>:
 8002d42:	4770      	bx	lr

08002d44 <HAL_ADCEx_InjectedQueueOverflowCallback>:
 8002d44:	4770      	bx	lr

08002d46 <HAL_ADCEx_LevelOutOfWindow2Callback>:
 8002d46:	4770      	bx	lr

08002d48 <HAL_ADCEx_LevelOutOfWindow3Callback>:
 8002d48:	4770      	bx	lr

08002d4a <HAL_ADCEx_EndOfSamplingCallback>:
 8002d4a:	4770      	bx	lr

08002d4c <HAL_ADCEx_MultiModeConfigChannel>:
 8002d4c:	b530      	push	{r4, r5, lr}
 8002d4e:	f890 3058 	ldrb.w	r3, [r0, #88]	; 0x58
 8002d52:	2b01      	cmp	r3, #1
 8002d54:	b09d      	sub	sp, #116	; 0x74
 8002d56:	4602      	mov	r2, r0
 8002d58:	d060      	beq.n	8002e1c <HAL_ADCEx_MultiModeConfigChannel+0xd0>
 8002d5a:	2301      	movs	r3, #1
 8002d5c:	f880 3058 	strb.w	r3, [r0, #88]	; 0x58
 8002d60:	6803      	ldr	r3, [r0, #0]
 8002d62:	f1b3 4fa0 	cmp.w	r3, #1342177280	; 0x50000000
 8002d66:	bf0c      	ite	eq
 8002d68:	f503 7380 	addeq.w	r3, r3, #256	; 0x100
 8002d6c:	2300      	movne	r3, #0
 8002d6e:	9301      	str	r3, [sp, #4]
 8002d70:	9801      	ldr	r0, [sp, #4]
 8002d72:	b940      	cbnz	r0, 8002d86 <HAL_ADCEx_MultiModeConfigChannel+0x3a>
 8002d74:	6dd3      	ldr	r3, [r2, #92]	; 0x5c
 8002d76:	f882 0058 	strb.w	r0, [r2, #88]	; 0x58
 8002d7a:	f043 0320 	orr.w	r3, r3, #32
 8002d7e:	65d3      	str	r3, [r2, #92]	; 0x5c
 8002d80:	2001      	movs	r0, #1
 8002d82:	b01d      	add	sp, #116	; 0x74
 8002d84:	bd30      	pop	{r4, r5, pc}
 8002d86:	f7ff ffd8 	bl	8002d3a <LL_ADC_REG_IsConversionOngoing>
 8002d8a:	4603      	mov	r3, r0
 8002d8c:	6810      	ldr	r0, [r2, #0]
 8002d8e:	f7ff ffd4 	bl	8002d3a <LL_ADC_REG_IsConversionOngoing>
 8002d92:	2800      	cmp	r0, #0
 8002d94:	d13c      	bne.n	8002e10 <HAL_ADCEx_MultiModeConfigChannel+0xc4>
 8002d96:	2b00      	cmp	r3, #0
 8002d98:	d13a      	bne.n	8002e10 <HAL_ADCEx_MultiModeConfigChannel+0xc4>
 8002d9a:	680b      	ldr	r3, [r1, #0]
 8002d9c:	4c20      	ldr	r4, [pc, #128]	; (8002e20 <HAL_ADCEx_MultiModeConfigChannel+0xd4>)
 8002d9e:	b31b      	cbz	r3, 8002de8 <HAL_ADCEx_MultiModeConfigChannel+0x9c>
 8002da0:	68a3      	ldr	r3, [r4, #8]
 8002da2:	6848      	ldr	r0, [r1, #4]
 8002da4:	f423 4360 	bic.w	r3, r3, #57344	; 0xe000
 8002da8:	4303      	orrs	r3, r0
 8002daa:	f892 0038 	ldrb.w	r0, [r2, #56]	; 0x38
 8002dae:	ea43 3340 	orr.w	r3, r3, r0, lsl #13
 8002db2:	60a3      	str	r3, [r4, #8]
 8002db4:	f04f 40a0 	mov.w	r0, #1342177280	; 0x50000000
 8002db8:	f7ff ffbb 	bl	8002d32 <LL_ADC_IsEnabled>
 8002dbc:	4603      	mov	r3, r0
 8002dbe:	4819      	ldr	r0, [pc, #100]	; (8002e24 <HAL_ADCEx_MultiModeConfigChannel+0xd8>)
 8002dc0:	f7ff ffb7 	bl	8002d32 <LL_ADC_IsEnabled>
 8002dc4:	4318      	orrs	r0, r3
 8002dc6:	d004      	beq.n	8002dd2 <HAL_ADCEx_MultiModeConfigChannel+0x86>
 8002dc8:	2000      	movs	r0, #0
 8002dca:	2300      	movs	r3, #0
 8002dcc:	f882 3058 	strb.w	r3, [r2, #88]	; 0x58
 8002dd0:	e7d7      	b.n	8002d82 <HAL_ADCEx_MultiModeConfigChannel+0x36>
 8002dd2:	680b      	ldr	r3, [r1, #0]
 8002dd4:	68a5      	ldr	r5, [r4, #8]
 8002dd6:	6889      	ldr	r1, [r1, #8]
 8002dd8:	430b      	orrs	r3, r1
 8002dda:	f425 6171 	bic.w	r1, r5, #3856	; 0xf10
 8002dde:	f021 010f 	bic.w	r1, r1, #15
 8002de2:	430b      	orrs	r3, r1
 8002de4:	60a3      	str	r3, [r4, #8]
 8002de6:	e7f0      	b.n	8002dca <HAL_ADCEx_MultiModeConfigChannel+0x7e>
 8002de8:	68a3      	ldr	r3, [r4, #8]
 8002dea:	f423 4360 	bic.w	r3, r3, #57344	; 0xe000
 8002dee:	60a3      	str	r3, [r4, #8]
 8002df0:	f04f 40a0 	mov.w	r0, #1342177280	; 0x50000000
 8002df4:	f7ff ff9d 	bl	8002d32 <LL_ADC_IsEnabled>
 8002df8:	4603      	mov	r3, r0
 8002dfa:	480a      	ldr	r0, [pc, #40]	; (8002e24 <HAL_ADCEx_MultiModeConfigChannel+0xd8>)
 8002dfc:	f7ff ff99 	bl	8002d32 <LL_ADC_IsEnabled>
 8002e00:	4318      	orrs	r0, r3
 8002e02:	d1e1      	bne.n	8002dc8 <HAL_ADCEx_MultiModeConfigChannel+0x7c>
 8002e04:	68a3      	ldr	r3, [r4, #8]
 8002e06:	f423 6371 	bic.w	r3, r3, #3856	; 0xf10
 8002e0a:	f023 030f 	bic.w	r3, r3, #15
 8002e0e:	e7e9      	b.n	8002de4 <HAL_ADCEx_MultiModeConfigChannel+0x98>
 8002e10:	6dd3      	ldr	r3, [r2, #92]	; 0x5c
 8002e12:	f043 0320 	orr.w	r3, r3, #32
 8002e16:	65d3      	str	r3, [r2, #92]	; 0x5c
 8002e18:	2001      	movs	r0, #1
 8002e1a:	e7d6      	b.n	8002dca <HAL_ADCEx_MultiModeConfigChannel+0x7e>
 8002e1c:	2002      	movs	r0, #2
 8002e1e:	e7b0      	b.n	8002d82 <HAL_ADCEx_MultiModeConfigChannel+0x36>
 8002e20:	50000300 	.word	0x50000300
 8002e24:	50000100 	.word	0x50000100

08002e28 <HAL_NVIC_SetPriorityGrouping>:
 8002e28:	4a07      	ldr	r2, [pc, #28]	; (8002e48 <HAL_NVIC_SetPriorityGrouping+0x20>)
 8002e2a:	68d3      	ldr	r3, [r2, #12]
 8002e2c:	f423 63e0 	bic.w	r3, r3, #1792	; 0x700
 8002e30:	041b      	lsls	r3, r3, #16
 8002e32:	0c1b      	lsrs	r3, r3, #16
 8002e34:	f043 63bf 	orr.w	r3, r3, #100139008	; 0x5f80000
 8002e38:	0200      	lsls	r0, r0, #8
 8002e3a:	f443 3300 	orr.w	r3, r3, #131072	; 0x20000
 8002e3e:	f400 60e0 	and.w	r0, r0, #1792	; 0x700
 8002e42:	4303      	orrs	r3, r0
 8002e44:	60d3      	str	r3, [r2, #12]
 8002e46:	4770      	bx	lr
 8002e48:	e000ed00 	.word	0xe000ed00

08002e4c <HAL_NVIC_SetPriority>:
 8002e4c:	4b17      	ldr	r3, [pc, #92]	; (8002eac <HAL_NVIC_SetPriority+0x60>)
 8002e4e:	b570      	push	{r4, r5, r6, lr}
 8002e50:	68dc      	ldr	r4, [r3, #12]
 8002e52:	f3c4 2402 	ubfx	r4, r4, #8, #3
 8002e56:	f1c4 0507 	rsb	r5, r4, #7
 8002e5a:	2d04      	cmp	r5, #4
 8002e5c:	f104 0304 	add.w	r3, r4, #4
 8002e60:	bf28      	it	cs
 8002e62:	2504      	movcs	r5, #4
 8002e64:	f04f 36ff 	mov.w	r6, #4294967295	; 0xffffffff
 8002e68:	2b06      	cmp	r3, #6
 8002e6a:	fa06 f305 	lsl.w	r3, r6, r5
 8002e6e:	bf8c      	ite	hi
 8002e70:	3c03      	subhi	r4, #3
 8002e72:	2400      	movls	r4, #0
 8002e74:	ea21 0303 	bic.w	r3, r1, r3
 8002e78:	40a3      	lsls	r3, r4
 8002e7a:	fa06 f404 	lsl.w	r4, r6, r4
 8002e7e:	ea22 0404 	bic.w	r4, r2, r4
 8002e82:	2800      	cmp	r0, #0
 8002e84:	ea43 0304 	orr.w	r3, r3, r4
 8002e88:	bfa8      	it	ge
 8002e8a:	f100 4060 	addge.w	r0, r0, #3758096384	; 0xe0000000
 8002e8e:	ea4f 1303 	mov.w	r3, r3, lsl #4
 8002e92:	bfbc      	itt	lt
 8002e94:	f000 000f 	andlt.w	r0, r0, #15
 8002e98:	4a05      	ldrlt	r2, [pc, #20]	; (8002eb0 <HAL_NVIC_SetPriority+0x64>)
 8002e9a:	b2db      	uxtb	r3, r3
 8002e9c:	bfaa      	itet	ge
 8002e9e:	f500 4061 	addge.w	r0, r0, #57600	; 0xe100
 8002ea2:	5413      	strblt	r3, [r2, r0]
 8002ea4:	f880 3300 	strbge.w	r3, [r0, #768]	; 0x300
 8002ea8:	bd70      	pop	{r4, r5, r6, pc}
 8002eaa:	bf00      	nop
 8002eac:	e000ed00 	.word	0xe000ed00
 8002eb0:	e000ed14 	.word	0xe000ed14

08002eb4 <HAL_NVIC_EnableIRQ>:
 8002eb4:	2800      	cmp	r0, #0
 8002eb6:	db08      	blt.n	8002eca <HAL_NVIC_EnableIRQ+0x16>
 8002eb8:	2301      	movs	r3, #1
 8002eba:	0942      	lsrs	r2, r0, #5
 8002ebc:	f000 001f 	and.w	r0, r0, #31
 8002ec0:	fa03 f000 	lsl.w	r0, r3, r0
 8002ec4:	4b01      	ldr	r3, [pc, #4]	; (8002ecc <HAL_NVIC_EnableIRQ+0x18>)
 8002ec6:	f843 0022 	str.w	r0, [r3, r2, lsl #2]
 8002eca:	4770      	bx	lr
 8002ecc:	e000e100 	.word	0xe000e100

08002ed0 <HAL_SYSTICK_Config>:
 8002ed0:	3801      	subs	r0, #1
 8002ed2:	f1b0 7f80 	cmp.w	r0, #16777216	; 0x1000000
 8002ed6:	d20a      	bcs.n	8002eee <HAL_SYSTICK_Config+0x1e>
 8002ed8:	4b06      	ldr	r3, [pc, #24]	; (8002ef4 <HAL_SYSTICK_Config+0x24>)
 8002eda:	4a07      	ldr	r2, [pc, #28]	; (8002ef8 <HAL_SYSTICK_Config+0x28>)
 8002edc:	6058      	str	r0, [r3, #4]
 8002ede:	21f0      	movs	r1, #240	; 0xf0
 8002ee0:	f882 1023 	strb.w	r1, [r2, #35]	; 0x23
 8002ee4:	2000      	movs	r0, #0
 8002ee6:	2207      	movs	r2, #7
 8002ee8:	6098      	str	r0, [r3, #8]
 8002eea:	601a      	str	r2, [r3, #0]
 8002eec:	4770      	bx	lr
 8002eee:	2001      	movs	r0, #1
 8002ef0:	4770      	bx	lr
 8002ef2:	bf00      	nop
 8002ef4:	e000e010 	.word	0xe000e010
 8002ef8:	e000ed00 	.word	0xe000ed00

08002efc <HAL_GPIO_Init>:
 8002efc:	e92d 4ff7 	stmdb	sp!, {r0, r1, r2, r4, r5, r6, r7, r8, r9, sl, fp, lr}
 8002f00:	f8d1 8000 	ldr.w	r8, [r1]
 8002f04:	f8df 9188 	ldr.w	r9, [pc, #392]	; 8003090 <HAL_GPIO_Init+0x194>
 8002f08:	4a5f      	ldr	r2, [pc, #380]	; (8003088 <HAL_GPIO_Init+0x18c>)
 8002f0a:	2300      	movs	r3, #0
 8002f0c:	fa38 f403 	lsrs.w	r4, r8, r3
 8002f10:	d102      	bne.n	8002f18 <HAL_GPIO_Init+0x1c>
 8002f12:	b003      	add	sp, #12
 8002f14:	e8bd 8ff0 	ldmia.w	sp!, {r4, r5, r6, r7, r8, r9, sl, fp, pc}
 8002f18:	2401      	movs	r4, #1
 8002f1a:	fa04 fc03 	lsl.w	ip, r4, r3
 8002f1e:	ea1c 0608 	ands.w	r6, ip, r8
 8002f22:	f000 80a4 	beq.w	800306e <HAL_GPIO_Init+0x172>
 8002f26:	684c      	ldr	r4, [r1, #4]
 8002f28:	f024 0a10 	bic.w	sl, r4, #16
 8002f2c:	ea4f 0e43 	mov.w	lr, r3, lsl #1
 8002f30:	2503      	movs	r5, #3
 8002f32:	f10a 37ff 	add.w	r7, sl, #4294967295	; 0xffffffff
 8002f36:	fa05 f50e 	lsl.w	r5, r5, lr
 8002f3a:	2f01      	cmp	r7, #1
 8002f3c:	ea6f 0505 	mvn.w	r5, r5
 8002f40:	d811      	bhi.n	8002f66 <HAL_GPIO_Init+0x6a>
 8002f42:	6887      	ldr	r7, [r0, #8]
 8002f44:	ea07 0b05 	and.w	fp, r7, r5
 8002f48:	68cf      	ldr	r7, [r1, #12]
 8002f4a:	fa07 f70e 	lsl.w	r7, r7, lr
 8002f4e:	ea47 070b 	orr.w	r7, r7, fp
 8002f52:	6087      	str	r7, [r0, #8]
 8002f54:	6847      	ldr	r7, [r0, #4]
 8002f56:	ea27 0c0c 	bic.w	ip, r7, ip
 8002f5a:	f3c4 1700 	ubfx	r7, r4, #4, #1
 8002f5e:	409f      	lsls	r7, r3
 8002f60:	ea47 070c 	orr.w	r7, r7, ip
 8002f64:	6047      	str	r7, [r0, #4]
 8002f66:	68c7      	ldr	r7, [r0, #12]
 8002f68:	ea07 0c05 	and.w	ip, r7, r5
 8002f6c:	688f      	ldr	r7, [r1, #8]
 8002f6e:	fa07 f70e 	lsl.w	r7, r7, lr
 8002f72:	ea47 070c 	orr.w	r7, r7, ip
 8002f76:	f1ba 0f02 	cmp.w	sl, #2
 8002f7a:	60c7      	str	r7, [r0, #12]
 8002f7c:	d116      	bne.n	8002fac <HAL_GPIO_Init+0xb0>
 8002f7e:	ea4f 0ad3 	mov.w	sl, r3, lsr #3
 8002f82:	eb00 0a8a 	add.w	sl, r0, sl, lsl #2
 8002f86:	f003 0b07 	and.w	fp, r3, #7
 8002f8a:	f8da 7020 	ldr.w	r7, [sl, #32]
 8002f8e:	ea4f 0b8b 	mov.w	fp, fp, lsl #2
 8002f92:	f04f 0c0f 	mov.w	ip, #15
 8002f96:	fa0c fc0b 	lsl.w	ip, ip, fp
 8002f9a:	ea27 0c0c 	bic.w	ip, r7, ip
 8002f9e:	690f      	ldr	r7, [r1, #16]
 8002fa0:	fa07 f70b 	lsl.w	r7, r7, fp
 8002fa4:	ea47 070c 	orr.w	r7, r7, ip
 8002fa8:	f8ca 7020 	str.w	r7, [sl, #32]
 8002fac:	6807      	ldr	r7, [r0, #0]
 8002fae:	403d      	ands	r5, r7
 8002fb0:	f004 0703 	and.w	r7, r4, #3
 8002fb4:	fa07 fe0e 	lsl.w	lr, r7, lr
 8002fb8:	ea4e 0505 	orr.w	r5, lr, r5
 8002fbc:	6005      	str	r5, [r0, #0]
 8002fbe:	00e5      	lsls	r5, r4, #3
 8002fc0:	d555      	bpl.n	800306e <HAL_GPIO_Init+0x172>
 8002fc2:	f8d9 5060 	ldr.w	r5, [r9, #96]	; 0x60
 8002fc6:	f045 0501 	orr.w	r5, r5, #1
 8002fca:	f8c9 5060 	str.w	r5, [r9, #96]	; 0x60
 8002fce:	f8d9 5060 	ldr.w	r5, [r9, #96]	; 0x60
 8002fd2:	f023 0703 	bic.w	r7, r3, #3
 8002fd6:	f107 4780 	add.w	r7, r7, #1073741824	; 0x40000000
 8002fda:	f005 0501 	and.w	r5, r5, #1
 8002fde:	f507 3780 	add.w	r7, r7, #65536	; 0x10000
 8002fe2:	9501      	str	r5, [sp, #4]
 8002fe4:	f003 0e03 	and.w	lr, r3, #3
 8002fe8:	9d01      	ldr	r5, [sp, #4]
 8002fea:	68bd      	ldr	r5, [r7, #8]
 8002fec:	ea4f 0e8e 	mov.w	lr, lr, lsl #2
 8002ff0:	f04f 0c0f 	mov.w	ip, #15
 8002ff4:	fa0c fc0e 	lsl.w	ip, ip, lr
 8002ff8:	f1b0 4f90 	cmp.w	r0, #1207959552	; 0x48000000
 8002ffc:	ea25 0c0c 	bic.w	ip, r5, ip
 8003000:	d037      	beq.n	8003072 <HAL_GPIO_Init+0x176>
 8003002:	4d22      	ldr	r5, [pc, #136]	; (800308c <HAL_GPIO_Init+0x190>)
 8003004:	42a8      	cmp	r0, r5
 8003006:	d036      	beq.n	8003076 <HAL_GPIO_Init+0x17a>
 8003008:	f505 6580 	add.w	r5, r5, #1024	; 0x400
 800300c:	42a8      	cmp	r0, r5
 800300e:	d034      	beq.n	800307a <HAL_GPIO_Init+0x17e>
 8003010:	f505 6580 	add.w	r5, r5, #1024	; 0x400
 8003014:	42a8      	cmp	r0, r5
 8003016:	d032      	beq.n	800307e <HAL_GPIO_Init+0x182>
 8003018:	f505 6580 	add.w	r5, r5, #1024	; 0x400
 800301c:	42a8      	cmp	r0, r5
 800301e:	d030      	beq.n	8003082 <HAL_GPIO_Init+0x186>
 8003020:	f505 6580 	add.w	r5, r5, #1024	; 0x400
 8003024:	42a8      	cmp	r0, r5
 8003026:	bf14      	ite	ne
 8003028:	2506      	movne	r5, #6
 800302a:	2505      	moveq	r5, #5
 800302c:	fa05 f50e 	lsl.w	r5, r5, lr
 8003030:	ea45 050c 	orr.w	r5, r5, ip
 8003034:	60bd      	str	r5, [r7, #8]
 8003036:	6815      	ldr	r5, [r2, #0]
 8003038:	43f7      	mvns	r7, r6
 800303a:	f414 3f80 	tst.w	r4, #65536	; 0x10000
 800303e:	bf0c      	ite	eq
 8003040:	403d      	andeq	r5, r7
 8003042:	4335      	orrne	r5, r6
 8003044:	6015      	str	r5, [r2, #0]
 8003046:	6855      	ldr	r5, [r2, #4]
 8003048:	f414 3f00 	tst.w	r4, #131072	; 0x20000
 800304c:	bf0c      	ite	eq
 800304e:	403d      	andeq	r5, r7
 8003050:	4335      	orrne	r5, r6
 8003052:	6055      	str	r5, [r2, #4]
 8003054:	6895      	ldr	r5, [r2, #8]
 8003056:	f414 1f80 	tst.w	r4, #1048576	; 0x100000
 800305a:	bf0c      	ite	eq
 800305c:	403d      	andeq	r5, r7
 800305e:	4335      	orrne	r5, r6
 8003060:	6095      	str	r5, [r2, #8]
 8003062:	68d5      	ldr	r5, [r2, #12]
 8003064:	02a4      	lsls	r4, r4, #10
 8003066:	bf54      	ite	pl
 8003068:	403d      	andpl	r5, r7
 800306a:	4335      	orrmi	r5, r6
 800306c:	60d5      	str	r5, [r2, #12]
 800306e:	3301      	adds	r3, #1
 8003070:	e74c      	b.n	8002f0c <HAL_GPIO_Init+0x10>
 8003072:	2500      	movs	r5, #0
 8003074:	e7da      	b.n	800302c <HAL_GPIO_Init+0x130>
 8003076:	2501      	movs	r5, #1
 8003078:	e7d8      	b.n	800302c <HAL_GPIO_Init+0x130>
 800307a:	2502      	movs	r5, #2
 800307c:	e7d6      	b.n	800302c <HAL_GPIO_Init+0x130>
 800307e:	2503      	movs	r5, #3
 8003080:	e7d4      	b.n	800302c <HAL_GPIO_Init+0x130>
 8003082:	2504      	movs	r5, #4
 8003084:	e7d2      	b.n	800302c <HAL_GPIO_Init+0x130>
 8003086:	bf00      	nop
 8003088:	40010400 	.word	0x40010400
 800308c:	48000400 	.word	0x48000400
 8003090:	40021000 	.word	0x40021000

08003094 <HAL_GPIO_ReadPin>:
 8003094:	6903      	ldr	r3, [r0, #16]
 8003096:	4219      	tst	r1, r3
 8003098:	bf14      	ite	ne
 800309a:	2001      	movne	r0, #1
 800309c:	2000      	moveq	r0, #0
 800309e:	4770      	bx	lr

080030a0 <HAL_GPIO_WritePin>:
 80030a0:	b10a      	cbz	r2, 80030a6 <HAL_GPIO_WritePin+0x6>
 80030a2:	6181      	str	r1, [r0, #24]
 80030a4:	4770      	bx	lr
 80030a6:	6281      	str	r1, [r0, #40]	; 0x28
 80030a8:	4770      	bx	lr
	...

080030ac <HAL_GPIO_EXTI_IRQHandler>:
 80030ac:	b508      	push	{r3, lr}
 80030ae:	4b04      	ldr	r3, [pc, #16]	; (80030c0 <HAL_GPIO_EXTI_IRQHandler+0x14>)
 80030b0:	6959      	ldr	r1, [r3, #20]
 80030b2:	4201      	tst	r1, r0
 80030b4:	d002      	beq.n	80030bc <HAL_GPIO_EXTI_IRQHandler+0x10>
 80030b6:	6158      	str	r0, [r3, #20]
 80030b8:	f7fe fed0 	bl	8001e5c <HAL_GPIO_EXTI_Callback>
 80030bc:	bd08      	pop	{r3, pc}
 80030be:	bf00      	nop
 80030c0:	40010400 	.word	0x40010400

080030c4 <I2C_Flush_TXDR>:
 80030c4:	6803      	ldr	r3, [r0, #0]
 80030c6:	699a      	ldr	r2, [r3, #24]
 80030c8:	0791      	lsls	r1, r2, #30
 80030ca:	bf44      	itt	mi
 80030cc:	2200      	movmi	r2, #0
 80030ce:	629a      	strmi	r2, [r3, #40]	; 0x28
 80030d0:	699a      	ldr	r2, [r3, #24]
 80030d2:	07d2      	lsls	r2, r2, #31
 80030d4:	bf5e      	ittt	pl
 80030d6:	699a      	ldrpl	r2, [r3, #24]
 80030d8:	f042 0201 	orrpl.w	r2, r2, #1
 80030dc:	619a      	strpl	r2, [r3, #24]
 80030de:	4770      	bx	lr

080030e0 <I2C_TransferConfig>:
 80030e0:	b530      	push	{r4, r5, lr}
 80030e2:	9d03      	ldr	r5, [sp, #12]
 80030e4:	6804      	ldr	r4, [r0, #0]
 80030e6:	ea45 4202 	orr.w	r2, r5, r2, lsl #16
 80030ea:	4313      	orrs	r3, r2
 80030ec:	f3c1 0209 	ubfx	r2, r1, #0, #10
 80030f0:	431a      	orrs	r2, r3
 80030f2:	4b04      	ldr	r3, [pc, #16]	; (8003104 <I2C_TransferConfig+0x24>)
 80030f4:	6860      	ldr	r0, [r4, #4]
 80030f6:	ea43 5355 	orr.w	r3, r3, r5, lsr #21
 80030fa:	ea20 0003 	bic.w	r0, r0, r3
 80030fe:	4302      	orrs	r2, r0
 8003100:	6062      	str	r2, [r4, #4]
 8003102:	bd30      	pop	{r4, r5, pc}
 8003104:	03ff63ff 	.word	0x03ff63ff

08003108 <I2C_IsAcknowledgeFailed>:
 8003108:	6803      	ldr	r3, [r0, #0]
 800310a:	b570      	push	{r4, r5, r6, lr}
 800310c:	4604      	mov	r4, r0
 800310e:	6998      	ldr	r0, [r3, #24]
 8003110:	f010 0010 	ands.w	r0, r0, #16
 8003114:	460d      	mov	r5, r1
 8003116:	4616      	mov	r6, r2
 8003118:	d116      	bne.n	8003148 <I2C_IsAcknowledgeFailed+0x40>
 800311a:	bd70      	pop	{r4, r5, r6, pc}
 800311c:	1c69      	adds	r1, r5, #1
 800311e:	d014      	beq.n	800314a <I2C_IsAcknowledgeFailed+0x42>
 8003120:	f7ff f84c 	bl	80021bc <HAL_GetTick>
 8003124:	1b80      	subs	r0, r0, r6
 8003126:	42a8      	cmp	r0, r5
 8003128:	d800      	bhi.n	800312c <I2C_IsAcknowledgeFailed+0x24>
 800312a:	b96d      	cbnz	r5, 8003148 <I2C_IsAcknowledgeFailed+0x40>
 800312c:	6c63      	ldr	r3, [r4, #68]	; 0x44
 800312e:	f043 0320 	orr.w	r3, r3, #32
 8003132:	6463      	str	r3, [r4, #68]	; 0x44
 8003134:	2320      	movs	r3, #32
 8003136:	f884 3041 	strb.w	r3, [r4, #65]	; 0x41
 800313a:	2300      	movs	r3, #0
 800313c:	f884 3042 	strb.w	r3, [r4, #66]	; 0x42
 8003140:	f884 3040 	strb.w	r3, [r4, #64]	; 0x40
 8003144:	2001      	movs	r0, #1
 8003146:	e7e8      	b.n	800311a <I2C_IsAcknowledgeFailed+0x12>
 8003148:	6823      	ldr	r3, [r4, #0]
 800314a:	6999      	ldr	r1, [r3, #24]
 800314c:	068a      	lsls	r2, r1, #26
 800314e:	d5e5      	bpl.n	800311c <I2C_IsAcknowledgeFailed+0x14>
 8003150:	2210      	movs	r2, #16
 8003152:	2520      	movs	r5, #32
 8003154:	61da      	str	r2, [r3, #28]
 8003156:	4620      	mov	r0, r4
 8003158:	61dd      	str	r5, [r3, #28]
 800315a:	f7ff ffb3 	bl	80030c4 <I2C_Flush_TXDR>
 800315e:	6822      	ldr	r2, [r4, #0]
 8003160:	6853      	ldr	r3, [r2, #4]
 8003162:	f023 73ff 	bic.w	r3, r3, #33423360	; 0x1fe0000
 8003166:	f423 338b 	bic.w	r3, r3, #71168	; 0x11600
 800316a:	f423 73ff 	bic.w	r3, r3, #510	; 0x1fe
 800316e:	f023 0301 	bic.w	r3, r3, #1
 8003172:	6053      	str	r3, [r2, #4]
 8003174:	6c63      	ldr	r3, [r4, #68]	; 0x44
 8003176:	f043 0304 	orr.w	r3, r3, #4
 800317a:	6463      	str	r3, [r4, #68]	; 0x44
 800317c:	f884 5041 	strb.w	r5, [r4, #65]	; 0x41
 8003180:	e7db      	b.n	800313a <I2C_IsAcknowledgeFailed+0x32>

08003182 <I2C_WaitOnSTOPFlagUntilTimeout>:
 8003182:	b570      	push	{r4, r5, r6, lr}
 8003184:	4604      	mov	r4, r0
 8003186:	460d      	mov	r5, r1
 8003188:	4616      	mov	r6, r2
 800318a:	6823      	ldr	r3, [r4, #0]
 800318c:	699b      	ldr	r3, [r3, #24]
 800318e:	069b      	lsls	r3, r3, #26
 8003190:	d501      	bpl.n	8003196 <I2C_WaitOnSTOPFlagUntilTimeout+0x14>
 8003192:	2000      	movs	r0, #0
 8003194:	bd70      	pop	{r4, r5, r6, pc}
 8003196:	4632      	mov	r2, r6
 8003198:	4629      	mov	r1, r5
 800319a:	4620      	mov	r0, r4
 800319c:	f7ff ffb4 	bl	8003108 <I2C_IsAcknowledgeFailed>
 80031a0:	b990      	cbnz	r0, 80031c8 <I2C_WaitOnSTOPFlagUntilTimeout+0x46>
 80031a2:	f7ff f80b 	bl	80021bc <HAL_GetTick>
 80031a6:	1b80      	subs	r0, r0, r6
 80031a8:	42a8      	cmp	r0, r5
 80031aa:	d801      	bhi.n	80031b0 <I2C_WaitOnSTOPFlagUntilTimeout+0x2e>
 80031ac:	2d00      	cmp	r5, #0
 80031ae:	d1ec      	bne.n	800318a <I2C_WaitOnSTOPFlagUntilTimeout+0x8>
 80031b0:	6c63      	ldr	r3, [r4, #68]	; 0x44
 80031b2:	f043 0320 	orr.w	r3, r3, #32
 80031b6:	6463      	str	r3, [r4, #68]	; 0x44
 80031b8:	2320      	movs	r3, #32
 80031ba:	f884 3041 	strb.w	r3, [r4, #65]	; 0x41
 80031be:	2300      	movs	r3, #0
 80031c0:	f884 3042 	strb.w	r3, [r4, #66]	; 0x42
 80031c4:	f884 3040 	strb.w	r3, [r4, #64]	; 0x40
 80031c8:	2001      	movs	r0, #1
 80031ca:	e7e3      	b.n	8003194 <I2C_WaitOnSTOPFlagUntilTimeout+0x12>

080031cc <I2C_WaitOnFlagUntilTimeout>:
 80031cc:	e92d 41f0 	stmdb	sp!, {r4, r5, r6, r7, r8, lr}
 80031d0:	9f06      	ldr	r7, [sp, #24]
 80031d2:	4604      	mov	r4, r0
 80031d4:	4688      	mov	r8, r1
 80031d6:	4616      	mov	r6, r2
 80031d8:	461d      	mov	r5, r3
 80031da:	6822      	ldr	r2, [r4, #0]
 80031dc:	6993      	ldr	r3, [r2, #24]
 80031de:	ea38 0303 	bics.w	r3, r8, r3
 80031e2:	bf0c      	ite	eq
 80031e4:	2301      	moveq	r3, #1
 80031e6:	2300      	movne	r3, #0
 80031e8:	42b3      	cmp	r3, r6
 80031ea:	d001      	beq.n	80031f0 <I2C_WaitOnFlagUntilTimeout+0x24>
 80031ec:	2000      	movs	r0, #0
 80031ee:	e015      	b.n	800321c <I2C_WaitOnFlagUntilTimeout+0x50>
 80031f0:	1c6b      	adds	r3, r5, #1
 80031f2:	d0f3      	beq.n	80031dc <I2C_WaitOnFlagUntilTimeout+0x10>
 80031f4:	f7fe ffe2 	bl	80021bc <HAL_GetTick>
 80031f8:	1bc0      	subs	r0, r0, r7
 80031fa:	42a8      	cmp	r0, r5
 80031fc:	d801      	bhi.n	8003202 <I2C_WaitOnFlagUntilTimeout+0x36>
 80031fe:	2d00      	cmp	r5, #0
 8003200:	d1eb      	bne.n	80031da <I2C_WaitOnFlagUntilTimeout+0xe>
 8003202:	6c63      	ldr	r3, [r4, #68]	; 0x44
 8003204:	f043 0320 	orr.w	r3, r3, #32
 8003208:	6463      	str	r3, [r4, #68]	; 0x44
 800320a:	2320      	movs	r3, #32
 800320c:	f884 3041 	strb.w	r3, [r4, #65]	; 0x41
 8003210:	2300      	movs	r3, #0
 8003212:	f884 3042 	strb.w	r3, [r4, #66]	; 0x42
 8003216:	f884 3040 	strb.w	r3, [r4, #64]	; 0x40
 800321a:	2001      	movs	r0, #1
 800321c:	e8bd 81f0 	ldmia.w	sp!, {r4, r5, r6, r7, r8, pc}

08003220 <I2C_WaitOnTXISFlagUntilTimeout>:
 8003220:	b570      	push	{r4, r5, r6, lr}
 8003222:	4604      	mov	r4, r0
 8003224:	460d      	mov	r5, r1
 8003226:	4616      	mov	r6, r2
 8003228:	6823      	ldr	r3, [r4, #0]
 800322a:	699b      	ldr	r3, [r3, #24]
 800322c:	079b      	lsls	r3, r3, #30
 800322e:	d501      	bpl.n	8003234 <I2C_WaitOnTXISFlagUntilTimeout+0x14>
 8003230:	2000      	movs	r0, #0
 8003232:	bd70      	pop	{r4, r5, r6, pc}
 8003234:	4632      	mov	r2, r6
 8003236:	4629      	mov	r1, r5
 8003238:	4620      	mov	r0, r4
 800323a:	f7ff ff65 	bl	8003108 <I2C_IsAcknowledgeFailed>
 800323e:	b9a0      	cbnz	r0, 800326a <I2C_WaitOnTXISFlagUntilTimeout+0x4a>
 8003240:	1c6a      	adds	r2, r5, #1
 8003242:	d0f1      	beq.n	8003228 <I2C_WaitOnTXISFlagUntilTimeout+0x8>
 8003244:	f7fe ffba 	bl	80021bc <HAL_GetTick>
 8003248:	1b80      	subs	r0, r0, r6
 800324a:	42a8      	cmp	r0, r5
 800324c:	d801      	bhi.n	8003252 <I2C_WaitOnTXISFlagUntilTimeout+0x32>
 800324e:	2d00      	cmp	r5, #0
 8003250:	d1ea      	bne.n	8003228 <I2C_WaitOnTXISFlagUntilTimeout+0x8>
 8003252:	6c63      	ldr	r3, [r4, #68]	; 0x44
 8003254:	f043 0320 	orr.w	r3, r3, #32
 8003258:	6463      	str	r3, [r4, #68]	; 0x44
 800325a:	2320      	movs	r3, #32
 800325c:	f884 3041 	strb.w	r3, [r4, #65]	; 0x41
 8003260:	2300      	movs	r3, #0
 8003262:	f884 3042 	strb.w	r3, [r4, #66]	; 0x42
 8003266:	f884 3040 	strb.w	r3, [r4, #64]	; 0x40
 800326a:	2001      	movs	r0, #1
 800326c:	e7e1      	b.n	8003232 <I2C_WaitOnTXISFlagUntilTimeout+0x12>

0800326e <HAL_I2C_Init>:
 800326e:	b510      	push	{r4, lr}
 8003270:	4604      	mov	r4, r0
 8003272:	2800      	cmp	r0, #0
 8003274:	d04a      	beq.n	800330c <HAL_I2C_Init+0x9e>
 8003276:	f890 3041 	ldrb.w	r3, [r0, #65]	; 0x41
 800327a:	f003 02ff 	and.w	r2, r3, #255	; 0xff
 800327e:	b91b      	cbnz	r3, 8003288 <HAL_I2C_Init+0x1a>
 8003280:	f880 2040 	strb.w	r2, [r0, #64]	; 0x40
 8003284:	f7fe fe4c 	bl	8001f20 <HAL_I2C_MspInit>
 8003288:	2324      	movs	r3, #36	; 0x24
 800328a:	f884 3041 	strb.w	r3, [r4, #65]	; 0x41
 800328e:	6823      	ldr	r3, [r4, #0]
 8003290:	681a      	ldr	r2, [r3, #0]
 8003292:	f022 0201 	bic.w	r2, r2, #1
 8003296:	601a      	str	r2, [r3, #0]
 8003298:	6862      	ldr	r2, [r4, #4]
 800329a:	f022 6270 	bic.w	r2, r2, #251658240	; 0xf000000
 800329e:	611a      	str	r2, [r3, #16]
 80032a0:	689a      	ldr	r2, [r3, #8]
 80032a2:	f422 4200 	bic.w	r2, r2, #32768	; 0x8000
 80032a6:	609a      	str	r2, [r3, #8]
 80032a8:	e9d4 2102 	ldrd	r2, r1, [r4, #8]
 80032ac:	2901      	cmp	r1, #1
 80032ae:	d124      	bne.n	80032fa <HAL_I2C_Init+0x8c>
 80032b0:	f442 4200 	orr.w	r2, r2, #32768	; 0x8000
 80032b4:	609a      	str	r2, [r3, #8]
 80032b6:	685a      	ldr	r2, [r3, #4]
 80032b8:	f042 7200 	orr.w	r2, r2, #33554432	; 0x2000000
 80032bc:	f442 4200 	orr.w	r2, r2, #32768	; 0x8000
 80032c0:	605a      	str	r2, [r3, #4]
 80032c2:	68da      	ldr	r2, [r3, #12]
 80032c4:	f422 4200 	bic.w	r2, r2, #32768	; 0x8000
 80032c8:	60da      	str	r2, [r3, #12]
 80032ca:	e9d4 2104 	ldrd	r2, r1, [r4, #16]
 80032ce:	430a      	orrs	r2, r1
 80032d0:	69a1      	ldr	r1, [r4, #24]
 80032d2:	ea42 2201 	orr.w	r2, r2, r1, lsl #8
 80032d6:	60da      	str	r2, [r3, #12]
 80032d8:	e9d4 2107 	ldrd	r2, r1, [r4, #28]
 80032dc:	430a      	orrs	r2, r1
 80032de:	601a      	str	r2, [r3, #0]
 80032e0:	681a      	ldr	r2, [r3, #0]
 80032e2:	f042 0201 	orr.w	r2, r2, #1
 80032e6:	601a      	str	r2, [r3, #0]
 80032e8:	2000      	movs	r0, #0
 80032ea:	2320      	movs	r3, #32
 80032ec:	6460      	str	r0, [r4, #68]	; 0x44
 80032ee:	f884 3041 	strb.w	r3, [r4, #65]	; 0x41
 80032f2:	6320      	str	r0, [r4, #48]	; 0x30
 80032f4:	f884 0042 	strb.w	r0, [r4, #66]	; 0x42
 80032f8:	bd10      	pop	{r4, pc}
 80032fa:	f442 4204 	orr.w	r2, r2, #33792	; 0x8400
 80032fe:	2902      	cmp	r1, #2
 8003300:	609a      	str	r2, [r3, #8]
 8003302:	bf04      	itt	eq
 8003304:	f44f 6200 	moveq.w	r2, #2048	; 0x800
 8003308:	605a      	streq	r2, [r3, #4]
 800330a:	e7d4      	b.n	80032b6 <HAL_I2C_Init+0x48>
 800330c:	2001      	movs	r0, #1
 800330e:	e7f3      	b.n	80032f8 <HAL_I2C_Init+0x8a>

08003310 <HAL_I2C_Master_Transmit>:
 8003310:	e92d 43f7 	stmdb	sp!, {r0, r1, r2, r4, r5, r6, r7, r8, r9, lr}
 8003314:	4698      	mov	r8, r3
 8003316:	f890 3041 	ldrb.w	r3, [r0, #65]	; 0x41
 800331a:	2b20      	cmp	r3, #32
 800331c:	4604      	mov	r4, r0
 800331e:	460e      	mov	r6, r1
 8003320:	4691      	mov	r9, r2
 8003322:	f040 8082 	bne.w	800342a <HAL_I2C_Master_Transmit+0x11a>
 8003326:	f890 3040 	ldrb.w	r3, [r0, #64]	; 0x40
 800332a:	2b01      	cmp	r3, #1
 800332c:	d07d      	beq.n	800342a <HAL_I2C_Master_Transmit+0x11a>
 800332e:	2701      	movs	r7, #1
 8003330:	f880 7040 	strb.w	r7, [r0, #64]	; 0x40
 8003334:	f7fe ff42 	bl	80021bc <HAL_GetTick>
 8003338:	2319      	movs	r3, #25
 800333a:	4605      	mov	r5, r0
 800333c:	9000      	str	r0, [sp, #0]
 800333e:	463a      	mov	r2, r7
 8003340:	f44f 4100 	mov.w	r1, #32768	; 0x8000
 8003344:	4620      	mov	r0, r4
 8003346:	f7ff ff41 	bl	80031cc <I2C_WaitOnFlagUntilTimeout>
 800334a:	b118      	cbz	r0, 8003354 <HAL_I2C_Master_Transmit+0x44>
 800334c:	2001      	movs	r0, #1
 800334e:	b003      	add	sp, #12
 8003350:	e8bd 83f0 	ldmia.w	sp!, {r4, r5, r6, r7, r8, r9, pc}
 8003354:	2321      	movs	r3, #33	; 0x21
 8003356:	f884 3041 	strb.w	r3, [r4, #65]	; 0x41
 800335a:	2310      	movs	r3, #16
 800335c:	f884 3042 	strb.w	r3, [r4, #66]	; 0x42
 8003360:	6460      	str	r0, [r4, #68]	; 0x44
 8003362:	f8a4 802a 	strh.w	r8, [r4, #42]	; 0x2a
 8003366:	8d63      	ldrh	r3, [r4, #42]	; 0x2a
 8003368:	f8c4 9024 	str.w	r9, [r4, #36]	; 0x24
 800336c:	2bff      	cmp	r3, #255	; 0xff
 800336e:	6360      	str	r0, [r4, #52]	; 0x34
 8003370:	4b2f      	ldr	r3, [pc, #188]	; (8003430 <HAL_I2C_Master_Transmit+0x120>)
 8003372:	d926      	bls.n	80033c2 <HAL_I2C_Master_Transmit+0xb2>
 8003374:	22ff      	movs	r2, #255	; 0xff
 8003376:	8522      	strh	r2, [r4, #40]	; 0x28
 8003378:	9300      	str	r3, [sp, #0]
 800337a:	f04f 7380 	mov.w	r3, #16777216	; 0x1000000
 800337e:	4631      	mov	r1, r6
 8003380:	4620      	mov	r0, r4
 8003382:	f7ff fead 	bl	80030e0 <I2C_TransferConfig>
 8003386:	8d63      	ldrh	r3, [r4, #42]	; 0x2a
 8003388:	990a      	ldr	r1, [sp, #40]	; 0x28
 800338a:	b29b      	uxth	r3, r3
 800338c:	462a      	mov	r2, r5
 800338e:	4620      	mov	r0, r4
 8003390:	b9fb      	cbnz	r3, 80033d2 <HAL_I2C_Master_Transmit+0xc2>
 8003392:	f7ff fef6 	bl	8003182 <I2C_WaitOnSTOPFlagUntilTimeout>
 8003396:	2800      	cmp	r0, #0
 8003398:	d1d8      	bne.n	800334c <HAL_I2C_Master_Transmit+0x3c>
 800339a:	6823      	ldr	r3, [r4, #0]
 800339c:	2120      	movs	r1, #32
 800339e:	61d9      	str	r1, [r3, #28]
 80033a0:	685a      	ldr	r2, [r3, #4]
 80033a2:	f022 72ff 	bic.w	r2, r2, #33423360	; 0x1fe0000
 80033a6:	f422 328b 	bic.w	r2, r2, #71168	; 0x11600
 80033aa:	f422 72ff 	bic.w	r2, r2, #510	; 0x1fe
 80033ae:	f022 0201 	bic.w	r2, r2, #1
 80033b2:	605a      	str	r2, [r3, #4]
 80033b4:	f884 1041 	strb.w	r1, [r4, #65]	; 0x41
 80033b8:	f884 0040 	strb.w	r0, [r4, #64]	; 0x40
 80033bc:	f884 0042 	strb.w	r0, [r4, #66]	; 0x42
 80033c0:	e7c5      	b.n	800334e <HAL_I2C_Master_Transmit+0x3e>
 80033c2:	8d62      	ldrh	r2, [r4, #42]	; 0x2a
 80033c4:	9300      	str	r3, [sp, #0]
 80033c6:	b292      	uxth	r2, r2
 80033c8:	8522      	strh	r2, [r4, #40]	; 0x28
 80033ca:	f04f 7300 	mov.w	r3, #33554432	; 0x2000000
 80033ce:	b2d2      	uxtb	r2, r2
 80033d0:	e7d5      	b.n	800337e <HAL_I2C_Master_Transmit+0x6e>
 80033d2:	f7ff ff25 	bl	8003220 <I2C_WaitOnTXISFlagUntilTimeout>
 80033d6:	2800      	cmp	r0, #0
 80033d8:	d1b8      	bne.n	800334c <HAL_I2C_Master_Transmit+0x3c>
 80033da:	6a63      	ldr	r3, [r4, #36]	; 0x24
 80033dc:	6822      	ldr	r2, [r4, #0]
 80033de:	f813 1b01 	ldrb.w	r1, [r3], #1
 80033e2:	6291      	str	r1, [r2, #40]	; 0x28
 80033e4:	6263      	str	r3, [r4, #36]	; 0x24
 80033e6:	8d63      	ldrh	r3, [r4, #42]	; 0x2a
 80033e8:	8d22      	ldrh	r2, [r4, #40]	; 0x28
 80033ea:	3b01      	subs	r3, #1
 80033ec:	b29b      	uxth	r3, r3
 80033ee:	8563      	strh	r3, [r4, #42]	; 0x2a
 80033f0:	8d63      	ldrh	r3, [r4, #42]	; 0x2a
 80033f2:	3a01      	subs	r2, #1
 80033f4:	b292      	uxth	r2, r2
 80033f6:	b29b      	uxth	r3, r3
 80033f8:	8522      	strh	r2, [r4, #40]	; 0x28
 80033fa:	2b00      	cmp	r3, #0
 80033fc:	d0c3      	beq.n	8003386 <HAL_I2C_Master_Transmit+0x76>
 80033fe:	2a00      	cmp	r2, #0
 8003400:	d1c1      	bne.n	8003386 <HAL_I2C_Master_Transmit+0x76>
 8003402:	9500      	str	r5, [sp, #0]
 8003404:	9b0a      	ldr	r3, [sp, #40]	; 0x28
 8003406:	2180      	movs	r1, #128	; 0x80
 8003408:	4620      	mov	r0, r4
 800340a:	f7ff fedf 	bl	80031cc <I2C_WaitOnFlagUntilTimeout>
 800340e:	2800      	cmp	r0, #0
 8003410:	d19c      	bne.n	800334c <HAL_I2C_Master_Transmit+0x3c>
 8003412:	8d63      	ldrh	r3, [r4, #42]	; 0x2a
 8003414:	2bff      	cmp	r3, #255	; 0xff
 8003416:	d903      	bls.n	8003420 <HAL_I2C_Master_Transmit+0x110>
 8003418:	22ff      	movs	r2, #255	; 0xff
 800341a:	8522      	strh	r2, [r4, #40]	; 0x28
 800341c:	9000      	str	r0, [sp, #0]
 800341e:	e7ac      	b.n	800337a <HAL_I2C_Master_Transmit+0x6a>
 8003420:	8d62      	ldrh	r2, [r4, #42]	; 0x2a
 8003422:	9000      	str	r0, [sp, #0]
 8003424:	b292      	uxth	r2, r2
 8003426:	8522      	strh	r2, [r4, #40]	; 0x28
 8003428:	e7cf      	b.n	80033ca <HAL_I2C_Master_Transmit+0xba>
 800342a:	2002      	movs	r0, #2
 800342c:	e78f      	b.n	800334e <HAL_I2C_Master_Transmit+0x3e>
 800342e:	bf00      	nop
 8003430:	80002000 	.word	0x80002000

08003434 <HAL_I2CEx_ConfigAnalogFilter>:
 8003434:	f890 2041 	ldrb.w	r2, [r0, #65]	; 0x41
 8003438:	b2d2      	uxtb	r2, r2
 800343a:	2a20      	cmp	r2, #32
 800343c:	b510      	push	{r4, lr}
 800343e:	d11d      	bne.n	800347c <HAL_I2CEx_ConfigAnalogFilter+0x48>
 8003440:	f890 3040 	ldrb.w	r3, [r0, #64]	; 0x40
 8003444:	2b01      	cmp	r3, #1
 8003446:	d019      	beq.n	800347c <HAL_I2CEx_ConfigAnalogFilter+0x48>
 8003448:	2324      	movs	r3, #36	; 0x24
 800344a:	f880 3041 	strb.w	r3, [r0, #65]	; 0x41
 800344e:	6803      	ldr	r3, [r0, #0]
 8003450:	681c      	ldr	r4, [r3, #0]
 8003452:	f024 0401 	bic.w	r4, r4, #1
 8003456:	601c      	str	r4, [r3, #0]
 8003458:	681c      	ldr	r4, [r3, #0]
 800345a:	f424 5480 	bic.w	r4, r4, #4096	; 0x1000
 800345e:	601c      	str	r4, [r3, #0]
 8003460:	681c      	ldr	r4, [r3, #0]
 8003462:	4321      	orrs	r1, r4
 8003464:	6019      	str	r1, [r3, #0]
 8003466:	6819      	ldr	r1, [r3, #0]
 8003468:	f041 0101 	orr.w	r1, r1, #1
 800346c:	6019      	str	r1, [r3, #0]
 800346e:	2300      	movs	r3, #0
 8003470:	f880 2041 	strb.w	r2, [r0, #65]	; 0x41
 8003474:	f880 3040 	strb.w	r3, [r0, #64]	; 0x40
 8003478:	4618      	mov	r0, r3
 800347a:	bd10      	pop	{r4, pc}
 800347c:	2002      	movs	r0, #2
 800347e:	e7fc      	b.n	800347a <HAL_I2CEx_ConfigAnalogFilter+0x46>

08003480 <HAL_I2CEx_ConfigDigitalFilter>:
 8003480:	b510      	push	{r4, lr}
 8003482:	f890 4041 	ldrb.w	r4, [r0, #65]	; 0x41
 8003486:	b2e4      	uxtb	r4, r4
 8003488:	2c20      	cmp	r4, #32
 800348a:	d11c      	bne.n	80034c6 <HAL_I2CEx_ConfigDigitalFilter+0x46>
 800348c:	f890 3040 	ldrb.w	r3, [r0, #64]	; 0x40
 8003490:	2b01      	cmp	r3, #1
 8003492:	d018      	beq.n	80034c6 <HAL_I2CEx_ConfigDigitalFilter+0x46>
 8003494:	2324      	movs	r3, #36	; 0x24
 8003496:	f880 3041 	strb.w	r3, [r0, #65]	; 0x41
 800349a:	6803      	ldr	r3, [r0, #0]
 800349c:	681a      	ldr	r2, [r3, #0]
 800349e:	f022 0201 	bic.w	r2, r2, #1
 80034a2:	601a      	str	r2, [r3, #0]
 80034a4:	681a      	ldr	r2, [r3, #0]
 80034a6:	f422 6270 	bic.w	r2, r2, #3840	; 0xf00
 80034aa:	ea42 2101 	orr.w	r1, r2, r1, lsl #8
 80034ae:	6019      	str	r1, [r3, #0]
 80034b0:	681a      	ldr	r2, [r3, #0]
 80034b2:	f042 0201 	orr.w	r2, r2, #1
 80034b6:	601a      	str	r2, [r3, #0]
 80034b8:	2300      	movs	r3, #0
 80034ba:	f880 4041 	strb.w	r4, [r0, #65]	; 0x41
 80034be:	f880 3040 	strb.w	r3, [r0, #64]	; 0x40
 80034c2:	4618      	mov	r0, r3
 80034c4:	bd10      	pop	{r4, pc}
 80034c6:	2002      	movs	r0, #2
 80034c8:	e7fc      	b.n	80034c4 <HAL_I2CEx_ConfigDigitalFilter+0x44>
	...

080034cc <HAL_PWREx_ControlVoltageScaling>:
 80034cc:	4b29      	ldr	r3, [pc, #164]	; (8003574 <HAL_PWREx_ControlVoltageScaling+0xa8>)
 80034ce:	681a      	ldr	r2, [r3, #0]
 80034d0:	bb28      	cbnz	r0, 800351e <HAL_PWREx_ControlVoltageScaling+0x52>
 80034d2:	f402 62c0 	and.w	r2, r2, #1536	; 0x600
 80034d6:	f5b2 6f80 	cmp.w	r2, #1024	; 0x400
 80034da:	f8d3 2080 	ldr.w	r2, [r3, #128]	; 0x80
 80034de:	f422 7280 	bic.w	r2, r2, #256	; 0x100
 80034e2:	f8c3 2080 	str.w	r2, [r3, #128]	; 0x80
 80034e6:	d119      	bne.n	800351c <HAL_PWREx_ControlVoltageScaling+0x50>
 80034e8:	681a      	ldr	r2, [r3, #0]
 80034ea:	f422 62c0 	bic.w	r2, r2, #1536	; 0x600
 80034ee:	f442 7200 	orr.w	r2, r2, #512	; 0x200
 80034f2:	601a      	str	r2, [r3, #0]
 80034f4:	4a20      	ldr	r2, [pc, #128]	; (8003578 <HAL_PWREx_ControlVoltageScaling+0xac>)
 80034f6:	6811      	ldr	r1, [r2, #0]
 80034f8:	2232      	movs	r2, #50	; 0x32
 80034fa:	434a      	muls	r2, r1
 80034fc:	491f      	ldr	r1, [pc, #124]	; (800357c <HAL_PWREx_ControlVoltageScaling+0xb0>)
 80034fe:	fbb2 f2f1 	udiv	r2, r2, r1
 8003502:	4619      	mov	r1, r3
 8003504:	3201      	adds	r2, #1
 8003506:	6958      	ldr	r0, [r3, #20]
 8003508:	0540      	lsls	r0, r0, #21
 800350a:	d500      	bpl.n	800350e <HAL_PWREx_ControlVoltageScaling+0x42>
 800350c:	b922      	cbnz	r2, 8003518 <HAL_PWREx_ControlVoltageScaling+0x4c>
 800350e:	694b      	ldr	r3, [r1, #20]
 8003510:	055b      	lsls	r3, r3, #21
 8003512:	d52d      	bpl.n	8003570 <HAL_PWREx_ControlVoltageScaling+0xa4>
 8003514:	2003      	movs	r0, #3
 8003516:	4770      	bx	lr
 8003518:	3a01      	subs	r2, #1
 800351a:	e7f4      	b.n	8003506 <HAL_PWREx_ControlVoltageScaling+0x3a>
 800351c:	4770      	bx	lr
 800351e:	f5b0 7f00 	cmp.w	r0, #512	; 0x200
 8003522:	d120      	bne.n	8003566 <HAL_PWREx_ControlVoltageScaling+0x9a>
 8003524:	f402 62c0 	and.w	r2, r2, #1536	; 0x600
 8003528:	f5b2 6f80 	cmp.w	r2, #1024	; 0x400
 800352c:	f8d3 2080 	ldr.w	r2, [r3, #128]	; 0x80
 8003530:	f442 7280 	orr.w	r2, r2, #256	; 0x100
 8003534:	f8c3 2080 	str.w	r2, [r3, #128]	; 0x80
 8003538:	d11a      	bne.n	8003570 <HAL_PWREx_ControlVoltageScaling+0xa4>
 800353a:	681a      	ldr	r2, [r3, #0]
 800353c:	f422 62c0 	bic.w	r2, r2, #1536	; 0x600
 8003540:	f442 7200 	orr.w	r2, r2, #512	; 0x200
 8003544:	601a      	str	r2, [r3, #0]
 8003546:	4a0c      	ldr	r2, [pc, #48]	; (8003578 <HAL_PWREx_ControlVoltageScaling+0xac>)
 8003548:	6811      	ldr	r1, [r2, #0]
 800354a:	2232      	movs	r2, #50	; 0x32
 800354c:	434a      	muls	r2, r1
 800354e:	490b      	ldr	r1, [pc, #44]	; (800357c <HAL_PWREx_ControlVoltageScaling+0xb0>)
 8003550:	fbb2 f2f1 	udiv	r2, r2, r1
 8003554:	4619      	mov	r1, r3
 8003556:	3201      	adds	r2, #1
 8003558:	6958      	ldr	r0, [r3, #20]
 800355a:	0540      	lsls	r0, r0, #21
 800355c:	d5d7      	bpl.n	800350e <HAL_PWREx_ControlVoltageScaling+0x42>
 800355e:	2a00      	cmp	r2, #0
 8003560:	d0d5      	beq.n	800350e <HAL_PWREx_ControlVoltageScaling+0x42>
 8003562:	3a01      	subs	r2, #1
 8003564:	e7f8      	b.n	8003558 <HAL_PWREx_ControlVoltageScaling+0x8c>
 8003566:	f422 62c0 	bic.w	r2, r2, #1536	; 0x600
 800356a:	f442 6280 	orr.w	r2, r2, #1024	; 0x400
 800356e:	601a      	str	r2, [r3, #0]
 8003570:	2000      	movs	r0, #0
 8003572:	4770      	bx	lr
 8003574:	40007000 	.word	0x40007000
 8003578:	200000a4 	.word	0x200000a4
 800357c:	000f4240 	.word	0x000f4240

08003580 <HAL_PWREx_DisableUCPDDeadBattery>:
 8003580:	4a02      	ldr	r2, [pc, #8]	; (800358c <HAL_PWREx_DisableUCPDDeadBattery+0xc>)
 8003582:	6893      	ldr	r3, [r2, #8]
 8003584:	f443 4380 	orr.w	r3, r3, #16384	; 0x4000
 8003588:	6093      	str	r3, [r2, #8]
 800358a:	4770      	bx	lr
 800358c:	40007000 	.word	0x40007000

08003590 <HAL_RCC_OscConfig>:
 8003590:	e92d 41f3 	stmdb	sp!, {r0, r1, r4, r5, r6, r7, r8, lr}
 8003594:	4604      	mov	r4, r0
 8003596:	b908      	cbnz	r0, 800359c <HAL_RCC_OscConfig+0xc>
 8003598:	2001      	movs	r0, #1
 800359a:	e03f      	b.n	800361c <HAL_RCC_OscConfig+0x8c>
 800359c:	6803      	ldr	r3, [r0, #0]
 800359e:	07df      	lsls	r7, r3, #31
 80035a0:	d414      	bmi.n	80035cc <HAL_RCC_OscConfig+0x3c>
 80035a2:	6823      	ldr	r3, [r4, #0]
 80035a4:	079e      	lsls	r6, r3, #30
 80035a6:	d45a      	bmi.n	800365e <HAL_RCC_OscConfig+0xce>
 80035a8:	6823      	ldr	r3, [r4, #0]
 80035aa:	071e      	lsls	r6, r3, #28
 80035ac:	f100 80a3 	bmi.w	80036f6 <HAL_RCC_OscConfig+0x166>
 80035b0:	6823      	ldr	r3, [r4, #0]
 80035b2:	075d      	lsls	r5, r3, #29
 80035b4:	f100 80ca 	bmi.w	800374c <HAL_RCC_OscConfig+0x1bc>
 80035b8:	6823      	ldr	r3, [r4, #0]
 80035ba:	069b      	lsls	r3, r3, #26
 80035bc:	f100 8131 	bmi.w	8003822 <HAL_RCC_OscConfig+0x292>
 80035c0:	69e0      	ldr	r0, [r4, #28]
 80035c2:	2800      	cmp	r0, #0
 80035c4:	f040 815e 	bne.w	8003884 <HAL_RCC_OscConfig+0x2f4>
 80035c8:	2000      	movs	r0, #0
 80035ca:	e027      	b.n	800361c <HAL_RCC_OscConfig+0x8c>
 80035cc:	4daa      	ldr	r5, [pc, #680]	; (8003878 <HAL_RCC_OscConfig+0x2e8>)
 80035ce:	68ab      	ldr	r3, [r5, #8]
 80035d0:	68ea      	ldr	r2, [r5, #12]
 80035d2:	f003 030c 	and.w	r3, r3, #12
 80035d6:	2b0c      	cmp	r3, #12
 80035d8:	d10a      	bne.n	80035f0 <HAL_RCC_OscConfig+0x60>
 80035da:	f002 0303 	and.w	r3, r2, #3
 80035de:	2b03      	cmp	r3, #3
 80035e0:	d108      	bne.n	80035f4 <HAL_RCC_OscConfig+0x64>
 80035e2:	682b      	ldr	r3, [r5, #0]
 80035e4:	039d      	lsls	r5, r3, #14
 80035e6:	d5dc      	bpl.n	80035a2 <HAL_RCC_OscConfig+0x12>
 80035e8:	6863      	ldr	r3, [r4, #4]
 80035ea:	2b00      	cmp	r3, #0
 80035ec:	d1d9      	bne.n	80035a2 <HAL_RCC_OscConfig+0x12>
 80035ee:	e7d3      	b.n	8003598 <HAL_RCC_OscConfig+0x8>
 80035f0:	2b08      	cmp	r3, #8
 80035f2:	e7f5      	b.n	80035e0 <HAL_RCC_OscConfig+0x50>
 80035f4:	6863      	ldr	r3, [r4, #4]
 80035f6:	f5b3 3f80 	cmp.w	r3, #65536	; 0x10000
 80035fa:	d112      	bne.n	8003622 <HAL_RCC_OscConfig+0x92>
 80035fc:	682b      	ldr	r3, [r5, #0]
 80035fe:	f443 3380 	orr.w	r3, r3, #65536	; 0x10000
 8003602:	602b      	str	r3, [r5, #0]
 8003604:	f7fe fdda 	bl	80021bc <HAL_GetTick>
 8003608:	4606      	mov	r6, r0
 800360a:	682b      	ldr	r3, [r5, #0]
 800360c:	0398      	lsls	r0, r3, #14
 800360e:	d4c8      	bmi.n	80035a2 <HAL_RCC_OscConfig+0x12>
 8003610:	f7fe fdd4 	bl	80021bc <HAL_GetTick>
 8003614:	1b80      	subs	r0, r0, r6
 8003616:	2864      	cmp	r0, #100	; 0x64
 8003618:	d9f7      	bls.n	800360a <HAL_RCC_OscConfig+0x7a>
 800361a:	2003      	movs	r0, #3
 800361c:	b002      	add	sp, #8
 800361e:	e8bd 81f0 	ldmia.w	sp!, {r4, r5, r6, r7, r8, pc}
 8003622:	f5b3 2fa0 	cmp.w	r3, #327680	; 0x50000
 8003626:	d104      	bne.n	8003632 <HAL_RCC_OscConfig+0xa2>
 8003628:	682b      	ldr	r3, [r5, #0]
 800362a:	f443 2380 	orr.w	r3, r3, #262144	; 0x40000
 800362e:	602b      	str	r3, [r5, #0]
 8003630:	e7e4      	b.n	80035fc <HAL_RCC_OscConfig+0x6c>
 8003632:	682a      	ldr	r2, [r5, #0]
 8003634:	f422 3280 	bic.w	r2, r2, #65536	; 0x10000
 8003638:	602a      	str	r2, [r5, #0]
 800363a:	682a      	ldr	r2, [r5, #0]
 800363c:	f422 2280 	bic.w	r2, r2, #262144	; 0x40000
 8003640:	602a      	str	r2, [r5, #0]
 8003642:	2b00      	cmp	r3, #0
 8003644:	d1de      	bne.n	8003604 <HAL_RCC_OscConfig+0x74>
 8003646:	f7fe fdb9 	bl	80021bc <HAL_GetTick>
 800364a:	4606      	mov	r6, r0
 800364c:	682b      	ldr	r3, [r5, #0]
 800364e:	0399      	lsls	r1, r3, #14
 8003650:	d5a7      	bpl.n	80035a2 <HAL_RCC_OscConfig+0x12>
 8003652:	f7fe fdb3 	bl	80021bc <HAL_GetTick>
 8003656:	1b80      	subs	r0, r0, r6
 8003658:	2864      	cmp	r0, #100	; 0x64
 800365a:	d9f7      	bls.n	800364c <HAL_RCC_OscConfig+0xbc>
 800365c:	e7dd      	b.n	800361a <HAL_RCC_OscConfig+0x8a>
 800365e:	4d86      	ldr	r5, [pc, #536]	; (8003878 <HAL_RCC_OscConfig+0x2e8>)
 8003660:	68ab      	ldr	r3, [r5, #8]
 8003662:	68ea      	ldr	r2, [r5, #12]
 8003664:	f003 030c 	and.w	r3, r3, #12
 8003668:	2b0c      	cmp	r3, #12
 800366a:	d117      	bne.n	800369c <HAL_RCC_OscConfig+0x10c>
 800366c:	f002 0303 	and.w	r3, r2, #3
 8003670:	2b02      	cmp	r3, #2
 8003672:	d115      	bne.n	80036a0 <HAL_RCC_OscConfig+0x110>
 8003674:	682b      	ldr	r3, [r5, #0]
 8003676:	055a      	lsls	r2, r3, #21
 8003678:	d502      	bpl.n	8003680 <HAL_RCC_OscConfig+0xf0>
 800367a:	68e3      	ldr	r3, [r4, #12]
 800367c:	2b00      	cmp	r3, #0
 800367e:	d08b      	beq.n	8003598 <HAL_RCC_OscConfig+0x8>
 8003680:	686b      	ldr	r3, [r5, #4]
 8003682:	6922      	ldr	r2, [r4, #16]
 8003684:	f023 43fe 	bic.w	r3, r3, #2130706432	; 0x7f000000
 8003688:	ea43 6302 	orr.w	r3, r3, r2, lsl #24
 800368c:	606b      	str	r3, [r5, #4]
 800368e:	4b7b      	ldr	r3, [pc, #492]	; (800387c <HAL_RCC_OscConfig+0x2ec>)
 8003690:	6818      	ldr	r0, [r3, #0]
 8003692:	f7fe fd51 	bl	8002138 <HAL_InitTick>
 8003696:	2800      	cmp	r0, #0
 8003698:	d086      	beq.n	80035a8 <HAL_RCC_OscConfig+0x18>
 800369a:	e77d      	b.n	8003598 <HAL_RCC_OscConfig+0x8>
 800369c:	2b04      	cmp	r3, #4
 800369e:	e7e8      	b.n	8003672 <HAL_RCC_OscConfig+0xe2>
 80036a0:	68e3      	ldr	r3, [r4, #12]
 80036a2:	b1bb      	cbz	r3, 80036d4 <HAL_RCC_OscConfig+0x144>
 80036a4:	682b      	ldr	r3, [r5, #0]
 80036a6:	f443 7380 	orr.w	r3, r3, #256	; 0x100
 80036aa:	602b      	str	r3, [r5, #0]
 80036ac:	f7fe fd86 	bl	80021bc <HAL_GetTick>
 80036b0:	4606      	mov	r6, r0
 80036b2:	682b      	ldr	r3, [r5, #0]
 80036b4:	055b      	lsls	r3, r3, #21
 80036b6:	d507      	bpl.n	80036c8 <HAL_RCC_OscConfig+0x138>
 80036b8:	686b      	ldr	r3, [r5, #4]
 80036ba:	6922      	ldr	r2, [r4, #16]
 80036bc:	f023 43fe 	bic.w	r3, r3, #2130706432	; 0x7f000000
 80036c0:	ea43 6302 	orr.w	r3, r3, r2, lsl #24
 80036c4:	606b      	str	r3, [r5, #4]
 80036c6:	e76f      	b.n	80035a8 <HAL_RCC_OscConfig+0x18>
 80036c8:	f7fe fd78 	bl	80021bc <HAL_GetTick>
 80036cc:	1b80      	subs	r0, r0, r6
 80036ce:	2802      	cmp	r0, #2
 80036d0:	d9ef      	bls.n	80036b2 <HAL_RCC_OscConfig+0x122>
 80036d2:	e7a2      	b.n	800361a <HAL_RCC_OscConfig+0x8a>
 80036d4:	682b      	ldr	r3, [r5, #0]
 80036d6:	f423 7380 	bic.w	r3, r3, #256	; 0x100
 80036da:	602b      	str	r3, [r5, #0]
 80036dc:	f7fe fd6e 	bl	80021bc <HAL_GetTick>
 80036e0:	4606      	mov	r6, r0
 80036e2:	682b      	ldr	r3, [r5, #0]
 80036e4:	055f      	lsls	r7, r3, #21
 80036e6:	f57f af5f 	bpl.w	80035a8 <HAL_RCC_OscConfig+0x18>
 80036ea:	f7fe fd67 	bl	80021bc <HAL_GetTick>
 80036ee:	1b80      	subs	r0, r0, r6
 80036f0:	2802      	cmp	r0, #2
 80036f2:	d9f6      	bls.n	80036e2 <HAL_RCC_OscConfig+0x152>
 80036f4:	e791      	b.n	800361a <HAL_RCC_OscConfig+0x8a>
 80036f6:	6963      	ldr	r3, [r4, #20]
 80036f8:	4d5f      	ldr	r5, [pc, #380]	; (8003878 <HAL_RCC_OscConfig+0x2e8>)
 80036fa:	b19b      	cbz	r3, 8003724 <HAL_RCC_OscConfig+0x194>
 80036fc:	f8d5 3094 	ldr.w	r3, [r5, #148]	; 0x94
 8003700:	f043 0301 	orr.w	r3, r3, #1
 8003704:	f8c5 3094 	str.w	r3, [r5, #148]	; 0x94
 8003708:	f7fe fd58 	bl	80021bc <HAL_GetTick>
 800370c:	4606      	mov	r6, r0
 800370e:	f8d5 3094 	ldr.w	r3, [r5, #148]	; 0x94
 8003712:	0798      	lsls	r0, r3, #30
 8003714:	f53f af4c 	bmi.w	80035b0 <HAL_RCC_OscConfig+0x20>
 8003718:	f7fe fd50 	bl	80021bc <HAL_GetTick>
 800371c:	1b80      	subs	r0, r0, r6
 800371e:	2802      	cmp	r0, #2
 8003720:	d9f5      	bls.n	800370e <HAL_RCC_OscConfig+0x17e>
 8003722:	e77a      	b.n	800361a <HAL_RCC_OscConfig+0x8a>
 8003724:	f8d5 3094 	ldr.w	r3, [r5, #148]	; 0x94
 8003728:	f023 0301 	bic.w	r3, r3, #1
 800372c:	f8c5 3094 	str.w	r3, [r5, #148]	; 0x94
 8003730:	f7fe fd44 	bl	80021bc <HAL_GetTick>
 8003734:	4606      	mov	r6, r0
 8003736:	f8d5 3094 	ldr.w	r3, [r5, #148]	; 0x94
 800373a:	0799      	lsls	r1, r3, #30
 800373c:	f57f af38 	bpl.w	80035b0 <HAL_RCC_OscConfig+0x20>
 8003740:	f7fe fd3c 	bl	80021bc <HAL_GetTick>
 8003744:	1b80      	subs	r0, r0, r6
 8003746:	2802      	cmp	r0, #2
 8003748:	d9f5      	bls.n	8003736 <HAL_RCC_OscConfig+0x1a6>
 800374a:	e766      	b.n	800361a <HAL_RCC_OscConfig+0x8a>
 800374c:	4d4a      	ldr	r5, [pc, #296]	; (8003878 <HAL_RCC_OscConfig+0x2e8>)
 800374e:	6dab      	ldr	r3, [r5, #88]	; 0x58
 8003750:	00da      	lsls	r2, r3, #3
 8003752:	d427      	bmi.n	80037a4 <HAL_RCC_OscConfig+0x214>
 8003754:	6dab      	ldr	r3, [r5, #88]	; 0x58
 8003756:	f043 5380 	orr.w	r3, r3, #268435456	; 0x10000000
 800375a:	65ab      	str	r3, [r5, #88]	; 0x58
 800375c:	6dab      	ldr	r3, [r5, #88]	; 0x58
 800375e:	f003 5380 	and.w	r3, r3, #268435456	; 0x10000000
 8003762:	9301      	str	r3, [sp, #4]
 8003764:	9b01      	ldr	r3, [sp, #4]
 8003766:	2701      	movs	r7, #1
 8003768:	4e45      	ldr	r6, [pc, #276]	; (8003880 <HAL_RCC_OscConfig+0x2f0>)
 800376a:	6833      	ldr	r3, [r6, #0]
 800376c:	05db      	lsls	r3, r3, #23
 800376e:	d51b      	bpl.n	80037a8 <HAL_RCC_OscConfig+0x218>
 8003770:	68a3      	ldr	r3, [r4, #8]
 8003772:	2b01      	cmp	r3, #1
 8003774:	d129      	bne.n	80037ca <HAL_RCC_OscConfig+0x23a>
 8003776:	f8d5 3090 	ldr.w	r3, [r5, #144]	; 0x90
 800377a:	f043 0301 	orr.w	r3, r3, #1
 800377e:	f8c5 3090 	str.w	r3, [r5, #144]	; 0x90
 8003782:	f7fe fd1b 	bl	80021bc <HAL_GetTick>
 8003786:	f241 3888 	movw	r8, #5000	; 0x1388
 800378a:	4606      	mov	r6, r0
 800378c:	f8d5 3090 	ldr.w	r3, [r5, #144]	; 0x90
 8003790:	0799      	lsls	r1, r3, #30
 8003792:	d540      	bpl.n	8003816 <HAL_RCC_OscConfig+0x286>
 8003794:	2f00      	cmp	r7, #0
 8003796:	f43f af0f 	beq.w	80035b8 <HAL_RCC_OscConfig+0x28>
 800379a:	6dab      	ldr	r3, [r5, #88]	; 0x58
 800379c:	f023 5380 	bic.w	r3, r3, #268435456	; 0x10000000
 80037a0:	65ab      	str	r3, [r5, #88]	; 0x58
 80037a2:	e709      	b.n	80035b8 <HAL_RCC_OscConfig+0x28>
 80037a4:	2700      	movs	r7, #0
 80037a6:	e7df      	b.n	8003768 <HAL_RCC_OscConfig+0x1d8>
 80037a8:	6833      	ldr	r3, [r6, #0]
 80037aa:	f443 7380 	orr.w	r3, r3, #256	; 0x100
 80037ae:	6033      	str	r3, [r6, #0]
 80037b0:	f7fe fd04 	bl	80021bc <HAL_GetTick>
 80037b4:	4680      	mov	r8, r0
 80037b6:	6833      	ldr	r3, [r6, #0]
 80037b8:	05d8      	lsls	r0, r3, #23
 80037ba:	d4d9      	bmi.n	8003770 <HAL_RCC_OscConfig+0x1e0>
 80037bc:	f7fe fcfe 	bl	80021bc <HAL_GetTick>
 80037c0:	eba0 0008 	sub.w	r0, r0, r8
 80037c4:	2802      	cmp	r0, #2
 80037c6:	d9f6      	bls.n	80037b6 <HAL_RCC_OscConfig+0x226>
 80037c8:	e727      	b.n	800361a <HAL_RCC_OscConfig+0x8a>
 80037ca:	2b05      	cmp	r3, #5
 80037cc:	d106      	bne.n	80037dc <HAL_RCC_OscConfig+0x24c>
 80037ce:	f8d5 3090 	ldr.w	r3, [r5, #144]	; 0x90
 80037d2:	f043 0304 	orr.w	r3, r3, #4
 80037d6:	f8c5 3090 	str.w	r3, [r5, #144]	; 0x90
 80037da:	e7cc      	b.n	8003776 <HAL_RCC_OscConfig+0x1e6>
 80037dc:	f8d5 2090 	ldr.w	r2, [r5, #144]	; 0x90
 80037e0:	f022 0201 	bic.w	r2, r2, #1
 80037e4:	f8c5 2090 	str.w	r2, [r5, #144]	; 0x90
 80037e8:	f8d5 2090 	ldr.w	r2, [r5, #144]	; 0x90
 80037ec:	f022 0204 	bic.w	r2, r2, #4
 80037f0:	f8c5 2090 	str.w	r2, [r5, #144]	; 0x90
 80037f4:	2b00      	cmp	r3, #0
 80037f6:	d1c4      	bne.n	8003782 <HAL_RCC_OscConfig+0x1f2>
 80037f8:	f7fe fce0 	bl	80021bc <HAL_GetTick>
 80037fc:	f241 3888 	movw	r8, #5000	; 0x1388
 8003800:	4606      	mov	r6, r0
 8003802:	f8d5 3090 	ldr.w	r3, [r5, #144]	; 0x90
 8003806:	079a      	lsls	r2, r3, #30
 8003808:	d5c4      	bpl.n	8003794 <HAL_RCC_OscConfig+0x204>
 800380a:	f7fe fcd7 	bl	80021bc <HAL_GetTick>
 800380e:	1b80      	subs	r0, r0, r6
 8003810:	4540      	cmp	r0, r8
 8003812:	d9f6      	bls.n	8003802 <HAL_RCC_OscConfig+0x272>
 8003814:	e701      	b.n	800361a <HAL_RCC_OscConfig+0x8a>
 8003816:	f7fe fcd1 	bl	80021bc <HAL_GetTick>
 800381a:	1b80      	subs	r0, r0, r6
 800381c:	4540      	cmp	r0, r8
 800381e:	d9b5      	bls.n	800378c <HAL_RCC_OscConfig+0x1fc>
 8003820:	e6fb      	b.n	800361a <HAL_RCC_OscConfig+0x8a>
 8003822:	69a3      	ldr	r3, [r4, #24]
 8003824:	4d14      	ldr	r5, [pc, #80]	; (8003878 <HAL_RCC_OscConfig+0x2e8>)
 8003826:	b19b      	cbz	r3, 8003850 <HAL_RCC_OscConfig+0x2c0>
 8003828:	f8d5 3098 	ldr.w	r3, [r5, #152]	; 0x98
 800382c:	f043 0301 	orr.w	r3, r3, #1
 8003830:	f8c5 3098 	str.w	r3, [r5, #152]	; 0x98
 8003834:	f7fe fcc2 	bl	80021bc <HAL_GetTick>
 8003838:	4606      	mov	r6, r0
 800383a:	f8d5 3098 	ldr.w	r3, [r5, #152]	; 0x98
 800383e:	079f      	lsls	r7, r3, #30
 8003840:	f53f aebe 	bmi.w	80035c0 <HAL_RCC_OscConfig+0x30>
 8003844:	f7fe fcba 	bl	80021bc <HAL_GetTick>
 8003848:	1b80      	subs	r0, r0, r6
 800384a:	2802      	cmp	r0, #2
 800384c:	d9f5      	bls.n	800383a <HAL_RCC_OscConfig+0x2aa>
 800384e:	e6e4      	b.n	800361a <HAL_RCC_OscConfig+0x8a>
 8003850:	f8d5 3098 	ldr.w	r3, [r5, #152]	; 0x98
 8003854:	f023 0301 	bic.w	r3, r3, #1
 8003858:	f8c5 3098 	str.w	r3, [r5, #152]	; 0x98
 800385c:	f7fe fcae 	bl	80021bc <HAL_GetTick>
 8003860:	4606      	mov	r6, r0
 8003862:	f8d5 3098 	ldr.w	r3, [r5, #152]	; 0x98
 8003866:	0798      	lsls	r0, r3, #30
 8003868:	f57f aeaa 	bpl.w	80035c0 <HAL_RCC_OscConfig+0x30>
 800386c:	f7fe fca6 	bl	80021bc <HAL_GetTick>
 8003870:	1b80      	subs	r0, r0, r6
 8003872:	2802      	cmp	r0, #2
 8003874:	d9f5      	bls.n	8003862 <HAL_RCC_OscConfig+0x2d2>
 8003876:	e6d0      	b.n	800361a <HAL_RCC_OscConfig+0x8a>
 8003878:	40021000 	.word	0x40021000
 800387c:	200000ac 	.word	0x200000ac
 8003880:	40007000 	.word	0x40007000
 8003884:	4b49      	ldr	r3, [pc, #292]	; (80039ac <HAL_RCC_OscConfig+0x41c>)
 8003886:	689a      	ldr	r2, [r3, #8]
 8003888:	f002 020c 	and.w	r2, r2, #12
 800388c:	2a0c      	cmp	r2, #12
 800388e:	461d      	mov	r5, r3
 8003890:	d057      	beq.n	8003942 <HAL_RCC_OscConfig+0x3b2>
 8003892:	681b      	ldr	r3, [r3, #0]
 8003894:	2802      	cmp	r0, #2
 8003896:	f023 7380 	bic.w	r3, r3, #16777216	; 0x1000000
 800389a:	602b      	str	r3, [r5, #0]
 800389c:	d13a      	bne.n	8003914 <HAL_RCC_OscConfig+0x384>
 800389e:	f7fe fc8d 	bl	80021bc <HAL_GetTick>
 80038a2:	4606      	mov	r6, r0
 80038a4:	682b      	ldr	r3, [r5, #0]
 80038a6:	0199      	lsls	r1, r3, #6
 80038a8:	d42e      	bmi.n	8003908 <HAL_RCC_OscConfig+0x378>
 80038aa:	68ea      	ldr	r2, [r5, #12]
 80038ac:	4b40      	ldr	r3, [pc, #256]	; (80039b0 <HAL_RCC_OscConfig+0x420>)
 80038ae:	4013      	ands	r3, r2
 80038b0:	6a22      	ldr	r2, [r4, #32]
 80038b2:	4313      	orrs	r3, r2
 80038b4:	6aa2      	ldr	r2, [r4, #40]	; 0x28
 80038b6:	ea43 2302 	orr.w	r3, r3, r2, lsl #8
 80038ba:	6ae2      	ldr	r2, [r4, #44]	; 0x2c
 80038bc:	ea43 63c2 	orr.w	r3, r3, r2, lsl #27
 80038c0:	6a62      	ldr	r2, [r4, #36]	; 0x24
 80038c2:	3a01      	subs	r2, #1
 80038c4:	ea43 1302 	orr.w	r3, r3, r2, lsl #4
 80038c8:	6b22      	ldr	r2, [r4, #48]	; 0x30
 80038ca:	0852      	lsrs	r2, r2, #1
 80038cc:	3a01      	subs	r2, #1
 80038ce:	ea43 5342 	orr.w	r3, r3, r2, lsl #21
 80038d2:	6b62      	ldr	r2, [r4, #52]	; 0x34
 80038d4:	0852      	lsrs	r2, r2, #1
 80038d6:	3a01      	subs	r2, #1
 80038d8:	ea43 6342 	orr.w	r3, r3, r2, lsl #25
 80038dc:	60eb      	str	r3, [r5, #12]
 80038de:	682b      	ldr	r3, [r5, #0]
 80038e0:	f043 7380 	orr.w	r3, r3, #16777216	; 0x1000000
 80038e4:	602b      	str	r3, [r5, #0]
 80038e6:	68eb      	ldr	r3, [r5, #12]
 80038e8:	f043 7380 	orr.w	r3, r3, #16777216	; 0x1000000
 80038ec:	60eb      	str	r3, [r5, #12]
 80038ee:	f7fe fc65 	bl	80021bc <HAL_GetTick>
 80038f2:	4604      	mov	r4, r0
 80038f4:	682b      	ldr	r3, [r5, #0]
 80038f6:	019a      	lsls	r2, r3, #6
 80038f8:	f53f ae66 	bmi.w	80035c8 <HAL_RCC_OscConfig+0x38>
 80038fc:	f7fe fc5e 	bl	80021bc <HAL_GetTick>
 8003900:	1b00      	subs	r0, r0, r4
 8003902:	2802      	cmp	r0, #2
 8003904:	d9f6      	bls.n	80038f4 <HAL_RCC_OscConfig+0x364>
 8003906:	e688      	b.n	800361a <HAL_RCC_OscConfig+0x8a>
 8003908:	f7fe fc58 	bl	80021bc <HAL_GetTick>
 800390c:	1b80      	subs	r0, r0, r6
 800390e:	2802      	cmp	r0, #2
 8003910:	d9c8      	bls.n	80038a4 <HAL_RCC_OscConfig+0x314>
 8003912:	e682      	b.n	800361a <HAL_RCC_OscConfig+0x8a>
 8003914:	68eb      	ldr	r3, [r5, #12]
 8003916:	f023 0303 	bic.w	r3, r3, #3
 800391a:	60eb      	str	r3, [r5, #12]
 800391c:	68eb      	ldr	r3, [r5, #12]
 800391e:	f023 7388 	bic.w	r3, r3, #17825792	; 0x1100000
 8003922:	f423 3380 	bic.w	r3, r3, #65536	; 0x10000
 8003926:	60eb      	str	r3, [r5, #12]
 8003928:	f7fe fc48 	bl	80021bc <HAL_GetTick>
 800392c:	4604      	mov	r4, r0
 800392e:	682b      	ldr	r3, [r5, #0]
 8003930:	019b      	lsls	r3, r3, #6
 8003932:	f57f ae49 	bpl.w	80035c8 <HAL_RCC_OscConfig+0x38>
 8003936:	f7fe fc41 	bl	80021bc <HAL_GetTick>
 800393a:	1b00      	subs	r0, r0, r4
 800393c:	2802      	cmp	r0, #2
 800393e:	d9f6      	bls.n	800392e <HAL_RCC_OscConfig+0x39e>
 8003940:	e66b      	b.n	800361a <HAL_RCC_OscConfig+0x8a>
 8003942:	2801      	cmp	r0, #1
 8003944:	f43f ae6a 	beq.w	800361c <HAL_RCC_OscConfig+0x8c>
 8003948:	68db      	ldr	r3, [r3, #12]
 800394a:	6a22      	ldr	r2, [r4, #32]
 800394c:	f003 0103 	and.w	r1, r3, #3
 8003950:	4291      	cmp	r1, r2
 8003952:	f47f ae21 	bne.w	8003598 <HAL_RCC_OscConfig+0x8>
 8003956:	6a61      	ldr	r1, [r4, #36]	; 0x24
 8003958:	f003 02f0 	and.w	r2, r3, #240	; 0xf0
 800395c:	3901      	subs	r1, #1
 800395e:	ebb2 1f01 	cmp.w	r2, r1, lsl #4
 8003962:	f47f ae19 	bne.w	8003598 <HAL_RCC_OscConfig+0x8>
 8003966:	6aa1      	ldr	r1, [r4, #40]	; 0x28
 8003968:	f403 42fe 	and.w	r2, r3, #32512	; 0x7f00
 800396c:	ebb2 2f01 	cmp.w	r2, r1, lsl #8
 8003970:	f47f ae12 	bne.w	8003598 <HAL_RCC_OscConfig+0x8>
 8003974:	6ae1      	ldr	r1, [r4, #44]	; 0x2c
 8003976:	f003 4278 	and.w	r2, r3, #4160749568	; 0xf8000000
 800397a:	ebb2 6fc1 	cmp.w	r2, r1, lsl #27
 800397e:	f47f ae0b 	bne.w	8003598 <HAL_RCC_OscConfig+0x8>
 8003982:	6b22      	ldr	r2, [r4, #48]	; 0x30
 8003984:	0852      	lsrs	r2, r2, #1
 8003986:	f403 01c0 	and.w	r1, r3, #6291456	; 0x600000
 800398a:	3a01      	subs	r2, #1
 800398c:	ebb1 5f42 	cmp.w	r1, r2, lsl #21
 8003990:	f47f ae02 	bne.w	8003598 <HAL_RCC_OscConfig+0x8>
 8003994:	6b62      	ldr	r2, [r4, #52]	; 0x34
 8003996:	0852      	lsrs	r2, r2, #1
 8003998:	3a01      	subs	r2, #1
 800399a:	f003 63c0 	and.w	r3, r3, #100663296	; 0x6000000
 800399e:	ebb3 6f42 	cmp.w	r3, r2, lsl #25
 80039a2:	bf14      	ite	ne
 80039a4:	2001      	movne	r0, #1
 80039a6:	2000      	moveq	r0, #0
 80039a8:	e638      	b.n	800361c <HAL_RCC_OscConfig+0x8c>
 80039aa:	bf00      	nop
 80039ac:	40021000 	.word	0x40021000
 80039b0:	019f800c 	.word	0x019f800c

080039b4 <HAL_RCC_GetSysClockFreq>:
 80039b4:	4b18      	ldr	r3, [pc, #96]	; (8003a18 <HAL_RCC_GetSysClockFreq+0x64>)
 80039b6:	689a      	ldr	r2, [r3, #8]
 80039b8:	f002 020c 	and.w	r2, r2, #12
 80039bc:	2a04      	cmp	r2, #4
 80039be:	d025      	beq.n	8003a0c <HAL_RCC_GetSysClockFreq+0x58>
 80039c0:	689a      	ldr	r2, [r3, #8]
 80039c2:	f002 020c 	and.w	r2, r2, #12
 80039c6:	2a08      	cmp	r2, #8
 80039c8:	d022      	beq.n	8003a10 <HAL_RCC_GetSysClockFreq+0x5c>
 80039ca:	689a      	ldr	r2, [r3, #8]
 80039cc:	f002 020c 	and.w	r2, r2, #12
 80039d0:	2a0c      	cmp	r2, #12
 80039d2:	d11f      	bne.n	8003a14 <HAL_RCC_GetSysClockFreq+0x60>
 80039d4:	68d9      	ldr	r1, [r3, #12]
 80039d6:	68d8      	ldr	r0, [r3, #12]
 80039d8:	f001 0103 	and.w	r1, r1, #3
 80039dc:	2903      	cmp	r1, #3
 80039de:	68d9      	ldr	r1, [r3, #12]
 80039e0:	68db      	ldr	r3, [r3, #12]
 80039e2:	f3c3 6341 	ubfx	r3, r3, #25, #2
 80039e6:	f3c0 1003 	ubfx	r0, r0, #4, #4
 80039ea:	f3c1 2106 	ubfx	r1, r1, #8, #7
 80039ee:	f103 0301 	add.w	r3, r3, #1
 80039f2:	f100 0201 	add.w	r2, r0, #1
 80039f6:	ea4f 0343 	mov.w	r3, r3, lsl #1
 80039fa:	bf0c      	ite	eq
 80039fc:	4807      	ldreq	r0, [pc, #28]	; (8003a1c <HAL_RCC_GetSysClockFreq+0x68>)
 80039fe:	4808      	ldrne	r0, [pc, #32]	; (8003a20 <HAL_RCC_GetSysClockFreq+0x6c>)
 8003a00:	fbb0 f0f2 	udiv	r0, r0, r2
 8003a04:	4348      	muls	r0, r1
 8003a06:	fbb0 f0f3 	udiv	r0, r0, r3
 8003a0a:	4770      	bx	lr
 8003a0c:	4804      	ldr	r0, [pc, #16]	; (8003a20 <HAL_RCC_GetSysClockFreq+0x6c>)
 8003a0e:	4770      	bx	lr
 8003a10:	4802      	ldr	r0, [pc, #8]	; (8003a1c <HAL_RCC_GetSysClockFreq+0x68>)
 8003a12:	4770      	bx	lr
 8003a14:	2000      	movs	r0, #0
 8003a16:	4770      	bx	lr
 8003a18:	40021000 	.word	0x40021000
 8003a1c:	007a1200 	.word	0x007a1200
 8003a20:	00f42400 	.word	0x00f42400

08003a24 <HAL_RCC_ClockConfig>:
 8003a24:	e92d 43f8 	stmdb	sp!, {r3, r4, r5, r6, r7, r8, r9, lr}
 8003a28:	460d      	mov	r5, r1
 8003a2a:	4606      	mov	r6, r0
 8003a2c:	b910      	cbnz	r0, 8003a34 <HAL_RCC_ClockConfig+0x10>
 8003a2e:	2001      	movs	r0, #1
 8003a30:	e8bd 83f8 	ldmia.w	sp!, {r3, r4, r5, r6, r7, r8, r9, pc}
 8003a34:	4a6d      	ldr	r2, [pc, #436]	; (8003bec <HAL_RCC_ClockConfig+0x1c8>)
 8003a36:	6813      	ldr	r3, [r2, #0]
 8003a38:	f003 030f 	and.w	r3, r3, #15
 8003a3c:	428b      	cmp	r3, r1
 8003a3e:	d345      	bcc.n	8003acc <HAL_RCC_ClockConfig+0xa8>
 8003a40:	6831      	ldr	r1, [r6, #0]
 8003a42:	f011 0701 	ands.w	r7, r1, #1
 8003a46:	d14c      	bne.n	8003ae2 <HAL_RCC_ClockConfig+0xbe>
 8003a48:	6832      	ldr	r2, [r6, #0]
 8003a4a:	0791      	lsls	r1, r2, #30
 8003a4c:	f140 80a8 	bpl.w	8003ba0 <HAL_RCC_ClockConfig+0x17c>
 8003a50:	4b67      	ldr	r3, [pc, #412]	; (8003bf0 <HAL_RCC_ClockConfig+0x1cc>)
 8003a52:	f012 0f04 	tst.w	r2, #4
 8003a56:	bf1e      	ittt	ne
 8003a58:	6899      	ldrne	r1, [r3, #8]
 8003a5a:	f441 61e0 	orrne.w	r1, r1, #1792	; 0x700
 8003a5e:	6099      	strne	r1, [r3, #8]
 8003a60:	0712      	lsls	r2, r2, #28
 8003a62:	bf41      	itttt	mi
 8003a64:	689a      	ldrmi	r2, [r3, #8]
 8003a66:	f422 527c 	bicmi.w	r2, r2, #16128	; 0x3f00
 8003a6a:	f442 62e0 	orrmi.w	r2, r2, #1792	; 0x700
 8003a6e:	609a      	strmi	r2, [r3, #8]
 8003a70:	689a      	ldr	r2, [r3, #8]
 8003a72:	68b1      	ldr	r1, [r6, #8]
 8003a74:	f022 02f0 	bic.w	r2, r2, #240	; 0xf0
 8003a78:	430a      	orrs	r2, r1
 8003a7a:	609a      	str	r2, [r3, #8]
 8003a7c:	4c5b      	ldr	r4, [pc, #364]	; (8003bec <HAL_RCC_ClockConfig+0x1c8>)
 8003a7e:	6823      	ldr	r3, [r4, #0]
 8003a80:	f003 030f 	and.w	r3, r3, #15
 8003a84:	42ab      	cmp	r3, r5
 8003a86:	f200 8094 	bhi.w	8003bb2 <HAL_RCC_ClockConfig+0x18e>
 8003a8a:	6832      	ldr	r2, [r6, #0]
 8003a8c:	4c58      	ldr	r4, [pc, #352]	; (8003bf0 <HAL_RCC_ClockConfig+0x1cc>)
 8003a8e:	f012 0f04 	tst.w	r2, #4
 8003a92:	f040 80a4 	bne.w	8003bde <HAL_RCC_ClockConfig+0x1ba>
 8003a96:	0713      	lsls	r3, r2, #28
 8003a98:	d506      	bpl.n	8003aa8 <HAL_RCC_ClockConfig+0x84>
 8003a9a:	68a3      	ldr	r3, [r4, #8]
 8003a9c:	6932      	ldr	r2, [r6, #16]
 8003a9e:	f423 5360 	bic.w	r3, r3, #14336	; 0x3800
 8003aa2:	ea43 03c2 	orr.w	r3, r3, r2, lsl #3
 8003aa6:	60a3      	str	r3, [r4, #8]
 8003aa8:	f7ff ff84 	bl	80039b4 <HAL_RCC_GetSysClockFreq>
 8003aac:	68a3      	ldr	r3, [r4, #8]
 8003aae:	4a51      	ldr	r2, [pc, #324]	; (8003bf4 <HAL_RCC_ClockConfig+0x1d0>)
 8003ab0:	f3c3 1303 	ubfx	r3, r3, #4, #4
 8003ab4:	5cd3      	ldrb	r3, [r2, r3]
 8003ab6:	f003 031f 	and.w	r3, r3, #31
 8003aba:	40d8      	lsrs	r0, r3
 8003abc:	4b4e      	ldr	r3, [pc, #312]	; (8003bf8 <HAL_RCC_ClockConfig+0x1d4>)
 8003abe:	6018      	str	r0, [r3, #0]
 8003ac0:	4b4e      	ldr	r3, [pc, #312]	; (8003bfc <HAL_RCC_ClockConfig+0x1d8>)
 8003ac2:	6818      	ldr	r0, [r3, #0]
 8003ac4:	e8bd 43f8 	ldmia.w	sp!, {r3, r4, r5, r6, r7, r8, r9, lr}
 8003ac8:	f7fe bb36 	b.w	8002138 <HAL_InitTick>
 8003acc:	6813      	ldr	r3, [r2, #0]
 8003ace:	f023 030f 	bic.w	r3, r3, #15
 8003ad2:	430b      	orrs	r3, r1
 8003ad4:	6013      	str	r3, [r2, #0]
 8003ad6:	6813      	ldr	r3, [r2, #0]
 8003ad8:	f003 030f 	and.w	r3, r3, #15
 8003adc:	428b      	cmp	r3, r1
 8003ade:	d1a6      	bne.n	8003a2e <HAL_RCC_ClockConfig+0xa>
 8003ae0:	e7ae      	b.n	8003a40 <HAL_RCC_ClockConfig+0x1c>
 8003ae2:	6873      	ldr	r3, [r6, #4]
 8003ae4:	4c42      	ldr	r4, [pc, #264]	; (8003bf0 <HAL_RCC_ClockConfig+0x1cc>)
 8003ae6:	2b03      	cmp	r3, #3
 8003ae8:	d14a      	bne.n	8003b80 <HAL_RCC_ClockConfig+0x15c>
 8003aea:	6823      	ldr	r3, [r4, #0]
 8003aec:	019f      	lsls	r7, r3, #6
 8003aee:	d59e      	bpl.n	8003a2e <HAL_RCC_ClockConfig+0xa>
 8003af0:	68e0      	ldr	r0, [r4, #12]
 8003af2:	68e3      	ldr	r3, [r4, #12]
 8003af4:	f3c3 1303 	ubfx	r3, r3, #4, #4
 8003af8:	1c5a      	adds	r2, r3, #1
 8003afa:	f000 0303 	and.w	r3, r0, #3
 8003afe:	2b03      	cmp	r3, #3
 8003b00:	68e0      	ldr	r0, [r4, #12]
 8003b02:	bf0c      	ite	eq
 8003b04:	4b3e      	ldreq	r3, [pc, #248]	; (8003c00 <HAL_RCC_ClockConfig+0x1dc>)
 8003b06:	4b3f      	ldrne	r3, [pc, #252]	; (8003c04 <HAL_RCC_ClockConfig+0x1e0>)
 8003b08:	fbb3 f3f2 	udiv	r3, r3, r2
 8003b0c:	68e2      	ldr	r2, [r4, #12]
 8003b0e:	f3c2 6241 	ubfx	r2, r2, #25, #2
 8003b12:	f3c0 2006 	ubfx	r0, r0, #8, #7
 8003b16:	3201      	adds	r2, #1
 8003b18:	0052      	lsls	r2, r2, #1
 8003b1a:	4343      	muls	r3, r0
 8003b1c:	fbb3 f3f2 	udiv	r3, r3, r2
 8003b20:	4a39      	ldr	r2, [pc, #228]	; (8003c08 <HAL_RCC_ClockConfig+0x1e4>)
 8003b22:	4293      	cmp	r3, r2
 8003b24:	d81b      	bhi.n	8003b5e <HAL_RCC_ClockConfig+0x13a>
 8003b26:	2700      	movs	r7, #0
 8003b28:	68a3      	ldr	r3, [r4, #8]
 8003b2a:	6872      	ldr	r2, [r6, #4]
 8003b2c:	f023 0303 	bic.w	r3, r3, #3
 8003b30:	4313      	orrs	r3, r2
 8003b32:	60a3      	str	r3, [r4, #8]
 8003b34:	f7fe fb42 	bl	80021bc <HAL_GetTick>
 8003b38:	f241 3988 	movw	r9, #5000	; 0x1388
 8003b3c:	4680      	mov	r8, r0
 8003b3e:	68a3      	ldr	r3, [r4, #8]
 8003b40:	6872      	ldr	r2, [r6, #4]
 8003b42:	f003 030c 	and.w	r3, r3, #12
 8003b46:	ebb3 0f82 	cmp.w	r3, r2, lsl #2
 8003b4a:	f43f af7d 	beq.w	8003a48 <HAL_RCC_ClockConfig+0x24>
 8003b4e:	f7fe fb35 	bl	80021bc <HAL_GetTick>
 8003b52:	eba0 0008 	sub.w	r0, r0, r8
 8003b56:	4548      	cmp	r0, r9
 8003b58:	d9f1      	bls.n	8003b3e <HAL_RCC_ClockConfig+0x11a>
 8003b5a:	2003      	movs	r0, #3
 8003b5c:	e768      	b.n	8003a30 <HAL_RCC_ClockConfig+0xc>
 8003b5e:	68a3      	ldr	r3, [r4, #8]
 8003b60:	f013 0ff0 	tst.w	r3, #240	; 0xf0
 8003b64:	d004      	beq.n	8003b70 <HAL_RCC_ClockConfig+0x14c>
 8003b66:	0788      	lsls	r0, r1, #30
 8003b68:	d5dd      	bpl.n	8003b26 <HAL_RCC_ClockConfig+0x102>
 8003b6a:	68b3      	ldr	r3, [r6, #8]
 8003b6c:	2b00      	cmp	r3, #0
 8003b6e:	d1da      	bne.n	8003b26 <HAL_RCC_ClockConfig+0x102>
 8003b70:	68a3      	ldr	r3, [r4, #8]
 8003b72:	f023 03f0 	bic.w	r3, r3, #240	; 0xf0
 8003b76:	f043 0380 	orr.w	r3, r3, #128	; 0x80
 8003b7a:	60a3      	str	r3, [r4, #8]
 8003b7c:	2780      	movs	r7, #128	; 0x80
 8003b7e:	e7d3      	b.n	8003b28 <HAL_RCC_ClockConfig+0x104>
 8003b80:	2b02      	cmp	r3, #2
 8003b82:	6823      	ldr	r3, [r4, #0]
 8003b84:	d109      	bne.n	8003b9a <HAL_RCC_ClockConfig+0x176>
 8003b86:	f413 3f00 	tst.w	r3, #131072	; 0x20000
 8003b8a:	f43f af50 	beq.w	8003a2e <HAL_RCC_ClockConfig+0xa>
 8003b8e:	f7ff ff11 	bl	80039b4 <HAL_RCC_GetSysClockFreq>
 8003b92:	4b1d      	ldr	r3, [pc, #116]	; (8003c08 <HAL_RCC_ClockConfig+0x1e4>)
 8003b94:	4298      	cmp	r0, r3
 8003b96:	d9c6      	bls.n	8003b26 <HAL_RCC_ClockConfig+0x102>
 8003b98:	e7ea      	b.n	8003b70 <HAL_RCC_ClockConfig+0x14c>
 8003b9a:	f413 6f80 	tst.w	r3, #1024	; 0x400
 8003b9e:	e7f4      	b.n	8003b8a <HAL_RCC_ClockConfig+0x166>
 8003ba0:	2f00      	cmp	r7, #0
 8003ba2:	f43f af6b 	beq.w	8003a7c <HAL_RCC_ClockConfig+0x58>
 8003ba6:	4a12      	ldr	r2, [pc, #72]	; (8003bf0 <HAL_RCC_ClockConfig+0x1cc>)
 8003ba8:	6893      	ldr	r3, [r2, #8]
 8003baa:	f023 03f0 	bic.w	r3, r3, #240	; 0xf0
 8003bae:	6093      	str	r3, [r2, #8]
 8003bb0:	e764      	b.n	8003a7c <HAL_RCC_ClockConfig+0x58>
 8003bb2:	6823      	ldr	r3, [r4, #0]
 8003bb4:	f023 030f 	bic.w	r3, r3, #15
 8003bb8:	432b      	orrs	r3, r5
 8003bba:	6023      	str	r3, [r4, #0]
 8003bbc:	f7fe fafe 	bl	80021bc <HAL_GetTick>
 8003bc0:	f241 3888 	movw	r8, #5000	; 0x1388
 8003bc4:	4607      	mov	r7, r0
 8003bc6:	6823      	ldr	r3, [r4, #0]
 8003bc8:	f003 030f 	and.w	r3, r3, #15
 8003bcc:	42ab      	cmp	r3, r5
 8003bce:	f43f af5c 	beq.w	8003a8a <HAL_RCC_ClockConfig+0x66>
 8003bd2:	f7fe faf3 	bl	80021bc <HAL_GetTick>
 8003bd6:	1bc0      	subs	r0, r0, r7
 8003bd8:	4540      	cmp	r0, r8
 8003bda:	d9f4      	bls.n	8003bc6 <HAL_RCC_ClockConfig+0x1a2>
 8003bdc:	e7bd      	b.n	8003b5a <HAL_RCC_ClockConfig+0x136>
 8003bde:	68a3      	ldr	r3, [r4, #8]
 8003be0:	68f1      	ldr	r1, [r6, #12]
 8003be2:	f423 63e0 	bic.w	r3, r3, #1792	; 0x700
 8003be6:	430b      	orrs	r3, r1
 8003be8:	60a3      	str	r3, [r4, #8]
 8003bea:	e754      	b.n	8003a96 <HAL_RCC_ClockConfig+0x72>
 8003bec:	40022000 	.word	0x40022000
 8003bf0:	40021000 	.word	0x40021000
 8003bf4:	080066ff 	.word	0x080066ff
 8003bf8:	200000a4 	.word	0x200000a4
 8003bfc:	200000ac 	.word	0x200000ac
 8003c00:	007a1200 	.word	0x007a1200
 8003c04:	00f42400 	.word	0x00f42400
 8003c08:	04c4b400 	.word	0x04c4b400

08003c0c <HAL_RCC_GetPCLK1Freq>:
 8003c0c:	4b05      	ldr	r3, [pc, #20]	; (8003c24 <HAL_RCC_GetPCLK1Freq+0x18>)
 8003c0e:	4a06      	ldr	r2, [pc, #24]	; (8003c28 <HAL_RCC_GetPCLK1Freq+0x1c>)
 8003c10:	689b      	ldr	r3, [r3, #8]
 8003c12:	f3c3 2302 	ubfx	r3, r3, #8, #3
 8003c16:	5cd3      	ldrb	r3, [r2, r3]
 8003c18:	4a04      	ldr	r2, [pc, #16]	; (8003c2c <HAL_RCC_GetPCLK1Freq+0x20>)
 8003c1a:	6810      	ldr	r0, [r2, #0]
 8003c1c:	f003 031f 	and.w	r3, r3, #31
 8003c20:	40d8      	lsrs	r0, r3
 8003c22:	4770      	bx	lr
 8003c24:	40021000 	.word	0x40021000
 8003c28:	0800670f 	.word	0x0800670f
 8003c2c:	200000a4 	.word	0x200000a4

08003c30 <HAL_RCC_GetPCLK2Freq>:
 8003c30:	4b05      	ldr	r3, [pc, #20]	; (8003c48 <HAL_RCC_GetPCLK2Freq+0x18>)
 8003c32:	4a06      	ldr	r2, [pc, #24]	; (8003c4c <HAL_RCC_GetPCLK2Freq+0x1c>)
 8003c34:	689b      	ldr	r3, [r3, #8]
 8003c36:	f3c3 23c2 	ubfx	r3, r3, #11, #3
 8003c3a:	5cd3      	ldrb	r3, [r2, r3]
 8003c3c:	4a04      	ldr	r2, [pc, #16]	; (8003c50 <HAL_RCC_GetPCLK2Freq+0x20>)
 8003c3e:	6810      	ldr	r0, [r2, #0]
 8003c40:	f003 031f 	and.w	r3, r3, #31
 8003c44:	40d8      	lsrs	r0, r3
 8003c46:	4770      	bx	lr
 8003c48:	40021000 	.word	0x40021000
 8003c4c:	0800670f 	.word	0x0800670f
 8003c50:	200000a4 	.word	0x200000a4

08003c54 <HAL_RCCEx_PeriphCLKConfig>:
 8003c54:	e92d 41f3 	stmdb	sp!, {r0, r1, r4, r5, r6, r7, r8, lr}
 8003c58:	4604      	mov	r4, r0
 8003c5a:	6800      	ldr	r0, [r0, #0]
 8003c5c:	f410 2000 	ands.w	r0, r0, #524288	; 0x80000
 8003c60:	d04d      	beq.n	8003cfe <HAL_RCCEx_PeriphCLKConfig+0xaa>
 8003c62:	4d98      	ldr	r5, [pc, #608]	; (8003ec4 <HAL_RCCEx_PeriphCLKConfig+0x270>)
 8003c64:	6dab      	ldr	r3, [r5, #88]	; 0x58
 8003c66:	00d8      	lsls	r0, r3, #3
 8003c68:	d43b      	bmi.n	8003ce2 <HAL_RCCEx_PeriphCLKConfig+0x8e>
 8003c6a:	6dab      	ldr	r3, [r5, #88]	; 0x58
 8003c6c:	f043 5380 	orr.w	r3, r3, #268435456	; 0x10000000
 8003c70:	65ab      	str	r3, [r5, #88]	; 0x58
 8003c72:	6dab      	ldr	r3, [r5, #88]	; 0x58
 8003c74:	f003 5380 	and.w	r3, r3, #268435456	; 0x10000000
 8003c78:	9301      	str	r3, [sp, #4]
 8003c7a:	9b01      	ldr	r3, [sp, #4]
 8003c7c:	2601      	movs	r6, #1
 8003c7e:	4f92      	ldr	r7, [pc, #584]	; (8003ec8 <HAL_RCCEx_PeriphCLKConfig+0x274>)
 8003c80:	683b      	ldr	r3, [r7, #0]
 8003c82:	f443 7380 	orr.w	r3, r3, #256	; 0x100
 8003c86:	603b      	str	r3, [r7, #0]
 8003c88:	f7fe fa98 	bl	80021bc <HAL_GetTick>
 8003c8c:	4680      	mov	r8, r0
 8003c8e:	683b      	ldr	r3, [r7, #0]
 8003c90:	05d9      	lsls	r1, r3, #23
 8003c92:	d528      	bpl.n	8003ce6 <HAL_RCCEx_PeriphCLKConfig+0x92>
 8003c94:	f8d5 3090 	ldr.w	r3, [r5, #144]	; 0x90
 8003c98:	f413 7340 	ands.w	r3, r3, #768	; 0x300
 8003c9c:	d014      	beq.n	8003cc8 <HAL_RCCEx_PeriphCLKConfig+0x74>
 8003c9e:	6c22      	ldr	r2, [r4, #64]	; 0x40
 8003ca0:	429a      	cmp	r2, r3
 8003ca2:	d011      	beq.n	8003cc8 <HAL_RCCEx_PeriphCLKConfig+0x74>
 8003ca4:	f8d5 3090 	ldr.w	r3, [r5, #144]	; 0x90
 8003ca8:	f8d5 2090 	ldr.w	r2, [r5, #144]	; 0x90
 8003cac:	f442 3280 	orr.w	r2, r2, #65536	; 0x10000
 8003cb0:	f8c5 2090 	str.w	r2, [r5, #144]	; 0x90
 8003cb4:	f8d5 2090 	ldr.w	r2, [r5, #144]	; 0x90
 8003cb8:	f423 7340 	bic.w	r3, r3, #768	; 0x300
 8003cbc:	f422 3280 	bic.w	r2, r2, #65536	; 0x10000
 8003cc0:	f8c5 2090 	str.w	r2, [r5, #144]	; 0x90
 8003cc4:	f8c5 3090 	str.w	r3, [r5, #144]	; 0x90
 8003cc8:	07da      	lsls	r2, r3, #31
 8003cca:	f100 80eb 	bmi.w	8003ea4 <HAL_RCCEx_PeriphCLKConfig+0x250>
 8003cce:	f8d5 3090 	ldr.w	r3, [r5, #144]	; 0x90
 8003cd2:	6c22      	ldr	r2, [r4, #64]	; 0x40
 8003cd4:	f423 7340 	bic.w	r3, r3, #768	; 0x300
 8003cd8:	4313      	orrs	r3, r2
 8003cda:	f8c5 3090 	str.w	r3, [r5, #144]	; 0x90
 8003cde:	2000      	movs	r0, #0
 8003ce0:	e008      	b.n	8003cf4 <HAL_RCCEx_PeriphCLKConfig+0xa0>
 8003ce2:	2600      	movs	r6, #0
 8003ce4:	e7cb      	b.n	8003c7e <HAL_RCCEx_PeriphCLKConfig+0x2a>
 8003ce6:	f7fe fa69 	bl	80021bc <HAL_GetTick>
 8003cea:	eba0 0008 	sub.w	r0, r0, r8
 8003cee:	2802      	cmp	r0, #2
 8003cf0:	d9cd      	bls.n	8003c8e <HAL_RCCEx_PeriphCLKConfig+0x3a>
 8003cf2:	2003      	movs	r0, #3
 8003cf4:	b11e      	cbz	r6, 8003cfe <HAL_RCCEx_PeriphCLKConfig+0xaa>
 8003cf6:	6dab      	ldr	r3, [r5, #88]	; 0x58
 8003cf8:	f023 5380 	bic.w	r3, r3, #268435456	; 0x10000000
 8003cfc:	65ab      	str	r3, [r5, #88]	; 0x58
 8003cfe:	6823      	ldr	r3, [r4, #0]
 8003d00:	07de      	lsls	r6, r3, #31
 8003d02:	d508      	bpl.n	8003d16 <HAL_RCCEx_PeriphCLKConfig+0xc2>
 8003d04:	496f      	ldr	r1, [pc, #444]	; (8003ec4 <HAL_RCCEx_PeriphCLKConfig+0x270>)
 8003d06:	6865      	ldr	r5, [r4, #4]
 8003d08:	f8d1 2088 	ldr.w	r2, [r1, #136]	; 0x88
 8003d0c:	f022 0203 	bic.w	r2, r2, #3
 8003d10:	432a      	orrs	r2, r5
 8003d12:	f8c1 2088 	str.w	r2, [r1, #136]	; 0x88
 8003d16:	079d      	lsls	r5, r3, #30
 8003d18:	d508      	bpl.n	8003d2c <HAL_RCCEx_PeriphCLKConfig+0xd8>
 8003d1a:	496a      	ldr	r1, [pc, #424]	; (8003ec4 <HAL_RCCEx_PeriphCLKConfig+0x270>)
 8003d1c:	68a5      	ldr	r5, [r4, #8]
 8003d1e:	f8d1 2088 	ldr.w	r2, [r1, #136]	; 0x88
 8003d22:	f022 020c 	bic.w	r2, r2, #12
 8003d26:	432a      	orrs	r2, r5
 8003d28:	f8c1 2088 	str.w	r2, [r1, #136]	; 0x88
 8003d2c:	0759      	lsls	r1, r3, #29
 8003d2e:	d508      	bpl.n	8003d42 <HAL_RCCEx_PeriphCLKConfig+0xee>
 8003d30:	4964      	ldr	r1, [pc, #400]	; (8003ec4 <HAL_RCCEx_PeriphCLKConfig+0x270>)
 8003d32:	68e5      	ldr	r5, [r4, #12]
 8003d34:	f8d1 2088 	ldr.w	r2, [r1, #136]	; 0x88
 8003d38:	f022 0230 	bic.w	r2, r2, #48	; 0x30
 8003d3c:	432a      	orrs	r2, r5
 8003d3e:	f8c1 2088 	str.w	r2, [r1, #136]	; 0x88
 8003d42:	071a      	lsls	r2, r3, #28
 8003d44:	d508      	bpl.n	8003d58 <HAL_RCCEx_PeriphCLKConfig+0x104>
 8003d46:	495f      	ldr	r1, [pc, #380]	; (8003ec4 <HAL_RCCEx_PeriphCLKConfig+0x270>)
 8003d48:	6925      	ldr	r5, [r4, #16]
 8003d4a:	f8d1 2088 	ldr.w	r2, [r1, #136]	; 0x88
 8003d4e:	f022 02c0 	bic.w	r2, r2, #192	; 0xc0
 8003d52:	432a      	orrs	r2, r5
 8003d54:	f8c1 2088 	str.w	r2, [r1, #136]	; 0x88
 8003d58:	069f      	lsls	r7, r3, #26
 8003d5a:	d508      	bpl.n	8003d6e <HAL_RCCEx_PeriphCLKConfig+0x11a>
 8003d5c:	4959      	ldr	r1, [pc, #356]	; (8003ec4 <HAL_RCCEx_PeriphCLKConfig+0x270>)
 8003d5e:	6965      	ldr	r5, [r4, #20]
 8003d60:	f8d1 2088 	ldr.w	r2, [r1, #136]	; 0x88
 8003d64:	f422 6240 	bic.w	r2, r2, #3072	; 0xc00
 8003d68:	432a      	orrs	r2, r5
 8003d6a:	f8c1 2088 	str.w	r2, [r1, #136]	; 0x88
 8003d6e:	065e      	lsls	r6, r3, #25
 8003d70:	d508      	bpl.n	8003d84 <HAL_RCCEx_PeriphCLKConfig+0x130>
 8003d72:	4954      	ldr	r1, [pc, #336]	; (8003ec4 <HAL_RCCEx_PeriphCLKConfig+0x270>)
 8003d74:	69a5      	ldr	r5, [r4, #24]
 8003d76:	f8d1 2088 	ldr.w	r2, [r1, #136]	; 0x88
 8003d7a:	f422 5240 	bic.w	r2, r2, #12288	; 0x3000
 8003d7e:	432a      	orrs	r2, r5
 8003d80:	f8c1 2088 	str.w	r2, [r1, #136]	; 0x88
 8003d84:	061d      	lsls	r5, r3, #24
 8003d86:	d508      	bpl.n	8003d9a <HAL_RCCEx_PeriphCLKConfig+0x146>
 8003d88:	494e      	ldr	r1, [pc, #312]	; (8003ec4 <HAL_RCCEx_PeriphCLKConfig+0x270>)
 8003d8a:	69e5      	ldr	r5, [r4, #28]
 8003d8c:	f8d1 2088 	ldr.w	r2, [r1, #136]	; 0x88
 8003d90:	f422 4240 	bic.w	r2, r2, #49152	; 0xc000
 8003d94:	432a      	orrs	r2, r5
 8003d96:	f8c1 2088 	str.w	r2, [r1, #136]	; 0x88
 8003d9a:	05d9      	lsls	r1, r3, #23
 8003d9c:	d508      	bpl.n	8003db0 <HAL_RCCEx_PeriphCLKConfig+0x15c>
 8003d9e:	4949      	ldr	r1, [pc, #292]	; (8003ec4 <HAL_RCCEx_PeriphCLKConfig+0x270>)
 8003da0:	6a25      	ldr	r5, [r4, #32]
 8003da2:	f8d1 2088 	ldr.w	r2, [r1, #136]	; 0x88
 8003da6:	f422 3240 	bic.w	r2, r2, #196608	; 0x30000
 8003daa:	432a      	orrs	r2, r5
 8003dac:	f8c1 2088 	str.w	r2, [r1, #136]	; 0x88
 8003db0:	059a      	lsls	r2, r3, #22
 8003db2:	d508      	bpl.n	8003dc6 <HAL_RCCEx_PeriphCLKConfig+0x172>
 8003db4:	4943      	ldr	r1, [pc, #268]	; (8003ec4 <HAL_RCCEx_PeriphCLKConfig+0x270>)
 8003db6:	6a65      	ldr	r5, [r4, #36]	; 0x24
 8003db8:	f8d1 2088 	ldr.w	r2, [r1, #136]	; 0x88
 8003dbc:	f422 2240 	bic.w	r2, r2, #786432	; 0xc0000
 8003dc0:	432a      	orrs	r2, r5
 8003dc2:	f8c1 2088 	str.w	r2, [r1, #136]	; 0x88
 8003dc6:	055f      	lsls	r7, r3, #21
 8003dc8:	d50f      	bpl.n	8003dea <HAL_RCCEx_PeriphCLKConfig+0x196>
 8003dca:	493e      	ldr	r1, [pc, #248]	; (8003ec4 <HAL_RCCEx_PeriphCLKConfig+0x270>)
 8003dcc:	6aa5      	ldr	r5, [r4, #40]	; 0x28
 8003dce:	f8d1 2088 	ldr.w	r2, [r1, #136]	; 0x88
 8003dd2:	f422 1240 	bic.w	r2, r2, #3145728	; 0x300000
 8003dd6:	432a      	orrs	r2, r5
 8003dd8:	f8c1 2088 	str.w	r2, [r1, #136]	; 0x88
 8003ddc:	f5b5 1f80 	cmp.w	r5, #1048576	; 0x100000
 8003de0:	bf02      	ittt	eq
 8003de2:	68ca      	ldreq	r2, [r1, #12]
 8003de4:	f442 1280 	orreq.w	r2, r2, #1048576	; 0x100000
 8003de8:	60ca      	streq	r2, [r1, #12]
 8003dea:	051e      	lsls	r6, r3, #20
 8003dec:	d50f      	bpl.n	8003e0e <HAL_RCCEx_PeriphCLKConfig+0x1ba>
 8003dee:	4935      	ldr	r1, [pc, #212]	; (8003ec4 <HAL_RCCEx_PeriphCLKConfig+0x270>)
 8003df0:	6ae5      	ldr	r5, [r4, #44]	; 0x2c
 8003df2:	f8d1 2088 	ldr.w	r2, [r1, #136]	; 0x88
 8003df6:	f422 0240 	bic.w	r2, r2, #12582912	; 0xc00000
 8003dfa:	432a      	orrs	r2, r5
 8003dfc:	f8c1 2088 	str.w	r2, [r1, #136]	; 0x88
 8003e00:	f5b5 0f80 	cmp.w	r5, #4194304	; 0x400000
 8003e04:	bf02      	ittt	eq
 8003e06:	68ca      	ldreq	r2, [r1, #12]
 8003e08:	f442 1280 	orreq.w	r2, r2, #1048576	; 0x100000
 8003e0c:	60ca      	streq	r2, [r1, #12]
 8003e0e:	04dd      	lsls	r5, r3, #19
 8003e10:	d50f      	bpl.n	8003e32 <HAL_RCCEx_PeriphCLKConfig+0x1de>
 8003e12:	492c      	ldr	r1, [pc, #176]	; (8003ec4 <HAL_RCCEx_PeriphCLKConfig+0x270>)
 8003e14:	6b25      	ldr	r5, [r4, #48]	; 0x30
 8003e16:	f8d1 2088 	ldr.w	r2, [r1, #136]	; 0x88
 8003e1a:	f022 7240 	bic.w	r2, r2, #50331648	; 0x3000000
 8003e1e:	432a      	orrs	r2, r5
 8003e20:	f8c1 2088 	str.w	r2, [r1, #136]	; 0x88
 8003e24:	f1b5 7f80 	cmp.w	r5, #16777216	; 0x1000000
 8003e28:	bf02      	ittt	eq
 8003e2a:	68ca      	ldreq	r2, [r1, #12]
 8003e2c:	f442 1280 	orreq.w	r2, r2, #1048576	; 0x100000
 8003e30:	60ca      	streq	r2, [r1, #12]
 8003e32:	0499      	lsls	r1, r3, #18
 8003e34:	d50f      	bpl.n	8003e56 <HAL_RCCEx_PeriphCLKConfig+0x202>
 8003e36:	4923      	ldr	r1, [pc, #140]	; (8003ec4 <HAL_RCCEx_PeriphCLKConfig+0x270>)
 8003e38:	6b65      	ldr	r5, [r4, #52]	; 0x34
 8003e3a:	f8d1 2088 	ldr.w	r2, [r1, #136]	; 0x88
 8003e3e:	f022 6240 	bic.w	r2, r2, #201326592	; 0xc000000
 8003e42:	432a      	orrs	r2, r5
 8003e44:	f8c1 2088 	str.w	r2, [r1, #136]	; 0x88
 8003e48:	f1b5 6f00 	cmp.w	r5, #134217728	; 0x8000000
 8003e4c:	bf02      	ittt	eq
 8003e4e:	68ca      	ldreq	r2, [r1, #12]
 8003e50:	f442 1280 	orreq.w	r2, r2, #1048576	; 0x100000
 8003e54:	60ca      	streq	r2, [r1, #12]
 8003e56:	045a      	lsls	r2, r3, #17
 8003e58:	d50f      	bpl.n	8003e7a <HAL_RCCEx_PeriphCLKConfig+0x226>
 8003e5a:	491a      	ldr	r1, [pc, #104]	; (8003ec4 <HAL_RCCEx_PeriphCLKConfig+0x270>)
 8003e5c:	6ba5      	ldr	r5, [r4, #56]	; 0x38
 8003e5e:	f8d1 2088 	ldr.w	r2, [r1, #136]	; 0x88
 8003e62:	f022 6240 	bic.w	r2, r2, #201326592	; 0xc000000
 8003e66:	432a      	orrs	r2, r5
 8003e68:	f8c1 2088 	str.w	r2, [r1, #136]	; 0x88
 8003e6c:	f1b5 6f00 	cmp.w	r5, #134217728	; 0x8000000
 8003e70:	bf02      	ittt	eq
 8003e72:	68ca      	ldreq	r2, [r1, #12]
 8003e74:	f442 1280 	orreq.w	r2, r2, #1048576	; 0x100000
 8003e78:	60ca      	streq	r2, [r1, #12]
 8003e7a:	041b      	lsls	r3, r3, #16
 8003e7c:	d50f      	bpl.n	8003e9e <HAL_RCCEx_PeriphCLKConfig+0x24a>
 8003e7e:	4a11      	ldr	r2, [pc, #68]	; (8003ec4 <HAL_RCCEx_PeriphCLKConfig+0x270>)
 8003e80:	6be1      	ldr	r1, [r4, #60]	; 0x3c
 8003e82:	f8d2 3088 	ldr.w	r3, [r2, #136]	; 0x88
 8003e86:	f023 5340 	bic.w	r3, r3, #805306368	; 0x30000000
 8003e8a:	430b      	orrs	r3, r1
 8003e8c:	f1b1 5f80 	cmp.w	r1, #268435456	; 0x10000000
 8003e90:	f8c2 3088 	str.w	r3, [r2, #136]	; 0x88
 8003e94:	d103      	bne.n	8003e9e <HAL_RCCEx_PeriphCLKConfig+0x24a>
 8003e96:	68d3      	ldr	r3, [r2, #12]
 8003e98:	f443 3380 	orr.w	r3, r3, #65536	; 0x10000
 8003e9c:	60d3      	str	r3, [r2, #12]
 8003e9e:	b002      	add	sp, #8
 8003ea0:	e8bd 81f0 	ldmia.w	sp!, {r4, r5, r6, r7, r8, pc}
 8003ea4:	f7fe f98a 	bl	80021bc <HAL_GetTick>
 8003ea8:	f241 3888 	movw	r8, #5000	; 0x1388
 8003eac:	4607      	mov	r7, r0
 8003eae:	f8d5 3090 	ldr.w	r3, [r5, #144]	; 0x90
 8003eb2:	079b      	lsls	r3, r3, #30
 8003eb4:	f53f af0b 	bmi.w	8003cce <HAL_RCCEx_PeriphCLKConfig+0x7a>
 8003eb8:	f7fe f980 	bl	80021bc <HAL_GetTick>
 8003ebc:	1bc0      	subs	r0, r0, r7
 8003ebe:	4540      	cmp	r0, r8
 8003ec0:	d9f5      	bls.n	8003eae <HAL_RCCEx_PeriphCLKConfig+0x25a>
 8003ec2:	e716      	b.n	8003cf2 <HAL_RCCEx_PeriphCLKConfig+0x9e>
 8003ec4:	40021000 	.word	0x40021000
 8003ec8:	40007000 	.word	0x40007000

08003ecc <HAL_TIM_Base_Start>:
 8003ecc:	f890 303d 	ldrb.w	r3, [r0, #61]	; 0x3d
 8003ed0:	2b01      	cmp	r3, #1
 8003ed2:	d127      	bne.n	8003f24 <HAL_TIM_Base_Start+0x58>
 8003ed4:	2302      	movs	r3, #2
 8003ed6:	f880 303d 	strb.w	r3, [r0, #61]	; 0x3d
 8003eda:	4a13      	ldr	r2, [pc, #76]	; (8003f28 <HAL_TIM_Base_Start+0x5c>)
 8003edc:	6803      	ldr	r3, [r0, #0]
 8003ede:	4293      	cmp	r3, r2
 8003ee0:	d012      	beq.n	8003f08 <HAL_TIM_Base_Start+0x3c>
 8003ee2:	f1b3 4f80 	cmp.w	r3, #1073741824	; 0x40000000
 8003ee6:	d00f      	beq.n	8003f08 <HAL_TIM_Base_Start+0x3c>
 8003ee8:	f5a2 3294 	sub.w	r2, r2, #75776	; 0x12800
 8003eec:	4293      	cmp	r3, r2
 8003eee:	d00b      	beq.n	8003f08 <HAL_TIM_Base_Start+0x3c>
 8003ef0:	f502 6280 	add.w	r2, r2, #1024	; 0x400
 8003ef4:	4293      	cmp	r3, r2
 8003ef6:	d007      	beq.n	8003f08 <HAL_TIM_Base_Start+0x3c>
 8003ef8:	f502 3296 	add.w	r2, r2, #76800	; 0x12c00
 8003efc:	4293      	cmp	r3, r2
 8003efe:	d003      	beq.n	8003f08 <HAL_TIM_Base_Start+0x3c>
 8003f00:	f502 6240 	add.w	r2, r2, #3072	; 0xc00
 8003f04:	4293      	cmp	r3, r2
 8003f06:	d107      	bne.n	8003f18 <HAL_TIM_Base_Start+0x4c>
 8003f08:	6899      	ldr	r1, [r3, #8]
 8003f0a:	4a08      	ldr	r2, [pc, #32]	; (8003f2c <HAL_TIM_Base_Start+0x60>)
 8003f0c:	400a      	ands	r2, r1
 8003f0e:	2a06      	cmp	r2, #6
 8003f10:	d006      	beq.n	8003f20 <HAL_TIM_Base_Start+0x54>
 8003f12:	f5b2 3f80 	cmp.w	r2, #65536	; 0x10000
 8003f16:	d003      	beq.n	8003f20 <HAL_TIM_Base_Start+0x54>
 8003f18:	681a      	ldr	r2, [r3, #0]
 8003f1a:	f042 0201 	orr.w	r2, r2, #1
 8003f1e:	601a      	str	r2, [r3, #0]
 8003f20:	2000      	movs	r0, #0
 8003f22:	4770      	bx	lr
 8003f24:	2001      	movs	r0, #1
 8003f26:	4770      	bx	lr
 8003f28:	40012c00 	.word	0x40012c00
 8003f2c:	00010007 	.word	0x00010007

08003f30 <HAL_TIM_Base_Stop>:
 8003f30:	6803      	ldr	r3, [r0, #0]
 8003f32:	6a19      	ldr	r1, [r3, #32]
 8003f34:	f241 1211 	movw	r2, #4369	; 0x1111
 8003f38:	4211      	tst	r1, r2
 8003f3a:	d108      	bne.n	8003f4e <HAL_TIM_Base_Stop+0x1e>
 8003f3c:	6a19      	ldr	r1, [r3, #32]
 8003f3e:	f244 4244 	movw	r2, #17476	; 0x4444
 8003f42:	4211      	tst	r1, r2
 8003f44:	bf02      	ittt	eq
 8003f46:	681a      	ldreq	r2, [r3, #0]
 8003f48:	f022 0201 	biceq.w	r2, r2, #1
 8003f4c:	601a      	streq	r2, [r3, #0]
 8003f4e:	2301      	movs	r3, #1
 8003f50:	f880 303d 	strb.w	r3, [r0, #61]	; 0x3d
 8003f54:	2000      	movs	r0, #0
 8003f56:	4770      	bx	lr

08003f58 <HAL_TIM_Base_Start_IT>:
 8003f58:	f890 303d 	ldrb.w	r3, [r0, #61]	; 0x3d
 8003f5c:	2b01      	cmp	r3, #1
 8003f5e:	d12b      	bne.n	8003fb8 <HAL_TIM_Base_Start_IT+0x60>
 8003f60:	2302      	movs	r3, #2
 8003f62:	f880 303d 	strb.w	r3, [r0, #61]	; 0x3d
 8003f66:	6803      	ldr	r3, [r0, #0]
 8003f68:	68da      	ldr	r2, [r3, #12]
 8003f6a:	f042 0201 	orr.w	r2, r2, #1
 8003f6e:	60da      	str	r2, [r3, #12]
 8003f70:	4a12      	ldr	r2, [pc, #72]	; (8003fbc <HAL_TIM_Base_Start_IT+0x64>)
 8003f72:	4293      	cmp	r3, r2
 8003f74:	d012      	beq.n	8003f9c <HAL_TIM_Base_Start_IT+0x44>
 8003f76:	f1b3 4f80 	cmp.w	r3, #1073741824	; 0x40000000
 8003f7a:	d00f      	beq.n	8003f9c <HAL_TIM_Base_Start_IT+0x44>
 8003f7c:	f5a2 3294 	sub.w	r2, r2, #75776	; 0x12800
 8003f80:	4293      	cmp	r3, r2
 8003f82:	d00b      	beq.n	8003f9c <HAL_TIM_Base_Start_IT+0x44>
 8003f84:	f502 6280 	add.w	r2, r2, #1024	; 0x400
 8003f88:	4293      	cmp	r3, r2
 8003f8a:	d007      	beq.n	8003f9c <HAL_TIM_Base_Start_IT+0x44>
 8003f8c:	f502 3296 	add.w	r2, r2, #76800	; 0x12c00
 8003f90:	4293      	cmp	r3, r2
 8003f92:	d003      	beq.n	8003f9c <HAL_TIM_Base_Start_IT+0x44>
 8003f94:	f502 6240 	add.w	r2, r2, #3072	; 0xc00
 8003f98:	4293      	cmp	r3, r2
 8003f9a:	d107      	bne.n	8003fac <HAL_TIM_Base_Start_IT+0x54>
 8003f9c:	6899      	ldr	r1, [r3, #8]
 8003f9e:	4a08      	ldr	r2, [pc, #32]	; (8003fc0 <HAL_TIM_Base_Start_IT+0x68>)
 8003fa0:	400a      	ands	r2, r1
 8003fa2:	2a06      	cmp	r2, #6
 8003fa4:	d006      	beq.n	8003fb4 <HAL_TIM_Base_Start_IT+0x5c>
 8003fa6:	f5b2 3f80 	cmp.w	r2, #65536	; 0x10000
 8003faa:	d003      	beq.n	8003fb4 <HAL_TIM_Base_Start_IT+0x5c>
 8003fac:	681a      	ldr	r2, [r3, #0]
 8003fae:	f042 0201 	orr.w	r2, r2, #1
 8003fb2:	601a      	str	r2, [r3, #0]
 8003fb4:	2000      	movs	r0, #0
 8003fb6:	4770      	bx	lr
 8003fb8:	2001      	movs	r0, #1
 8003fba:	4770      	bx	lr
 8003fbc:	40012c00 	.word	0x40012c00
 8003fc0:	00010007 	.word	0x00010007

08003fc4 <HAL_TIM_OC_DelayElapsedCallback>:
 8003fc4:	4770      	bx	lr

08003fc6 <HAL_TIM_IC_CaptureCallback>:
 8003fc6:	4770      	bx	lr

08003fc8 <HAL_TIM_PWM_PulseFinishedCallback>:
 8003fc8:	4770      	bx	lr

08003fca <HAL_TIM_TriggerCallback>:
 8003fca:	4770      	bx	lr

08003fcc <HAL_TIM_IRQHandler>:
 8003fcc:	6803      	ldr	r3, [r0, #0]
 8003fce:	691a      	ldr	r2, [r3, #16]
 8003fd0:	0791      	lsls	r1, r2, #30
 8003fd2:	b510      	push	{r4, lr}
 8003fd4:	4604      	mov	r4, r0
 8003fd6:	d50f      	bpl.n	8003ff8 <HAL_TIM_IRQHandler+0x2c>
 8003fd8:	68da      	ldr	r2, [r3, #12]
 8003fda:	0792      	lsls	r2, r2, #30
 8003fdc:	d50c      	bpl.n	8003ff8 <HAL_TIM_IRQHandler+0x2c>
 8003fde:	f06f 0202 	mvn.w	r2, #2
 8003fe2:	611a      	str	r2, [r3, #16]
 8003fe4:	699b      	ldr	r3, [r3, #24]
 8003fe6:	2201      	movs	r2, #1
 8003fe8:	0799      	lsls	r1, r3, #30
 8003fea:	7702      	strb	r2, [r0, #28]
 8003fec:	f000 80bc 	beq.w	8004168 <HAL_TIM_IRQHandler+0x19c>
 8003ff0:	f7ff ffe9 	bl	8003fc6 <HAL_TIM_IC_CaptureCallback>
 8003ff4:	2300      	movs	r3, #0
 8003ff6:	7723      	strb	r3, [r4, #28]
 8003ff8:	6823      	ldr	r3, [r4, #0]
 8003ffa:	691a      	ldr	r2, [r3, #16]
 8003ffc:	0752      	lsls	r2, r2, #29
 8003ffe:	d511      	bpl.n	8004024 <HAL_TIM_IRQHandler+0x58>
 8004000:	68da      	ldr	r2, [r3, #12]
 8004002:	0750      	lsls	r0, r2, #29
 8004004:	d50e      	bpl.n	8004024 <HAL_TIM_IRQHandler+0x58>
 8004006:	f06f 0204 	mvn.w	r2, #4
 800400a:	611a      	str	r2, [r3, #16]
 800400c:	699b      	ldr	r3, [r3, #24]
 800400e:	2202      	movs	r2, #2
 8004010:	f413 7f40 	tst.w	r3, #768	; 0x300
 8004014:	7722      	strb	r2, [r4, #28]
 8004016:	4620      	mov	r0, r4
 8004018:	f000 80ac 	beq.w	8004174 <HAL_TIM_IRQHandler+0x1a8>
 800401c:	f7ff ffd3 	bl	8003fc6 <HAL_TIM_IC_CaptureCallback>
 8004020:	2300      	movs	r3, #0
 8004022:	7723      	strb	r3, [r4, #28]
 8004024:	6823      	ldr	r3, [r4, #0]
 8004026:	691a      	ldr	r2, [r3, #16]
 8004028:	0711      	lsls	r1, r2, #28
 800402a:	d510      	bpl.n	800404e <HAL_TIM_IRQHandler+0x82>
 800402c:	68da      	ldr	r2, [r3, #12]
 800402e:	0712      	lsls	r2, r2, #28
 8004030:	d50d      	bpl.n	800404e <HAL_TIM_IRQHandler+0x82>
 8004032:	f06f 0208 	mvn.w	r2, #8
 8004036:	611a      	str	r2, [r3, #16]
 8004038:	69db      	ldr	r3, [r3, #28]
 800403a:	2204      	movs	r2, #4
 800403c:	079b      	lsls	r3, r3, #30
 800403e:	7722      	strb	r2, [r4, #28]
 8004040:	4620      	mov	r0, r4
 8004042:	f000 809d 	beq.w	8004180 <HAL_TIM_IRQHandler+0x1b4>
 8004046:	f7ff ffbe 	bl	8003fc6 <HAL_TIM_IC_CaptureCallback>
 800404a:	2300      	movs	r3, #0
 800404c:	7723      	strb	r3, [r4, #28]
 800404e:	6823      	ldr	r3, [r4, #0]
 8004050:	691a      	ldr	r2, [r3, #16]
 8004052:	06d1      	lsls	r1, r2, #27
 8004054:	d511      	bpl.n	800407a <HAL_TIM_IRQHandler+0xae>
 8004056:	68da      	ldr	r2, [r3, #12]
 8004058:	06d2      	lsls	r2, r2, #27
 800405a:	d50e      	bpl.n	800407a <HAL_TIM_IRQHandler+0xae>
 800405c:	f06f 0210 	mvn.w	r2, #16
 8004060:	611a      	str	r2, [r3, #16]
 8004062:	69db      	ldr	r3, [r3, #28]
 8004064:	2208      	movs	r2, #8
 8004066:	f413 7f40 	tst.w	r3, #768	; 0x300
 800406a:	7722      	strb	r2, [r4, #28]
 800406c:	4620      	mov	r0, r4
 800406e:	f000 808d 	beq.w	800418c <HAL_TIM_IRQHandler+0x1c0>
 8004072:	f7ff ffa8 	bl	8003fc6 <HAL_TIM_IC_CaptureCallback>
 8004076:	2300      	movs	r3, #0
 8004078:	7723      	strb	r3, [r4, #28]
 800407a:	6823      	ldr	r3, [r4, #0]
 800407c:	691a      	ldr	r2, [r3, #16]
 800407e:	07d0      	lsls	r0, r2, #31
 8004080:	d508      	bpl.n	8004094 <HAL_TIM_IRQHandler+0xc8>
 8004082:	68da      	ldr	r2, [r3, #12]
 8004084:	07d1      	lsls	r1, r2, #31
 8004086:	d505      	bpl.n	8004094 <HAL_TIM_IRQHandler+0xc8>
 8004088:	f06f 0201 	mvn.w	r2, #1
 800408c:	611a      	str	r2, [r3, #16]
 800408e:	4620      	mov	r0, r4
 8004090:	f7fd feec 	bl	8001e6c <HAL_TIM_PeriodElapsedCallback>
 8004094:	6823      	ldr	r3, [r4, #0]
 8004096:	691a      	ldr	r2, [r3, #16]
 8004098:	0612      	lsls	r2, r2, #24
 800409a:	d508      	bpl.n	80040ae <HAL_TIM_IRQHandler+0xe2>
 800409c:	68da      	ldr	r2, [r3, #12]
 800409e:	0610      	lsls	r0, r2, #24
 80040a0:	d505      	bpl.n	80040ae <HAL_TIM_IRQHandler+0xe2>
 80040a2:	f06f 0280 	mvn.w	r2, #128	; 0x80
 80040a6:	611a      	str	r2, [r3, #16]
 80040a8:	4620      	mov	r0, r4
 80040aa:	f000 f94c 	bl	8004346 <HAL_TIMEx_BreakCallback>
 80040ae:	6823      	ldr	r3, [r4, #0]
 80040b0:	691a      	ldr	r2, [r3, #16]
 80040b2:	05d1      	lsls	r1, r2, #23
 80040b4:	d508      	bpl.n	80040c8 <HAL_TIM_IRQHandler+0xfc>
 80040b6:	68da      	ldr	r2, [r3, #12]
 80040b8:	0612      	lsls	r2, r2, #24
 80040ba:	d505      	bpl.n	80040c8 <HAL_TIM_IRQHandler+0xfc>
 80040bc:	f46f 7280 	mvn.w	r2, #256	; 0x100
 80040c0:	611a      	str	r2, [r3, #16]
 80040c2:	4620      	mov	r0, r4
 80040c4:	f000 f940 	bl	8004348 <HAL_TIMEx_Break2Callback>
 80040c8:	6823      	ldr	r3, [r4, #0]
 80040ca:	691a      	ldr	r2, [r3, #16]
 80040cc:	0650      	lsls	r0, r2, #25
 80040ce:	d508      	bpl.n	80040e2 <HAL_TIM_IRQHandler+0x116>
 80040d0:	68da      	ldr	r2, [r3, #12]
 80040d2:	0651      	lsls	r1, r2, #25
 80040d4:	d505      	bpl.n	80040e2 <HAL_TIM_IRQHandler+0x116>
 80040d6:	f06f 0240 	mvn.w	r2, #64	; 0x40
 80040da:	611a      	str	r2, [r3, #16]
 80040dc:	4620      	mov	r0, r4
 80040de:	f7ff ff74 	bl	8003fca <HAL_TIM_TriggerCallback>
 80040e2:	6823      	ldr	r3, [r4, #0]
 80040e4:	691a      	ldr	r2, [r3, #16]
 80040e6:	0692      	lsls	r2, r2, #26
 80040e8:	d508      	bpl.n	80040fc <HAL_TIM_IRQHandler+0x130>
 80040ea:	68da      	ldr	r2, [r3, #12]
 80040ec:	0690      	lsls	r0, r2, #26
 80040ee:	d505      	bpl.n	80040fc <HAL_TIM_IRQHandler+0x130>
 80040f0:	f06f 0220 	mvn.w	r2, #32
 80040f4:	611a      	str	r2, [r3, #16]
 80040f6:	4620      	mov	r0, r4
 80040f8:	f000 f924 	bl	8004344 <HAL_TIMEx_CommutCallback>
 80040fc:	6823      	ldr	r3, [r4, #0]
 80040fe:	691a      	ldr	r2, [r3, #16]
 8004100:	02d1      	lsls	r1, r2, #11
 8004102:	d508      	bpl.n	8004116 <HAL_TIM_IRQHandler+0x14a>
 8004104:	68da      	ldr	r2, [r3, #12]
 8004106:	02d2      	lsls	r2, r2, #11
 8004108:	d505      	bpl.n	8004116 <HAL_TIM_IRQHandler+0x14a>
 800410a:	f46f 1280 	mvn.w	r2, #1048576	; 0x100000
 800410e:	611a      	str	r2, [r3, #16]
 8004110:	4620      	mov	r0, r4
 8004112:	f000 f91a 	bl	800434a <HAL_TIMEx_EncoderIndexCallback>
 8004116:	6823      	ldr	r3, [r4, #0]
 8004118:	691a      	ldr	r2, [r3, #16]
 800411a:	0290      	lsls	r0, r2, #10
 800411c:	d508      	bpl.n	8004130 <HAL_TIM_IRQHandler+0x164>
 800411e:	68da      	ldr	r2, [r3, #12]
 8004120:	0291      	lsls	r1, r2, #10
 8004122:	d505      	bpl.n	8004130 <HAL_TIM_IRQHandler+0x164>
 8004124:	f46f 1200 	mvn.w	r2, #2097152	; 0x200000
 8004128:	611a      	str	r2, [r3, #16]
 800412a:	4620      	mov	r0, r4
 800412c:	f000 f90e 	bl	800434c <HAL_TIMEx_DirectionChangeCallback>
 8004130:	6823      	ldr	r3, [r4, #0]
 8004132:	691a      	ldr	r2, [r3, #16]
 8004134:	0252      	lsls	r2, r2, #9
 8004136:	d508      	bpl.n	800414a <HAL_TIM_IRQHandler+0x17e>
 8004138:	68da      	ldr	r2, [r3, #12]
 800413a:	0250      	lsls	r0, r2, #9
 800413c:	d505      	bpl.n	800414a <HAL_TIM_IRQHandler+0x17e>
 800413e:	f46f 0280 	mvn.w	r2, #4194304	; 0x400000
 8004142:	611a      	str	r2, [r3, #16]
 8004144:	4620      	mov	r0, r4
 8004146:	f000 f902 	bl	800434e <HAL_TIMEx_IndexErrorCallback>
 800414a:	6823      	ldr	r3, [r4, #0]
 800414c:	691a      	ldr	r2, [r3, #16]
 800414e:	0211      	lsls	r1, r2, #8
 8004150:	d522      	bpl.n	8004198 <HAL_TIM_IRQHandler+0x1cc>
 8004152:	68da      	ldr	r2, [r3, #12]
 8004154:	0212      	lsls	r2, r2, #8
 8004156:	d51f      	bpl.n	8004198 <HAL_TIM_IRQHandler+0x1cc>
 8004158:	f46f 0200 	mvn.w	r2, #8388608	; 0x800000
 800415c:	4620      	mov	r0, r4
 800415e:	611a      	str	r2, [r3, #16]
 8004160:	e8bd 4010 	ldmia.w	sp!, {r4, lr}
 8004164:	f000 b8f4 	b.w	8004350 <HAL_TIMEx_TransitionErrorCallback>
 8004168:	f7ff ff2c 	bl	8003fc4 <HAL_TIM_OC_DelayElapsedCallback>
 800416c:	4620      	mov	r0, r4
 800416e:	f7ff ff2b 	bl	8003fc8 <HAL_TIM_PWM_PulseFinishedCallback>
 8004172:	e73f      	b.n	8003ff4 <HAL_TIM_IRQHandler+0x28>
 8004174:	f7ff ff26 	bl	8003fc4 <HAL_TIM_OC_DelayElapsedCallback>
 8004178:	4620      	mov	r0, r4
 800417a:	f7ff ff25 	bl	8003fc8 <HAL_TIM_PWM_PulseFinishedCallback>
 800417e:	e74f      	b.n	8004020 <HAL_TIM_IRQHandler+0x54>
 8004180:	f7ff ff20 	bl	8003fc4 <HAL_TIM_OC_DelayElapsedCallback>
 8004184:	4620      	mov	r0, r4
 8004186:	f7ff ff1f 	bl	8003fc8 <HAL_TIM_PWM_PulseFinishedCallback>
 800418a:	e75e      	b.n	800404a <HAL_TIM_IRQHandler+0x7e>
 800418c:	f7ff ff1a 	bl	8003fc4 <HAL_TIM_OC_DelayElapsedCallback>
 8004190:	4620      	mov	r0, r4
 8004192:	f7ff ff19 	bl	8003fc8 <HAL_TIM_PWM_PulseFinishedCallback>
 8004196:	e76e      	b.n	8004076 <HAL_TIM_IRQHandler+0xaa>
 8004198:	bd10      	pop	{r4, pc}
	...

0800419c <TIM_Base_SetConfig>:
 800419c:	4a2c      	ldr	r2, [pc, #176]	; (8004250 <TIM_Base_SetConfig+0xb4>)
 800419e:	6803      	ldr	r3, [r0, #0]
 80041a0:	4290      	cmp	r0, r2
 80041a2:	d00e      	beq.n	80041c2 <TIM_Base_SetConfig+0x26>
 80041a4:	f1b0 4f80 	cmp.w	r0, #1073741824	; 0x40000000
 80041a8:	d00b      	beq.n	80041c2 <TIM_Base_SetConfig+0x26>
 80041aa:	f5a2 3294 	sub.w	r2, r2, #75776	; 0x12800
 80041ae:	4290      	cmp	r0, r2
 80041b0:	d007      	beq.n	80041c2 <TIM_Base_SetConfig+0x26>
 80041b2:	f502 6280 	add.w	r2, r2, #1024	; 0x400
 80041b6:	4290      	cmp	r0, r2
 80041b8:	d003      	beq.n	80041c2 <TIM_Base_SetConfig+0x26>
 80041ba:	f502 3296 	add.w	r2, r2, #76800	; 0x12c00
 80041be:	4290      	cmp	r0, r2
 80041c0:	d115      	bne.n	80041ee <TIM_Base_SetConfig+0x52>
 80041c2:	684a      	ldr	r2, [r1, #4]
 80041c4:	f023 0370 	bic.w	r3, r3, #112	; 0x70
 80041c8:	4313      	orrs	r3, r2
 80041ca:	4a21      	ldr	r2, [pc, #132]	; (8004250 <TIM_Base_SetConfig+0xb4>)
 80041cc:	4290      	cmp	r0, r2
 80041ce:	d019      	beq.n	8004204 <TIM_Base_SetConfig+0x68>
 80041d0:	f1b0 4f80 	cmp.w	r0, #1073741824	; 0x40000000
 80041d4:	d016      	beq.n	8004204 <TIM_Base_SetConfig+0x68>
 80041d6:	f5a2 3294 	sub.w	r2, r2, #75776	; 0x12800
 80041da:	4290      	cmp	r0, r2
 80041dc:	d012      	beq.n	8004204 <TIM_Base_SetConfig+0x68>
 80041de:	f502 6280 	add.w	r2, r2, #1024	; 0x400
 80041e2:	4290      	cmp	r0, r2
 80041e4:	d00e      	beq.n	8004204 <TIM_Base_SetConfig+0x68>
 80041e6:	f502 3296 	add.w	r2, r2, #76800	; 0x12c00
 80041ea:	4290      	cmp	r0, r2
 80041ec:	d00a      	beq.n	8004204 <TIM_Base_SetConfig+0x68>
 80041ee:	4a19      	ldr	r2, [pc, #100]	; (8004254 <TIM_Base_SetConfig+0xb8>)
 80041f0:	4290      	cmp	r0, r2
 80041f2:	d007      	beq.n	8004204 <TIM_Base_SetConfig+0x68>
 80041f4:	f502 6280 	add.w	r2, r2, #1024	; 0x400
 80041f8:	4290      	cmp	r0, r2
 80041fa:	d003      	beq.n	8004204 <TIM_Base_SetConfig+0x68>
 80041fc:	f502 6280 	add.w	r2, r2, #1024	; 0x400
 8004200:	4290      	cmp	r0, r2
 8004202:	d103      	bne.n	800420c <TIM_Base_SetConfig+0x70>
 8004204:	68ca      	ldr	r2, [r1, #12]
 8004206:	f423 7340 	bic.w	r3, r3, #768	; 0x300
 800420a:	4313      	orrs	r3, r2
 800420c:	694a      	ldr	r2, [r1, #20]
 800420e:	f023 0380 	bic.w	r3, r3, #128	; 0x80
 8004212:	4313      	orrs	r3, r2
 8004214:	6003      	str	r3, [r0, #0]
 8004216:	688b      	ldr	r3, [r1, #8]
 8004218:	62c3      	str	r3, [r0, #44]	; 0x2c
 800421a:	680b      	ldr	r3, [r1, #0]
 800421c:	6283      	str	r3, [r0, #40]	; 0x28
 800421e:	4b0c      	ldr	r3, [pc, #48]	; (8004250 <TIM_Base_SetConfig+0xb4>)
 8004220:	4298      	cmp	r0, r3
 8004222:	d00f      	beq.n	8004244 <TIM_Base_SetConfig+0xa8>
 8004224:	f503 6300 	add.w	r3, r3, #2048	; 0x800
 8004228:	4298      	cmp	r0, r3
 800422a:	d00b      	beq.n	8004244 <TIM_Base_SetConfig+0xa8>
 800422c:	f503 6340 	add.w	r3, r3, #3072	; 0xc00
 8004230:	4298      	cmp	r0, r3
 8004232:	d007      	beq.n	8004244 <TIM_Base_SetConfig+0xa8>
 8004234:	f503 6380 	add.w	r3, r3, #1024	; 0x400
 8004238:	4298      	cmp	r0, r3
 800423a:	d003      	beq.n	8004244 <TIM_Base_SetConfig+0xa8>
 800423c:	f503 6380 	add.w	r3, r3, #1024	; 0x400
 8004240:	4298      	cmp	r0, r3
 8004242:	d101      	bne.n	8004248 <TIM_Base_SetConfig+0xac>
 8004244:	690b      	ldr	r3, [r1, #16]
 8004246:	6303      	str	r3, [r0, #48]	; 0x30
 8004248:	2301      	movs	r3, #1
 800424a:	6143      	str	r3, [r0, #20]
 800424c:	4770      	bx	lr
 800424e:	bf00      	nop
 8004250:	40012c00 	.word	0x40012c00
 8004254:	40014000 	.word	0x40014000

08004258 <HAL_TIM_Base_Init>:
 8004258:	b510      	push	{r4, lr}
 800425a:	4604      	mov	r4, r0
 800425c:	b350      	cbz	r0, 80042b4 <HAL_TIM_Base_Init+0x5c>
 800425e:	f890 303d 	ldrb.w	r3, [r0, #61]	; 0x3d
 8004262:	f003 02ff 	and.w	r2, r3, #255	; 0xff
 8004266:	b91b      	cbnz	r3, 8004270 <HAL_TIM_Base_Init+0x18>
 8004268:	f880 203c 	strb.w	r2, [r0, #60]	; 0x3c
 800426c:	f7fd fea2 	bl	8001fb4 <HAL_TIM_Base_MspInit>
 8004270:	2302      	movs	r3, #2
 8004272:	f884 303d 	strb.w	r3, [r4, #61]	; 0x3d
 8004276:	6820      	ldr	r0, [r4, #0]
 8004278:	1d21      	adds	r1, r4, #4
 800427a:	f7ff ff8f 	bl	800419c <TIM_Base_SetConfig>
 800427e:	2301      	movs	r3, #1
 8004280:	f884 3048 	strb.w	r3, [r4, #72]	; 0x48
 8004284:	2000      	movs	r0, #0
 8004286:	f884 303e 	strb.w	r3, [r4, #62]	; 0x3e
 800428a:	f884 303f 	strb.w	r3, [r4, #63]	; 0x3f
 800428e:	f884 3040 	strb.w	r3, [r4, #64]	; 0x40
 8004292:	f884 3041 	strb.w	r3, [r4, #65]	; 0x41
 8004296:	f884 3042 	strb.w	r3, [r4, #66]	; 0x42
 800429a:	f884 3043 	strb.w	r3, [r4, #67]	; 0x43
 800429e:	f884 3044 	strb.w	r3, [r4, #68]	; 0x44
 80042a2:	f884 3045 	strb.w	r3, [r4, #69]	; 0x45
 80042a6:	f884 3046 	strb.w	r3, [r4, #70]	; 0x46
 80042aa:	f884 3047 	strb.w	r3, [r4, #71]	; 0x47
 80042ae:	f884 303d 	strb.w	r3, [r4, #61]	; 0x3d
 80042b2:	bd10      	pop	{r4, pc}
 80042b4:	2001      	movs	r0, #1
 80042b6:	e7fc      	b.n	80042b2 <HAL_TIM_Base_Init+0x5a>

080042b8 <HAL_TIMEx_MasterConfigSynchronization>:
 80042b8:	f890 303c 	ldrb.w	r3, [r0, #60]	; 0x3c
 80042bc:	2b01      	cmp	r3, #1
 80042be:	b530      	push	{r4, r5, lr}
 80042c0:	f04f 0302 	mov.w	r3, #2
 80042c4:	d03a      	beq.n	800433c <HAL_TIMEx_MasterConfigSynchronization+0x84>
 80042c6:	f880 303d 	strb.w	r3, [r0, #61]	; 0x3d
 80042ca:	4d1d      	ldr	r5, [pc, #116]	; (8004340 <HAL_TIMEx_MasterConfigSynchronization+0x88>)
 80042cc:	6803      	ldr	r3, [r0, #0]
 80042ce:	2201      	movs	r2, #1
 80042d0:	42ab      	cmp	r3, r5
 80042d2:	f880 203c 	strb.w	r2, [r0, #60]	; 0x3c
 80042d6:	685a      	ldr	r2, [r3, #4]
 80042d8:	689c      	ldr	r4, [r3, #8]
 80042da:	d003      	beq.n	80042e4 <HAL_TIMEx_MasterConfigSynchronization+0x2c>
 80042dc:	f505 6500 	add.w	r5, r5, #2048	; 0x800
 80042e0:	42ab      	cmp	r3, r5
 80042e2:	d103      	bne.n	80042ec <HAL_TIMEx_MasterConfigSynchronization+0x34>
 80042e4:	684d      	ldr	r5, [r1, #4]
 80042e6:	f422 0270 	bic.w	r2, r2, #15728640	; 0xf00000
 80042ea:	432a      	orrs	r2, r5
 80042ec:	680d      	ldr	r5, [r1, #0]
 80042ee:	f022 7200 	bic.w	r2, r2, #33554432	; 0x2000000
 80042f2:	f022 0270 	bic.w	r2, r2, #112	; 0x70
 80042f6:	432a      	orrs	r2, r5
 80042f8:	605a      	str	r2, [r3, #4]
 80042fa:	4a11      	ldr	r2, [pc, #68]	; (8004340 <HAL_TIMEx_MasterConfigSynchronization+0x88>)
 80042fc:	4293      	cmp	r3, r2
 80042fe:	d012      	beq.n	8004326 <HAL_TIMEx_MasterConfigSynchronization+0x6e>
 8004300:	f1b3 4f80 	cmp.w	r3, #1073741824	; 0x40000000
 8004304:	d00f      	beq.n	8004326 <HAL_TIMEx_MasterConfigSynchronization+0x6e>
 8004306:	f5a2 3294 	sub.w	r2, r2, #75776	; 0x12800
 800430a:	4293      	cmp	r3, r2
 800430c:	d00b      	beq.n	8004326 <HAL_TIMEx_MasterConfigSynchronization+0x6e>
 800430e:	f502 6280 	add.w	r2, r2, #1024	; 0x400
 8004312:	4293      	cmp	r3, r2
 8004314:	d007      	beq.n	8004326 <HAL_TIMEx_MasterConfigSynchronization+0x6e>
 8004316:	f502 3296 	add.w	r2, r2, #76800	; 0x12c00
 800431a:	4293      	cmp	r3, r2
 800431c:	d003      	beq.n	8004326 <HAL_TIMEx_MasterConfigSynchronization+0x6e>
 800431e:	f502 6240 	add.w	r2, r2, #3072	; 0xc00
 8004322:	4293      	cmp	r3, r2
 8004324:	d104      	bne.n	8004330 <HAL_TIMEx_MasterConfigSynchronization+0x78>
 8004326:	6889      	ldr	r1, [r1, #8]
 8004328:	f024 0280 	bic.w	r2, r4, #128	; 0x80
 800432c:	430a      	orrs	r2, r1
 800432e:	609a      	str	r2, [r3, #8]
 8004330:	2301      	movs	r3, #1
 8004332:	f880 303d 	strb.w	r3, [r0, #61]	; 0x3d
 8004336:	2300      	movs	r3, #0
 8004338:	f880 303c 	strb.w	r3, [r0, #60]	; 0x3c
 800433c:	4618      	mov	r0, r3
 800433e:	bd30      	pop	{r4, r5, pc}
 8004340:	40012c00 	.word	0x40012c00

08004344 <HAL_TIMEx_CommutCallback>:
 8004344:	4770      	bx	lr

08004346 <HAL_TIMEx_BreakCallback>:
 8004346:	4770      	bx	lr

08004348 <HAL_TIMEx_Break2Callback>:
 8004348:	4770      	bx	lr

0800434a <HAL_TIMEx_EncoderIndexCallback>:
 800434a:	4770      	bx	lr

0800434c <HAL_TIMEx_DirectionChangeCallback>:
 800434c:	4770      	bx	lr

0800434e <HAL_TIMEx_IndexErrorCallback>:
 800434e:	4770      	bx	lr

08004350 <HAL_TIMEx_TransitionErrorCallback>:
 8004350:	4770      	bx	lr
	...

08004354 <UART_SetConfig>:
 8004354:	e92d 48f0 	stmdb	sp!, {r4, r5, r6, r7, fp, lr}
 8004358:	4604      	mov	r4, r0
 800435a:	6802      	ldr	r2, [r0, #0]
 800435c:	6921      	ldr	r1, [r4, #16]
 800435e:	68a3      	ldr	r3, [r4, #8]
 8004360:	69c0      	ldr	r0, [r0, #28]
 8004362:	6815      	ldr	r5, [r2, #0]
 8004364:	430b      	orrs	r3, r1
 8004366:	6961      	ldr	r1, [r4, #20]
 8004368:	430b      	orrs	r3, r1
 800436a:	6e61      	ldr	r1, [r4, #100]	; 0x64
 800436c:	4303      	orrs	r3, r0
 800436e:	430b      	orrs	r3, r1
 8004370:	499c      	ldr	r1, [pc, #624]	; (80045e4 <UART_SetConfig+0x290>)
 8004372:	4029      	ands	r1, r5
 8004374:	430b      	orrs	r3, r1
 8004376:	6013      	str	r3, [r2, #0]
 8004378:	6853      	ldr	r3, [r2, #4]
 800437a:	68e1      	ldr	r1, [r4, #12]
 800437c:	f423 5340 	bic.w	r3, r3, #12288	; 0x3000
 8004380:	430b      	orrs	r3, r1
 8004382:	6053      	str	r3, [r2, #4]
 8004384:	4b98      	ldr	r3, [pc, #608]	; (80045e8 <UART_SetConfig+0x294>)
 8004386:	69a1      	ldr	r1, [r4, #24]
 8004388:	429a      	cmp	r2, r3
 800438a:	bf1c      	itt	ne
 800438c:	6a23      	ldrne	r3, [r4, #32]
 800438e:	4319      	orrne	r1, r3
 8004390:	6893      	ldr	r3, [r2, #8]
 8004392:	f023 436e 	bic.w	r3, r3, #3992977408	; 0xee000000
 8004396:	f423 6330 	bic.w	r3, r3, #2816	; 0xb00
 800439a:	430b      	orrs	r3, r1
 800439c:	6093      	str	r3, [r2, #8]
 800439e:	6ad3      	ldr	r3, [r2, #44]	; 0x2c
 80043a0:	6a61      	ldr	r1, [r4, #36]	; 0x24
 80043a2:	f023 030f 	bic.w	r3, r3, #15
 80043a6:	430b      	orrs	r3, r1
 80043a8:	62d3      	str	r3, [r2, #44]	; 0x2c
 80043aa:	4b90      	ldr	r3, [pc, #576]	; (80045ec <UART_SetConfig+0x298>)
 80043ac:	429a      	cmp	r2, r3
 80043ae:	d118      	bne.n	80043e2 <UART_SetConfig+0x8e>
 80043b0:	f503 4358 	add.w	r3, r3, #55296	; 0xd800
 80043b4:	4a8e      	ldr	r2, [pc, #568]	; (80045f0 <UART_SetConfig+0x29c>)
 80043b6:	f8d3 3088 	ldr.w	r3, [r3, #136]	; 0x88
 80043ba:	f003 0303 	and.w	r3, r3, #3
 80043be:	f5b0 4f00 	cmp.w	r0, #32768	; 0x8000
 80043c2:	5cd3      	ldrb	r3, [r2, r3]
 80043c4:	f040 8096 	bne.w	80044f4 <UART_SetConfig+0x1a0>
 80043c8:	2b08      	cmp	r3, #8
 80043ca:	d839      	bhi.n	8004440 <UART_SetConfig+0xec>
 80043cc:	e8df f013 	tbh	[pc, r3, lsl #1]
 80043d0:	008a00e8 	.word	0x008a00e8
 80043d4:	00380090 	.word	0x00380090
 80043d8:	003800dd 	.word	0x003800dd
 80043dc:	00380038 	.word	0x00380038
 80043e0:	008d      	.short	0x008d
 80043e2:	4b84      	ldr	r3, [pc, #528]	; (80045f4 <UART_SetConfig+0x2a0>)
 80043e4:	429a      	cmp	r2, r3
 80043e6:	d107      	bne.n	80043f8 <UART_SetConfig+0xa4>
 80043e8:	f503 33e6 	add.w	r3, r3, #117760	; 0x1cc00
 80043ec:	4a82      	ldr	r2, [pc, #520]	; (80045f8 <UART_SetConfig+0x2a4>)
 80043ee:	f8d3 3088 	ldr.w	r3, [r3, #136]	; 0x88
 80043f2:	f003 030c 	and.w	r3, r3, #12
 80043f6:	e7e2      	b.n	80043be <UART_SetConfig+0x6a>
 80043f8:	4b80      	ldr	r3, [pc, #512]	; (80045fc <UART_SetConfig+0x2a8>)
 80043fa:	429a      	cmp	r2, r3
 80043fc:	d122      	bne.n	8004444 <UART_SetConfig+0xf0>
 80043fe:	f503 33e4 	add.w	r3, r3, #116736	; 0x1c800
 8004402:	f8d3 3088 	ldr.w	r3, [r3, #136]	; 0x88
 8004406:	f003 0330 	and.w	r3, r3, #48	; 0x30
 800440a:	2b10      	cmp	r3, #16
 800440c:	f000 80b4 	beq.w	8004578 <UART_SetConfig+0x224>
 8004410:	d810      	bhi.n	8004434 <UART_SetConfig+0xe0>
 8004412:	b9ab      	cbnz	r3, 8004440 <UART_SetConfig+0xec>
 8004414:	4b74      	ldr	r3, [pc, #464]	; (80045e8 <UART_SetConfig+0x294>)
 8004416:	429a      	cmp	r2, r3
 8004418:	f040 80bf 	bne.w	800459a <UART_SetConfig+0x246>
 800441c:	f7ff fbf6 	bl	8003c0c <HAL_RCC_GetPCLK1Freq>
 8004420:	bbb8      	cbnz	r0, 8004492 <UART_SetConfig+0x13e>
 8004422:	2000      	movs	r0, #0
 8004424:	2300      	movs	r3, #0
 8004426:	f04f 1201 	mov.w	r2, #65537	; 0x10001
 800442a:	e9c4 231a 	strd	r2, r3, [r4, #104]	; 0x68
 800442e:	6723      	str	r3, [r4, #112]	; 0x70
 8004430:	e8bd 88f0 	ldmia.w	sp!, {r4, r5, r6, r7, fp, pc}
 8004434:	2b20      	cmp	r3, #32
 8004436:	f000 809a 	beq.w	800456e <UART_SetConfig+0x21a>
 800443a:	2b30      	cmp	r3, #48	; 0x30
 800443c:	f000 808e 	beq.w	800455c <UART_SetConfig+0x208>
 8004440:	2001      	movs	r0, #1
 8004442:	e7ef      	b.n	8004424 <UART_SetConfig+0xd0>
 8004444:	4b6e      	ldr	r3, [pc, #440]	; (8004600 <UART_SetConfig+0x2ac>)
 8004446:	429a      	cmp	r2, r3
 8004448:	d10e      	bne.n	8004468 <UART_SetConfig+0x114>
 800444a:	f503 33e2 	add.w	r3, r3, #115712	; 0x1c400
 800444e:	f8d3 3088 	ldr.w	r3, [r3, #136]	; 0x88
 8004452:	f003 03c0 	and.w	r3, r3, #192	; 0xc0
 8004456:	2b40      	cmp	r3, #64	; 0x40
 8004458:	f000 808e 	beq.w	8004578 <UART_SetConfig+0x224>
 800445c:	d9d9      	bls.n	8004412 <UART_SetConfig+0xbe>
 800445e:	2b80      	cmp	r3, #128	; 0x80
 8004460:	f000 8085 	beq.w	800456e <UART_SetConfig+0x21a>
 8004464:	2bc0      	cmp	r3, #192	; 0xc0
 8004466:	e7e9      	b.n	800443c <UART_SetConfig+0xe8>
 8004468:	4b5f      	ldr	r3, [pc, #380]	; (80045e8 <UART_SetConfig+0x294>)
 800446a:	429a      	cmp	r2, r3
 800446c:	d1e8      	bne.n	8004440 <UART_SetConfig+0xec>
 800446e:	f503 33c8 	add.w	r3, r3, #102400	; 0x19000
 8004472:	f8d3 3088 	ldr.w	r3, [r3, #136]	; 0x88
 8004476:	f403 6340 	and.w	r3, r3, #3072	; 0xc00
 800447a:	f5b3 6f80 	cmp.w	r3, #1024	; 0x400
 800447e:	d07b      	beq.n	8004578 <UART_SetConfig+0x224>
 8004480:	d9c7      	bls.n	8004412 <UART_SetConfig+0xbe>
 8004482:	f5b3 6f00 	cmp.w	r3, #2048	; 0x800
 8004486:	d072      	beq.n	800456e <UART_SetConfig+0x21a>
 8004488:	f5b3 6f40 	cmp.w	r3, #3072	; 0xc00
 800448c:	e7d6      	b.n	800443c <UART_SetConfig+0xe8>
 800448e:	f44f 4000 	mov.w	r0, #32768	; 0x8000
 8004492:	6865      	ldr	r5, [r4, #4]
 8004494:	4b5b      	ldr	r3, [pc, #364]	; (8004604 <UART_SetConfig+0x2b0>)
 8004496:	6a62      	ldr	r2, [r4, #36]	; 0x24
 8004498:	eb05 0145 	add.w	r1, r5, r5, lsl #1
 800449c:	f833 2012 	ldrh.w	r2, [r3, r2, lsl #1]
 80044a0:	fbb0 f3f2 	udiv	r3, r0, r2
 80044a4:	4299      	cmp	r1, r3
 80044a6:	d8cb      	bhi.n	8004440 <UART_SetConfig+0xec>
 80044a8:	ebb3 3f05 	cmp.w	r3, r5, lsl #12
 80044ac:	d8c8      	bhi.n	8004440 <UART_SetConfig+0xec>
 80044ae:	2300      	movs	r3, #0
 80044b0:	2100      	movs	r1, #0
 80044b2:	f7fc faab 	bl	8000a0c <__aeabi_uldivmod>
 80044b6:	020f      	lsls	r7, r1, #8
 80044b8:	ea47 6710 	orr.w	r7, r7, r0, lsr #24
 80044bc:	0206      	lsls	r6, r0, #8
 80044be:	0868      	lsrs	r0, r5, #1
 80044c0:	eb16 0b00 	adds.w	fp, r6, r0
 80044c4:	f147 0c00 	adc.w	ip, r7, #0
 80044c8:	462a      	mov	r2, r5
 80044ca:	2300      	movs	r3, #0
 80044cc:	4658      	mov	r0, fp
 80044ce:	4661      	mov	r1, ip
 80044d0:	f7fc fa9c 	bl	8000a0c <__aeabi_uldivmod>
 80044d4:	4b4c      	ldr	r3, [pc, #304]	; (8004608 <UART_SetConfig+0x2b4>)
 80044d6:	f5a0 7240 	sub.w	r2, r0, #768	; 0x300
 80044da:	429a      	cmp	r2, r3
 80044dc:	d8b0      	bhi.n	8004440 <UART_SetConfig+0xec>
 80044de:	6823      	ldr	r3, [r4, #0]
 80044e0:	60d8      	str	r0, [r3, #12]
 80044e2:	e79e      	b.n	8004422 <UART_SetConfig+0xce>
 80044e4:	f7ff fba4 	bl	8003c30 <HAL_RCC_GetPCLK2Freq>
 80044e8:	e05c      	b.n	80045a4 <UART_SetConfig+0x250>
 80044ea:	f44f 4000 	mov.w	r0, #32768	; 0x8000
 80044ee:	e05c      	b.n	80045aa <UART_SetConfig+0x256>
 80044f0:	4846      	ldr	r0, [pc, #280]	; (800460c <UART_SetConfig+0x2b8>)
 80044f2:	e05a      	b.n	80045aa <UART_SetConfig+0x256>
 80044f4:	2b08      	cmp	r3, #8
 80044f6:	d8a3      	bhi.n	8004440 <UART_SetConfig+0xec>
 80044f8:	a201      	add	r2, pc, #4	; (adr r2, 8004500 <UART_SetConfig+0x1ac>)
 80044fa:	f852 f023 	ldr.w	pc, [r2, r3, lsl #2]
 80044fe:	bf00      	nop
 8004500:	08004525 	.word	0x08004525
 8004504:	08004551 	.word	0x08004551
 8004508:	08004597 	.word	0x08004597
 800450c:	08004441 	.word	0x08004441
 8004510:	08004557 	.word	0x08004557
 8004514:	08004441 	.word	0x08004441
 8004518:	08004441 	.word	0x08004441
 800451c:	08004441 	.word	0x08004441
 8004520:	08004569 	.word	0x08004569
 8004524:	f7ff fb72 	bl	8003c0c <HAL_RCC_GetPCLK1Freq>
 8004528:	2800      	cmp	r0, #0
 800452a:	f43f af7a 	beq.w	8004422 <UART_SetConfig+0xce>
 800452e:	6863      	ldr	r3, [r4, #4]
 8004530:	6a61      	ldr	r1, [r4, #36]	; 0x24
 8004532:	4a34      	ldr	r2, [pc, #208]	; (8004604 <UART_SetConfig+0x2b0>)
 8004534:	f832 2011 	ldrh.w	r2, [r2, r1, lsl #1]
 8004538:	fbb0 f0f2 	udiv	r0, r0, r2
 800453c:	eb00 0053 	add.w	r0, r0, r3, lsr #1
 8004540:	fbb0 f0f3 	udiv	r0, r0, r3
 8004544:	b280      	uxth	r0, r0
 8004546:	f1a0 0210 	sub.w	r2, r0, #16
 800454a:	f64f 73ef 	movw	r3, #65519	; 0xffef
 800454e:	e7c4      	b.n	80044da <UART_SetConfig+0x186>
 8004550:	f7ff fb6e 	bl	8003c30 <HAL_RCC_GetPCLK2Freq>
 8004554:	e7e8      	b.n	8004528 <UART_SetConfig+0x1d4>
 8004556:	f7ff fa2d 	bl	80039b4 <HAL_RCC_GetSysClockFreq>
 800455a:	e7e5      	b.n	8004528 <UART_SetConfig+0x1d4>
 800455c:	4b22      	ldr	r3, [pc, #136]	; (80045e8 <UART_SetConfig+0x294>)
 800455e:	429a      	cmp	r2, r3
 8004560:	d095      	beq.n	800448e <UART_SetConfig+0x13a>
 8004562:	f5b0 4f00 	cmp.w	r0, #32768	; 0x8000
 8004566:	d020      	beq.n	80045aa <UART_SetConfig+0x256>
 8004568:	f44f 4000 	mov.w	r0, #32768	; 0x8000
 800456c:	e7df      	b.n	800452e <UART_SetConfig+0x1da>
 800456e:	4b1e      	ldr	r3, [pc, #120]	; (80045e8 <UART_SetConfig+0x294>)
 8004570:	429a      	cmp	r2, r3
 8004572:	d10d      	bne.n	8004590 <UART_SetConfig+0x23c>
 8004574:	4825      	ldr	r0, [pc, #148]	; (800460c <UART_SetConfig+0x2b8>)
 8004576:	e78c      	b.n	8004492 <UART_SetConfig+0x13e>
 8004578:	4b1b      	ldr	r3, [pc, #108]	; (80045e8 <UART_SetConfig+0x294>)
 800457a:	429a      	cmp	r2, r3
 800457c:	d102      	bne.n	8004584 <UART_SetConfig+0x230>
 800457e:	f7ff fa19 	bl	80039b4 <HAL_RCC_GetSysClockFreq>
 8004582:	e74d      	b.n	8004420 <UART_SetConfig+0xcc>
 8004584:	f5b0 4f00 	cmp.w	r0, #32768	; 0x8000
 8004588:	d1e5      	bne.n	8004556 <UART_SetConfig+0x202>
 800458a:	f7ff fa13 	bl	80039b4 <HAL_RCC_GetSysClockFreq>
 800458e:	e009      	b.n	80045a4 <UART_SetConfig+0x250>
 8004590:	f5b0 4f00 	cmp.w	r0, #32768	; 0x8000
 8004594:	d0ac      	beq.n	80044f0 <UART_SetConfig+0x19c>
 8004596:	481d      	ldr	r0, [pc, #116]	; (800460c <UART_SetConfig+0x2b8>)
 8004598:	e7c9      	b.n	800452e <UART_SetConfig+0x1da>
 800459a:	f5b0 4f00 	cmp.w	r0, #32768	; 0x8000
 800459e:	d1c1      	bne.n	8004524 <UART_SetConfig+0x1d0>
 80045a0:	f7ff fb34 	bl	8003c0c <HAL_RCC_GetPCLK1Freq>
 80045a4:	2800      	cmp	r0, #0
 80045a6:	f43f af3c 	beq.w	8004422 <UART_SetConfig+0xce>
 80045aa:	6862      	ldr	r2, [r4, #4]
 80045ac:	6a61      	ldr	r1, [r4, #36]	; 0x24
 80045ae:	4b15      	ldr	r3, [pc, #84]	; (8004604 <UART_SetConfig+0x2b0>)
 80045b0:	f833 3011 	ldrh.w	r3, [r3, r1, lsl #1]
 80045b4:	fbb0 f3f3 	udiv	r3, r0, r3
 80045b8:	0850      	lsrs	r0, r2, #1
 80045ba:	eb00 0043 	add.w	r0, r0, r3, lsl #1
 80045be:	fbb0 f0f2 	udiv	r0, r0, r2
 80045c2:	b283      	uxth	r3, r0
 80045c4:	f1a3 0110 	sub.w	r1, r3, #16
 80045c8:	f64f 72ef 	movw	r2, #65519	; 0xffef
 80045cc:	4291      	cmp	r1, r2
 80045ce:	f63f af37 	bhi.w	8004440 <UART_SetConfig+0xec>
 80045d2:	f020 000f 	bic.w	r0, r0, #15
 80045d6:	b280      	uxth	r0, r0
 80045d8:	6822      	ldr	r2, [r4, #0]
 80045da:	f3c3 0342 	ubfx	r3, r3, #1, #3
 80045de:	4318      	orrs	r0, r3
 80045e0:	60d0      	str	r0, [r2, #12]
 80045e2:	e71e      	b.n	8004422 <UART_SetConfig+0xce>
 80045e4:	cfff69f3 	.word	0xcfff69f3
 80045e8:	40008000 	.word	0x40008000
 80045ec:	40013800 	.word	0x40013800
 80045f0:	08006717 	.word	0x08006717
 80045f4:	40004400 	.word	0x40004400
 80045f8:	0800671b 	.word	0x0800671b
 80045fc:	40004800 	.word	0x40004800
 8004600:	40004c00 	.word	0x40004c00
 8004604:	08006728 	.word	0x08006728
 8004608:	000ffcff 	.word	0x000ffcff
 800460c:	00f42400 	.word	0x00f42400

08004610 <UART_AdvFeatureConfig>:
 8004610:	6a83      	ldr	r3, [r0, #40]	; 0x28
 8004612:	07da      	lsls	r2, r3, #31
 8004614:	b510      	push	{r4, lr}
 8004616:	d506      	bpl.n	8004626 <UART_AdvFeatureConfig+0x16>
 8004618:	6801      	ldr	r1, [r0, #0]
 800461a:	6ac4      	ldr	r4, [r0, #44]	; 0x2c
 800461c:	684a      	ldr	r2, [r1, #4]
 800461e:	f422 3200 	bic.w	r2, r2, #131072	; 0x20000
 8004622:	4322      	orrs	r2, r4
 8004624:	604a      	str	r2, [r1, #4]
 8004626:	079c      	lsls	r4, r3, #30
 8004628:	d506      	bpl.n	8004638 <UART_AdvFeatureConfig+0x28>
 800462a:	6801      	ldr	r1, [r0, #0]
 800462c:	6b04      	ldr	r4, [r0, #48]	; 0x30
 800462e:	684a      	ldr	r2, [r1, #4]
 8004630:	f422 3280 	bic.w	r2, r2, #65536	; 0x10000
 8004634:	4322      	orrs	r2, r4
 8004636:	604a      	str	r2, [r1, #4]
 8004638:	0759      	lsls	r1, r3, #29
 800463a:	d506      	bpl.n	800464a <UART_AdvFeatureConfig+0x3a>
 800463c:	6801      	ldr	r1, [r0, #0]
 800463e:	6b44      	ldr	r4, [r0, #52]	; 0x34
 8004640:	684a      	ldr	r2, [r1, #4]
 8004642:	f422 2280 	bic.w	r2, r2, #262144	; 0x40000
 8004646:	4322      	orrs	r2, r4
 8004648:	604a      	str	r2, [r1, #4]
 800464a:	071a      	lsls	r2, r3, #28
 800464c:	d506      	bpl.n	800465c <UART_AdvFeatureConfig+0x4c>
 800464e:	6801      	ldr	r1, [r0, #0]
 8004650:	6b84      	ldr	r4, [r0, #56]	; 0x38
 8004652:	684a      	ldr	r2, [r1, #4]
 8004654:	f422 4200 	bic.w	r2, r2, #32768	; 0x8000
 8004658:	4322      	orrs	r2, r4
 800465a:	604a      	str	r2, [r1, #4]
 800465c:	06dc      	lsls	r4, r3, #27
 800465e:	d506      	bpl.n	800466e <UART_AdvFeatureConfig+0x5e>
 8004660:	6801      	ldr	r1, [r0, #0]
 8004662:	6bc4      	ldr	r4, [r0, #60]	; 0x3c
 8004664:	688a      	ldr	r2, [r1, #8]
 8004666:	f422 5280 	bic.w	r2, r2, #4096	; 0x1000
 800466a:	4322      	orrs	r2, r4
 800466c:	608a      	str	r2, [r1, #8]
 800466e:	0699      	lsls	r1, r3, #26
 8004670:	d506      	bpl.n	8004680 <UART_AdvFeatureConfig+0x70>
 8004672:	6801      	ldr	r1, [r0, #0]
 8004674:	6c04      	ldr	r4, [r0, #64]	; 0x40
 8004676:	688a      	ldr	r2, [r1, #8]
 8004678:	f422 5200 	bic.w	r2, r2, #8192	; 0x2000
 800467c:	4322      	orrs	r2, r4
 800467e:	608a      	str	r2, [r1, #8]
 8004680:	065a      	lsls	r2, r3, #25
 8004682:	d50f      	bpl.n	80046a4 <UART_AdvFeatureConfig+0x94>
 8004684:	6801      	ldr	r1, [r0, #0]
 8004686:	6c44      	ldr	r4, [r0, #68]	; 0x44
 8004688:	684a      	ldr	r2, [r1, #4]
 800468a:	f422 1280 	bic.w	r2, r2, #1048576	; 0x100000
 800468e:	4322      	orrs	r2, r4
 8004690:	f5b4 1f80 	cmp.w	r4, #1048576	; 0x100000
 8004694:	604a      	str	r2, [r1, #4]
 8004696:	d105      	bne.n	80046a4 <UART_AdvFeatureConfig+0x94>
 8004698:	684a      	ldr	r2, [r1, #4]
 800469a:	6c84      	ldr	r4, [r0, #72]	; 0x48
 800469c:	f422 02c0 	bic.w	r2, r2, #6291456	; 0x600000
 80046a0:	4322      	orrs	r2, r4
 80046a2:	604a      	str	r2, [r1, #4]
 80046a4:	061b      	lsls	r3, r3, #24
 80046a6:	d506      	bpl.n	80046b6 <UART_AdvFeatureConfig+0xa6>
 80046a8:	6802      	ldr	r2, [r0, #0]
 80046aa:	6cc1      	ldr	r1, [r0, #76]	; 0x4c
 80046ac:	6853      	ldr	r3, [r2, #4]
 80046ae:	f423 2300 	bic.w	r3, r3, #524288	; 0x80000
 80046b2:	430b      	orrs	r3, r1
 80046b4:	6053      	str	r3, [r2, #4]
 80046b6:	bd10      	pop	{r4, pc}

080046b8 <UART_WaitOnFlagUntilTimeout>:
 80046b8:	e92d 41f0 	stmdb	sp!, {r4, r5, r6, r7, r8, lr}
 80046bc:	9d06      	ldr	r5, [sp, #24]
 80046be:	4604      	mov	r4, r0
 80046c0:	460f      	mov	r7, r1
 80046c2:	4616      	mov	r6, r2
 80046c4:	4698      	mov	r8, r3
 80046c6:	6821      	ldr	r1, [r4, #0]
 80046c8:	69ca      	ldr	r2, [r1, #28]
 80046ca:	ea37 0302 	bics.w	r3, r7, r2
 80046ce:	bf0c      	ite	eq
 80046d0:	2201      	moveq	r2, #1
 80046d2:	2200      	movne	r2, #0
 80046d4:	42b2      	cmp	r2, r6
 80046d6:	d001      	beq.n	80046dc <UART_WaitOnFlagUntilTimeout+0x24>
 80046d8:	2000      	movs	r0, #0
 80046da:	e01a      	b.n	8004712 <UART_WaitOnFlagUntilTimeout+0x5a>
 80046dc:	1c68      	adds	r0, r5, #1
 80046de:	d0f3      	beq.n	80046c8 <UART_WaitOnFlagUntilTimeout+0x10>
 80046e0:	f7fd fd6c 	bl	80021bc <HAL_GetTick>
 80046e4:	eba0 0008 	sub.w	r0, r0, r8
 80046e8:	42a8      	cmp	r0, r5
 80046ea:	6820      	ldr	r0, [r4, #0]
 80046ec:	6803      	ldr	r3, [r0, #0]
 80046ee:	d800      	bhi.n	80046f2 <UART_WaitOnFlagUntilTimeout+0x3a>
 80046f0:	b98d      	cbnz	r5, 8004716 <UART_WaitOnFlagUntilTimeout+0x5e>
 80046f2:	f423 73d0 	bic.w	r3, r3, #416	; 0x1a0
 80046f6:	6003      	str	r3, [r0, #0]
 80046f8:	6883      	ldr	r3, [r0, #8]
 80046fa:	f023 0301 	bic.w	r3, r3, #1
 80046fe:	6083      	str	r3, [r0, #8]
 8004700:	2320      	movs	r3, #32
 8004702:	f8c4 3080 	str.w	r3, [r4, #128]	; 0x80
 8004706:	f8c4 3084 	str.w	r3, [r4, #132]	; 0x84
 800470a:	2300      	movs	r3, #0
 800470c:	f884 307c 	strb.w	r3, [r4, #124]	; 0x7c
 8004710:	2003      	movs	r0, #3
 8004712:	e8bd 81f0 	ldmia.w	sp!, {r4, r5, r6, r7, r8, pc}
 8004716:	075a      	lsls	r2, r3, #29
 8004718:	d5d5      	bpl.n	80046c6 <UART_WaitOnFlagUntilTimeout+0xe>
 800471a:	69c3      	ldr	r3, [r0, #28]
 800471c:	051b      	lsls	r3, r3, #20
 800471e:	d5d2      	bpl.n	80046c6 <UART_WaitOnFlagUntilTimeout+0xe>
 8004720:	f44f 6300 	mov.w	r3, #2048	; 0x800
 8004724:	6203      	str	r3, [r0, #32]
 8004726:	6803      	ldr	r3, [r0, #0]
 8004728:	f423 73d0 	bic.w	r3, r3, #416	; 0x1a0
 800472c:	6003      	str	r3, [r0, #0]
 800472e:	6883      	ldr	r3, [r0, #8]
 8004730:	f023 0301 	bic.w	r3, r3, #1
 8004734:	6083      	str	r3, [r0, #8]
 8004736:	2320      	movs	r3, #32
 8004738:	f8c4 3080 	str.w	r3, [r4, #128]	; 0x80
 800473c:	f8c4 3084 	str.w	r3, [r4, #132]	; 0x84
 8004740:	f8c4 3088 	str.w	r3, [r4, #136]	; 0x88
 8004744:	e7e1      	b.n	800470a <UART_WaitOnFlagUntilTimeout+0x52>

08004746 <UART_CheckIdleState>:
 8004746:	b573      	push	{r0, r1, r4, r5, r6, lr}
 8004748:	4604      	mov	r4, r0
 800474a:	2600      	movs	r6, #0
 800474c:	f8c0 6088 	str.w	r6, [r0, #136]	; 0x88
 8004750:	f7fd fd34 	bl	80021bc <HAL_GetTick>
 8004754:	6823      	ldr	r3, [r4, #0]
 8004756:	681b      	ldr	r3, [r3, #0]
 8004758:	071a      	lsls	r2, r3, #28
 800475a:	4605      	mov	r5, r0
 800475c:	d417      	bmi.n	800478e <UART_CheckIdleState+0x48>
 800475e:	6823      	ldr	r3, [r4, #0]
 8004760:	681b      	ldr	r3, [r3, #0]
 8004762:	075b      	lsls	r3, r3, #29
 8004764:	d50a      	bpl.n	800477c <UART_CheckIdleState+0x36>
 8004766:	f06f 437e 	mvn.w	r3, #4261412864	; 0xfe000000
 800476a:	9300      	str	r3, [sp, #0]
 800476c:	2200      	movs	r2, #0
 800476e:	462b      	mov	r3, r5
 8004770:	f44f 0180 	mov.w	r1, #4194304	; 0x400000
 8004774:	4620      	mov	r0, r4
 8004776:	f7ff ff9f 	bl	80046b8 <UART_WaitOnFlagUntilTimeout>
 800477a:	b9a0      	cbnz	r0, 80047a6 <UART_CheckIdleState+0x60>
 800477c:	2320      	movs	r3, #32
 800477e:	2000      	movs	r0, #0
 8004780:	f8c4 3080 	str.w	r3, [r4, #128]	; 0x80
 8004784:	f884 007c 	strb.w	r0, [r4, #124]	; 0x7c
 8004788:	f8c4 3084 	str.w	r3, [r4, #132]	; 0x84
 800478c:	e00c      	b.n	80047a8 <UART_CheckIdleState+0x62>
 800478e:	f06f 437e 	mvn.w	r3, #4261412864	; 0xfe000000
 8004792:	9300      	str	r3, [sp, #0]
 8004794:	4632      	mov	r2, r6
 8004796:	4603      	mov	r3, r0
 8004798:	f44f 1100 	mov.w	r1, #2097152	; 0x200000
 800479c:	4620      	mov	r0, r4
 800479e:	f7ff ff8b 	bl	80046b8 <UART_WaitOnFlagUntilTimeout>
 80047a2:	2800      	cmp	r0, #0
 80047a4:	d0db      	beq.n	800475e <UART_CheckIdleState+0x18>
 80047a6:	2003      	movs	r0, #3
 80047a8:	b002      	add	sp, #8
 80047aa:	bd70      	pop	{r4, r5, r6, pc}

080047ac <HAL_UART_Init>:
 80047ac:	b510      	push	{r4, lr}
 80047ae:	4604      	mov	r4, r0
 80047b0:	b350      	cbz	r0, 8004808 <HAL_UART_Init+0x5c>
 80047b2:	f8d0 3080 	ldr.w	r3, [r0, #128]	; 0x80
 80047b6:	b91b      	cbnz	r3, 80047c0 <HAL_UART_Init+0x14>
 80047b8:	f880 307c 	strb.w	r3, [r0, #124]	; 0x7c
 80047bc:	f7fd fc2a 	bl	8002014 <HAL_UART_MspInit>
 80047c0:	6822      	ldr	r2, [r4, #0]
 80047c2:	2324      	movs	r3, #36	; 0x24
 80047c4:	f8c4 3080 	str.w	r3, [r4, #128]	; 0x80
 80047c8:	6813      	ldr	r3, [r2, #0]
 80047ca:	f023 0301 	bic.w	r3, r3, #1
 80047ce:	6013      	str	r3, [r2, #0]
 80047d0:	4620      	mov	r0, r4
 80047d2:	f7ff fdbf 	bl	8004354 <UART_SetConfig>
 80047d6:	2801      	cmp	r0, #1
 80047d8:	d016      	beq.n	8004808 <HAL_UART_Init+0x5c>
 80047da:	6aa3      	ldr	r3, [r4, #40]	; 0x28
 80047dc:	b113      	cbz	r3, 80047e4 <HAL_UART_Init+0x38>
 80047de:	4620      	mov	r0, r4
 80047e0:	f7ff ff16 	bl	8004610 <UART_AdvFeatureConfig>
 80047e4:	6823      	ldr	r3, [r4, #0]
 80047e6:	685a      	ldr	r2, [r3, #4]
 80047e8:	f422 4290 	bic.w	r2, r2, #18432	; 0x4800
 80047ec:	605a      	str	r2, [r3, #4]
 80047ee:	689a      	ldr	r2, [r3, #8]
 80047f0:	f022 022a 	bic.w	r2, r2, #42	; 0x2a
 80047f4:	609a      	str	r2, [r3, #8]
 80047f6:	681a      	ldr	r2, [r3, #0]
 80047f8:	f042 0201 	orr.w	r2, r2, #1
 80047fc:	4620      	mov	r0, r4
 80047fe:	601a      	str	r2, [r3, #0]
 8004800:	e8bd 4010 	ldmia.w	sp!, {r4, lr}
 8004804:	f7ff bf9f 	b.w	8004746 <UART_CheckIdleState>
 8004808:	2001      	movs	r0, #1
 800480a:	bd10      	pop	{r4, pc}

0800480c <UARTEx_SetNbDataToProcess>:
 800480c:	4a18      	ldr	r2, [pc, #96]	; (8004870 <UARTEx_SetNbDataToProcess+0x64>)
 800480e:	b084      	sub	sp, #16
 8004810:	f240 1307 	movw	r3, #263	; 0x107
 8004814:	e9cd 2300 	strd	r2, r3, [sp]
 8004818:	4b16      	ldr	r3, [pc, #88]	; (8004874 <UARTEx_SetNbDataToProcess+0x68>)
 800481a:	9302      	str	r3, [sp, #8]
 800481c:	f1a3 2303 	sub.w	r3, r3, #50332416	; 0x3000300
 8004820:	f5a3 3380 	sub.w	r3, r3, #65536	; 0x10000
 8004824:	9303      	str	r3, [sp, #12]
 8004826:	6e43      	ldr	r3, [r0, #100]	; 0x64
 8004828:	b923      	cbnz	r3, 8004834 <UARTEx_SetNbDataToProcess+0x28>
 800482a:	f04f 1301 	mov.w	r3, #65537	; 0x10001
 800482e:	6683      	str	r3, [r0, #104]	; 0x68
 8004830:	b004      	add	sp, #16
 8004832:	4770      	bx	lr
 8004834:	6802      	ldr	r2, [r0, #0]
 8004836:	6893      	ldr	r3, [r2, #8]
 8004838:	6891      	ldr	r1, [r2, #8]
 800483a:	aa04      	add	r2, sp, #16
 800483c:	eb02 7151 	add.w	r1, r2, r1, lsr #29
 8004840:	f3c3 6342 	ubfx	r3, r3, #25, #3
 8004844:	f811 2c10 	ldrb.w	r2, [r1, #-16]
 8004848:	f811 1c08 	ldrb.w	r1, [r1, #-8]
 800484c:	00d2      	lsls	r2, r2, #3
 800484e:	fb92 f2f1 	sdiv	r2, r2, r1
 8004852:	f8a0 206a 	strh.w	r2, [r0, #106]	; 0x6a
 8004856:	aa04      	add	r2, sp, #16
 8004858:	4413      	add	r3, r2
 800485a:	f813 2c10 	ldrb.w	r2, [r3, #-16]
 800485e:	f813 3c08 	ldrb.w	r3, [r3, #-8]
 8004862:	00d2      	lsls	r2, r2, #3
 8004864:	fb92 f3f3 	sdiv	r3, r2, r3
 8004868:	f8a0 3068 	strh.w	r3, [r0, #104]	; 0x68
 800486c:	e7e0      	b.n	8004830 <UARTEx_SetNbDataToProcess+0x24>
 800486e:	bf00      	nop
 8004870:	03010101 	.word	0x03010101
 8004874:	04020408 	.word	0x04020408

08004878 <HAL_UARTEx_DisableFifoMode>:
 8004878:	f890 307c 	ldrb.w	r3, [r0, #124]	; 0x7c
 800487c:	2b01      	cmp	r3, #1
 800487e:	d014      	beq.n	80048aa <HAL_UARTEx_DisableFifoMode+0x32>
 8004880:	6802      	ldr	r2, [r0, #0]
 8004882:	2324      	movs	r3, #36	; 0x24
 8004884:	f8c0 3080 	str.w	r3, [r0, #128]	; 0x80
 8004888:	6811      	ldr	r1, [r2, #0]
 800488a:	6813      	ldr	r3, [r2, #0]
 800488c:	f023 0301 	bic.w	r3, r3, #1
 8004890:	6013      	str	r3, [r2, #0]
 8004892:	f021 5100 	bic.w	r1, r1, #536870912	; 0x20000000
 8004896:	2300      	movs	r3, #0
 8004898:	6643      	str	r3, [r0, #100]	; 0x64
 800489a:	6011      	str	r1, [r2, #0]
 800489c:	2220      	movs	r2, #32
 800489e:	f8c0 2080 	str.w	r2, [r0, #128]	; 0x80
 80048a2:	f880 307c 	strb.w	r3, [r0, #124]	; 0x7c
 80048a6:	4618      	mov	r0, r3
 80048a8:	4770      	bx	lr
 80048aa:	2002      	movs	r0, #2
 80048ac:	4770      	bx	lr

080048ae <HAL_UARTEx_SetTxFifoThreshold>:
 80048ae:	b538      	push	{r3, r4, r5, lr}
 80048b0:	f890 307c 	ldrb.w	r3, [r0, #124]	; 0x7c
 80048b4:	2b01      	cmp	r3, #1
 80048b6:	4604      	mov	r4, r0
 80048b8:	d01b      	beq.n	80048f2 <HAL_UARTEx_SetTxFifoThreshold+0x44>
 80048ba:	2301      	movs	r3, #1
 80048bc:	f880 307c 	strb.w	r3, [r0, #124]	; 0x7c
 80048c0:	2324      	movs	r3, #36	; 0x24
 80048c2:	f8c0 3080 	str.w	r3, [r0, #128]	; 0x80
 80048c6:	6803      	ldr	r3, [r0, #0]
 80048c8:	681d      	ldr	r5, [r3, #0]
 80048ca:	681a      	ldr	r2, [r3, #0]
 80048cc:	f022 0201 	bic.w	r2, r2, #1
 80048d0:	601a      	str	r2, [r3, #0]
 80048d2:	689a      	ldr	r2, [r3, #8]
 80048d4:	f022 4260 	bic.w	r2, r2, #3758096384	; 0xe0000000
 80048d8:	4311      	orrs	r1, r2
 80048da:	6099      	str	r1, [r3, #8]
 80048dc:	f7ff ff96 	bl	800480c <UARTEx_SetNbDataToProcess>
 80048e0:	6803      	ldr	r3, [r0, #0]
 80048e2:	601d      	str	r5, [r3, #0]
 80048e4:	2320      	movs	r3, #32
 80048e6:	f8c0 3080 	str.w	r3, [r0, #128]	; 0x80
 80048ea:	2000      	movs	r0, #0
 80048ec:	f884 007c 	strb.w	r0, [r4, #124]	; 0x7c
 80048f0:	bd38      	pop	{r3, r4, r5, pc}
 80048f2:	2002      	movs	r0, #2
 80048f4:	e7fc      	b.n	80048f0 <HAL_UARTEx_SetTxFifoThreshold+0x42>

080048f6 <HAL_UARTEx_SetRxFifoThreshold>:
 80048f6:	b538      	push	{r3, r4, r5, lr}
 80048f8:	f890 307c 	ldrb.w	r3, [r0, #124]	; 0x7c
 80048fc:	2b01      	cmp	r3, #1
 80048fe:	4604      	mov	r4, r0
 8004900:	d01b      	beq.n	800493a <HAL_UARTEx_SetRxFifoThreshold+0x44>
 8004902:	2301      	movs	r3, #1
 8004904:	f880 307c 	strb.w	r3, [r0, #124]	; 0x7c
 8004908:	2324      	movs	r3, #36	; 0x24
 800490a:	f8c0 3080 	str.w	r3, [r0, #128]	; 0x80
 800490e:	6803      	ldr	r3, [r0, #0]
 8004910:	681d      	ldr	r5, [r3, #0]
 8004912:	681a      	ldr	r2, [r3, #0]
 8004914:	f022 0201 	bic.w	r2, r2, #1
 8004918:	601a      	str	r2, [r3, #0]
 800491a:	689a      	ldr	r2, [r3, #8]
 800491c:	f022 6260 	bic.w	r2, r2, #234881024	; 0xe000000
 8004920:	4311      	orrs	r1, r2
 8004922:	6099      	str	r1, [r3, #8]
 8004924:	f7ff ff72 	bl	800480c <UARTEx_SetNbDataToProcess>
 8004928:	6803      	ldr	r3, [r0, #0]
 800492a:	601d      	str	r5, [r3, #0]
 800492c:	2320      	movs	r3, #32
 800492e:	f8c0 3080 	str.w	r3, [r0, #128]	; 0x80
 8004932:	2000      	movs	r0, #0
 8004934:	f884 007c 	strb.w	r0, [r4, #124]	; 0x7c
 8004938:	bd38      	pop	{r3, r4, r5, pc}
 800493a:	2002      	movs	r0, #2
 800493c:	e7fc      	b.n	8004938 <HAL_UARTEx_SetRxFifoThreshold+0x42>
	...

08004940 <osKernelInitialize>:
 8004940:	f3ef 8305 	mrs	r3, IPSR
 8004944:	b113      	cbz	r3, 800494c <osKernelInitialize+0xc>
 8004946:	f06f 0005 	mvn.w	r0, #5
 800494a:	4770      	bx	lr
 800494c:	f3ef 8210 	mrs	r2, PRIMASK
 8004950:	4b07      	ldr	r3, [pc, #28]	; (8004970 <osKernelInitialize+0x30>)
 8004952:	b912      	cbnz	r2, 800495a <osKernelInitialize+0x1a>
 8004954:	f3ef 8211 	mrs	r2, BASEPRI
 8004958:	b112      	cbz	r2, 8004960 <osKernelInitialize+0x20>
 800495a:	681a      	ldr	r2, [r3, #0]
 800495c:	2a02      	cmp	r2, #2
 800495e:	d0f2      	beq.n	8004946 <osKernelInitialize+0x6>
 8004960:	6818      	ldr	r0, [r3, #0]
 8004962:	b910      	cbnz	r0, 800496a <osKernelInitialize+0x2a>
 8004964:	2201      	movs	r2, #1
 8004966:	601a      	str	r2, [r3, #0]
 8004968:	4770      	bx	lr
 800496a:	f04f 30ff 	mov.w	r0, #4294967295	; 0xffffffff
 800496e:	4770      	bx	lr
 8004970:	20000340 	.word	0x20000340

08004974 <osKernelStart>:
 8004974:	b508      	push	{r3, lr}
 8004976:	f3ef 8305 	mrs	r3, IPSR
 800497a:	b113      	cbz	r3, 8004982 <osKernelStart+0xe>
 800497c:	f06f 0005 	mvn.w	r0, #5
 8004980:	bd08      	pop	{r3, pc}
 8004982:	f3ef 8210 	mrs	r2, PRIMASK
 8004986:	4b0a      	ldr	r3, [pc, #40]	; (80049b0 <osKernelStart+0x3c>)
 8004988:	b912      	cbnz	r2, 8004990 <osKernelStart+0x1c>
 800498a:	f3ef 8211 	mrs	r2, BASEPRI
 800498e:	b112      	cbz	r2, 8004996 <osKernelStart+0x22>
 8004990:	681a      	ldr	r2, [r3, #0]
 8004992:	2a02      	cmp	r2, #2
 8004994:	d0f2      	beq.n	800497c <osKernelStart+0x8>
 8004996:	681a      	ldr	r2, [r3, #0]
 8004998:	2a01      	cmp	r2, #1
 800499a:	d105      	bne.n	80049a8 <osKernelStart+0x34>
 800499c:	2202      	movs	r2, #2
 800499e:	601a      	str	r2, [r3, #0]
 80049a0:	f000 fda2 	bl	80054e8 <vTaskStartScheduler>
 80049a4:	2000      	movs	r0, #0
 80049a6:	e7eb      	b.n	8004980 <osKernelStart+0xc>
 80049a8:	f04f 30ff 	mov.w	r0, #4294967295	; 0xffffffff
 80049ac:	e7e8      	b.n	8004980 <osKernelStart+0xc>
 80049ae:	bf00      	nop
 80049b0:	20000340 	.word	0x20000340

080049b4 <osThreadNew>:
 80049b4:	b5f0      	push	{r4, r5, r6, r7, lr}
 80049b6:	b087      	sub	sp, #28
 80049b8:	4614      	mov	r4, r2
 80049ba:	2200      	movs	r2, #0
 80049bc:	460b      	mov	r3, r1
 80049be:	9205      	str	r2, [sp, #20]
 80049c0:	f3ef 8205 	mrs	r2, IPSR
 80049c4:	bb32      	cbnz	r2, 8004a14 <osThreadNew+0x60>
 80049c6:	f3ef 8210 	mrs	r2, PRIMASK
 80049ca:	b912      	cbnz	r2, 80049d2 <osThreadNew+0x1e>
 80049cc:	f3ef 8211 	mrs	r2, BASEPRI
 80049d0:	b11a      	cbz	r2, 80049da <osThreadNew+0x26>
 80049d2:	4a22      	ldr	r2, [pc, #136]	; (8004a5c <osThreadNew+0xa8>)
 80049d4:	6812      	ldr	r2, [r2, #0]
 80049d6:	2a02      	cmp	r2, #2
 80049d8:	d01c      	beq.n	8004a14 <osThreadNew+0x60>
 80049da:	b1d8      	cbz	r0, 8004a14 <osThreadNew+0x60>
 80049dc:	2c00      	cmp	r4, #0
 80049de:	d036      	beq.n	8004a4e <osThreadNew+0x9a>
 80049e0:	69a5      	ldr	r5, [r4, #24]
 80049e2:	6821      	ldr	r1, [r4, #0]
 80049e4:	2d00      	cmp	r5, #0
 80049e6:	bf08      	it	eq
 80049e8:	2518      	moveq	r5, #24
 80049ea:	1e6a      	subs	r2, r5, #1
 80049ec:	2a37      	cmp	r2, #55	; 0x37
 80049ee:	462f      	mov	r7, r5
 80049f0:	d831      	bhi.n	8004a56 <osThreadNew+0xa2>
 80049f2:	6862      	ldr	r2, [r4, #4]
 80049f4:	07d2      	lsls	r2, r2, #31
 80049f6:	d42e      	bmi.n	8004a56 <osThreadNew+0xa2>
 80049f8:	6966      	ldr	r6, [r4, #20]
 80049fa:	b176      	cbz	r6, 8004a1a <osThreadNew+0x66>
 80049fc:	08b2      	lsrs	r2, r6, #2
 80049fe:	e9d4 ce02 	ldrd	ip, lr, [r4, #8]
 8004a02:	f1bc 0f00 	cmp.w	ip, #0
 8004a06:	d00a      	beq.n	8004a1e <osThreadNew+0x6a>
 8004a08:	f1be 0f5b 	cmp.w	lr, #91	; 0x5b
 8004a0c:	d902      	bls.n	8004a14 <osThreadNew+0x60>
 8004a0e:	6924      	ldr	r4, [r4, #16]
 8004a10:	b104      	cbz	r4, 8004a14 <osThreadNew+0x60>
 8004a12:	b9ae      	cbnz	r6, 8004a40 <osThreadNew+0x8c>
 8004a14:	9805      	ldr	r0, [sp, #20]
 8004a16:	b007      	add	sp, #28
 8004a18:	bdf0      	pop	{r4, r5, r6, r7, pc}
 8004a1a:	2280      	movs	r2, #128	; 0x80
 8004a1c:	e7ef      	b.n	80049fe <osThreadNew+0x4a>
 8004a1e:	f1be 0f00 	cmp.w	lr, #0
 8004a22:	d1f7      	bne.n	8004a14 <osThreadNew+0x60>
 8004a24:	6924      	ldr	r4, [r4, #16]
 8004a26:	2c00      	cmp	r4, #0
 8004a28:	d1f4      	bne.n	8004a14 <osThreadNew+0x60>
 8004a2a:	ac05      	add	r4, sp, #20
 8004a2c:	e9cd 7400 	strd	r7, r4, [sp]
 8004a30:	b292      	uxth	r2, r2
 8004a32:	f000 fd2b 	bl	800548c <xTaskCreate>
 8004a36:	2801      	cmp	r0, #1
 8004a38:	bf1c      	itt	ne
 8004a3a:	2300      	movne	r3, #0
 8004a3c:	9305      	strne	r3, [sp, #20]
 8004a3e:	e7e9      	b.n	8004a14 <osThreadNew+0x60>
 8004a40:	e9cd 4c01 	strd	r4, ip, [sp, #4]
 8004a44:	9500      	str	r5, [sp, #0]
 8004a46:	f000 fce9 	bl	800541c <xTaskCreateStatic>
 8004a4a:	9005      	str	r0, [sp, #20]
 8004a4c:	e7e2      	b.n	8004a14 <osThreadNew+0x60>
 8004a4e:	2718      	movs	r7, #24
 8004a50:	2280      	movs	r2, #128	; 0x80
 8004a52:	4621      	mov	r1, r4
 8004a54:	e7e9      	b.n	8004a2a <osThreadNew+0x76>
 8004a56:	2000      	movs	r0, #0
 8004a58:	e7dd      	b.n	8004a16 <osThreadNew+0x62>
 8004a5a:	bf00      	nop
 8004a5c:	20000340 	.word	0x20000340

08004a60 <osDelay>:
 8004a60:	b508      	push	{r3, lr}
 8004a62:	f3ef 8305 	mrs	r3, IPSR
 8004a66:	b113      	cbz	r3, 8004a6e <osDelay+0xe>
 8004a68:	f06f 0005 	mvn.w	r0, #5
 8004a6c:	bd08      	pop	{r3, pc}
 8004a6e:	f3ef 8310 	mrs	r3, PRIMASK
 8004a72:	b913      	cbnz	r3, 8004a7a <osDelay+0x1a>
 8004a74:	f3ef 8311 	mrs	r3, BASEPRI
 8004a78:	b11b      	cbz	r3, 8004a82 <osDelay+0x22>
 8004a7a:	4b05      	ldr	r3, [pc, #20]	; (8004a90 <osDelay+0x30>)
 8004a7c:	681b      	ldr	r3, [r3, #0]
 8004a7e:	2b02      	cmp	r3, #2
 8004a80:	d0f2      	beq.n	8004a68 <osDelay+0x8>
 8004a82:	2800      	cmp	r0, #0
 8004a84:	d0f2      	beq.n	8004a6c <osDelay+0xc>
 8004a86:	f000 fe85 	bl	8005794 <vTaskDelay>
 8004a8a:	2000      	movs	r0, #0
 8004a8c:	e7ee      	b.n	8004a6c <osDelay+0xc>
 8004a8e:	bf00      	nop
 8004a90:	20000340 	.word	0x20000340

08004a94 <vApplicationGetIdleTaskMemory>:
 8004a94:	4b03      	ldr	r3, [pc, #12]	; (8004aa4 <vApplicationGetIdleTaskMemory+0x10>)
 8004a96:	6003      	str	r3, [r0, #0]
 8004a98:	4b03      	ldr	r3, [pc, #12]	; (8004aa8 <vApplicationGetIdleTaskMemory+0x14>)
 8004a9a:	600b      	str	r3, [r1, #0]
 8004a9c:	2380      	movs	r3, #128	; 0x80
 8004a9e:	6013      	str	r3, [r2, #0]
 8004aa0:	4770      	bx	lr
 8004aa2:	bf00      	nop
 8004aa4:	200002e4 	.word	0x200002e4
 8004aa8:	200000e4 	.word	0x200000e4

08004aac <vApplicationGetTimerTaskMemory>:
 8004aac:	4b03      	ldr	r3, [pc, #12]	; (8004abc <vApplicationGetTimerTaskMemory+0x10>)
 8004aae:	6003      	str	r3, [r0, #0]
 8004ab0:	4b03      	ldr	r3, [pc, #12]	; (8004ac0 <vApplicationGetTimerTaskMemory+0x14>)
 8004ab2:	600b      	str	r3, [r1, #0]
 8004ab4:	f44f 7380 	mov.w	r3, #256	; 0x100
 8004ab8:	6013      	str	r3, [r2, #0]
 8004aba:	4770      	bx	lr
 8004abc:	20000744 	.word	0x20000744
 8004ac0:	20000344 	.word	0x20000344

08004ac4 <vListInitialise>:
 8004ac4:	f100 0308 	add.w	r3, r0, #8
 8004ac8:	f04f 32ff 	mov.w	r2, #4294967295	; 0xffffffff
 8004acc:	6043      	str	r3, [r0, #4]
 8004ace:	e9c0 2302 	strd	r2, r3, [r0, #8]
 8004ad2:	6103      	str	r3, [r0, #16]
 8004ad4:	2300      	movs	r3, #0
 8004ad6:	6003      	str	r3, [r0, #0]
 8004ad8:	4770      	bx	lr

08004ada <vListInitialiseItem>:
 8004ada:	2300      	movs	r3, #0
 8004adc:	6103      	str	r3, [r0, #16]
 8004ade:	4770      	bx	lr

08004ae0 <vListInsertEnd>:
 8004ae0:	6843      	ldr	r3, [r0, #4]
 8004ae2:	604b      	str	r3, [r1, #4]
 8004ae4:	689a      	ldr	r2, [r3, #8]
 8004ae6:	608a      	str	r2, [r1, #8]
 8004ae8:	689a      	ldr	r2, [r3, #8]
 8004aea:	6051      	str	r1, [r2, #4]
 8004aec:	6099      	str	r1, [r3, #8]
 8004aee:	6803      	ldr	r3, [r0, #0]
 8004af0:	6108      	str	r0, [r1, #16]
 8004af2:	3301      	adds	r3, #1
 8004af4:	6003      	str	r3, [r0, #0]
 8004af6:	4770      	bx	lr

08004af8 <vListInsert>:
 8004af8:	680a      	ldr	r2, [r1, #0]
 8004afa:	1c53      	adds	r3, r2, #1
 8004afc:	b530      	push	{r4, r5, lr}
 8004afe:	d10a      	bne.n	8004b16 <vListInsert+0x1e>
 8004b00:	6903      	ldr	r3, [r0, #16]
 8004b02:	685a      	ldr	r2, [r3, #4]
 8004b04:	604a      	str	r2, [r1, #4]
 8004b06:	6091      	str	r1, [r2, #8]
 8004b08:	608b      	str	r3, [r1, #8]
 8004b0a:	6059      	str	r1, [r3, #4]
 8004b0c:	6803      	ldr	r3, [r0, #0]
 8004b0e:	6108      	str	r0, [r1, #16]
 8004b10:	3301      	adds	r3, #1
 8004b12:	6003      	str	r3, [r0, #0]
 8004b14:	bd30      	pop	{r4, r5, pc}
 8004b16:	f100 0308 	add.w	r3, r0, #8
 8004b1a:	685c      	ldr	r4, [r3, #4]
 8004b1c:	6825      	ldr	r5, [r4, #0]
 8004b1e:	4295      	cmp	r5, r2
 8004b20:	d8ef      	bhi.n	8004b02 <vListInsert+0xa>
 8004b22:	4623      	mov	r3, r4
 8004b24:	e7f9      	b.n	8004b1a <vListInsert+0x22>

08004b26 <uxListRemove>:
 8004b26:	e9d0 1201 	ldrd	r1, r2, [r0, #4]
 8004b2a:	6903      	ldr	r3, [r0, #16]
 8004b2c:	608a      	str	r2, [r1, #8]
 8004b2e:	6882      	ldr	r2, [r0, #8]
 8004b30:	6051      	str	r1, [r2, #4]
 8004b32:	6859      	ldr	r1, [r3, #4]
 8004b34:	4281      	cmp	r1, r0
 8004b36:	bf08      	it	eq
 8004b38:	605a      	streq	r2, [r3, #4]
 8004b3a:	2200      	movs	r2, #0
 8004b3c:	6102      	str	r2, [r0, #16]
 8004b3e:	681a      	ldr	r2, [r3, #0]
 8004b40:	3a01      	subs	r2, #1
 8004b42:	601a      	str	r2, [r3, #0]
 8004b44:	6818      	ldr	r0, [r3, #0]
 8004b46:	4770      	bx	lr

08004b48 <prvIsQueueEmpty>:
 8004b48:	b510      	push	{r4, lr}
 8004b4a:	4604      	mov	r4, r0
 8004b4c:	f001 fa02 	bl	8005f54 <vPortEnterCritical>
 8004b50:	6ba4      	ldr	r4, [r4, #56]	; 0x38
 8004b52:	f001 fa21 	bl	8005f98 <vPortExitCritical>
 8004b56:	fab4 f084 	clz	r0, r4
 8004b5a:	0940      	lsrs	r0, r0, #5
 8004b5c:	bd10      	pop	{r4, pc}

08004b5e <prvCopyDataToQueue>:
 8004b5e:	b570      	push	{r4, r5, r6, lr}
 8004b60:	4615      	mov	r5, r2
 8004b62:	6c02      	ldr	r2, [r0, #64]	; 0x40
 8004b64:	6b86      	ldr	r6, [r0, #56]	; 0x38
 8004b66:	4604      	mov	r4, r0
 8004b68:	b942      	cbnz	r2, 8004b7c <prvCopyDataToQueue+0x1e>
 8004b6a:	6805      	ldr	r5, [r0, #0]
 8004b6c:	b99d      	cbnz	r5, 8004b96 <prvCopyDataToQueue+0x38>
 8004b6e:	6880      	ldr	r0, [r0, #8]
 8004b70:	f000 ff46 	bl	8005a00 <xTaskPriorityDisinherit>
 8004b74:	60a5      	str	r5, [r4, #8]
 8004b76:	3601      	adds	r6, #1
 8004b78:	63a6      	str	r6, [r4, #56]	; 0x38
 8004b7a:	bd70      	pop	{r4, r5, r6, pc}
 8004b7c:	b96d      	cbnz	r5, 8004b9a <prvCopyDataToQueue+0x3c>
 8004b7e:	6840      	ldr	r0, [r0, #4]
 8004b80:	f001 fc40 	bl	8006404 <memcpy>
 8004b84:	6863      	ldr	r3, [r4, #4]
 8004b86:	6c22      	ldr	r2, [r4, #64]	; 0x40
 8004b88:	4413      	add	r3, r2
 8004b8a:	68a2      	ldr	r2, [r4, #8]
 8004b8c:	6063      	str	r3, [r4, #4]
 8004b8e:	4293      	cmp	r3, r2
 8004b90:	d301      	bcc.n	8004b96 <prvCopyDataToQueue+0x38>
 8004b92:	6823      	ldr	r3, [r4, #0]
 8004b94:	6063      	str	r3, [r4, #4]
 8004b96:	2000      	movs	r0, #0
 8004b98:	e7ed      	b.n	8004b76 <prvCopyDataToQueue+0x18>
 8004b9a:	68c0      	ldr	r0, [r0, #12]
 8004b9c:	f001 fc32 	bl	8006404 <memcpy>
 8004ba0:	6c23      	ldr	r3, [r4, #64]	; 0x40
 8004ba2:	68e2      	ldr	r2, [r4, #12]
 8004ba4:	6821      	ldr	r1, [r4, #0]
 8004ba6:	425b      	negs	r3, r3
 8004ba8:	441a      	add	r2, r3
 8004baa:	428a      	cmp	r2, r1
 8004bac:	60e2      	str	r2, [r4, #12]
 8004bae:	bf3e      	ittt	cc
 8004bb0:	68a2      	ldrcc	r2, [r4, #8]
 8004bb2:	189b      	addcc	r3, r3, r2
 8004bb4:	60e3      	strcc	r3, [r4, #12]
 8004bb6:	2d02      	cmp	r5, #2
 8004bb8:	d1ed      	bne.n	8004b96 <prvCopyDataToQueue+0x38>
 8004bba:	b10e      	cbz	r6, 8004bc0 <prvCopyDataToQueue+0x62>
 8004bbc:	3e01      	subs	r6, #1
 8004bbe:	e7ea      	b.n	8004b96 <prvCopyDataToQueue+0x38>
 8004bc0:	4630      	mov	r0, r6
 8004bc2:	e7d8      	b.n	8004b76 <prvCopyDataToQueue+0x18>

08004bc4 <prvCopyDataFromQueue>:
 8004bc4:	4603      	mov	r3, r0
 8004bc6:	b410      	push	{r4}
 8004bc8:	6c1a      	ldr	r2, [r3, #64]	; 0x40
 8004bca:	4608      	mov	r0, r1
 8004bcc:	b162      	cbz	r2, 8004be8 <prvCopyDataFromQueue+0x24>
 8004bce:	68d9      	ldr	r1, [r3, #12]
 8004bd0:	689c      	ldr	r4, [r3, #8]
 8004bd2:	4411      	add	r1, r2
 8004bd4:	42a1      	cmp	r1, r4
 8004bd6:	60d9      	str	r1, [r3, #12]
 8004bd8:	bf24      	itt	cs
 8004bda:	6819      	ldrcs	r1, [r3, #0]
 8004bdc:	60d9      	strcs	r1, [r3, #12]
 8004bde:	68d9      	ldr	r1, [r3, #12]
 8004be0:	f85d 4b04 	ldr.w	r4, [sp], #4
 8004be4:	f001 bc0e 	b.w	8006404 <memcpy>
 8004be8:	f85d 4b04 	ldr.w	r4, [sp], #4
 8004bec:	4770      	bx	lr

08004bee <prvUnlockQueue>:
 8004bee:	b570      	push	{r4, r5, r6, lr}
 8004bf0:	4604      	mov	r4, r0
 8004bf2:	f001 f9af 	bl	8005f54 <vPortEnterCritical>
 8004bf6:	f894 5045 	ldrb.w	r5, [r4, #69]	; 0x45
 8004bfa:	f104 0624 	add.w	r6, r4, #36	; 0x24
 8004bfe:	b26d      	sxtb	r5, r5
 8004c00:	2d00      	cmp	r5, #0
 8004c02:	dc14      	bgt.n	8004c2e <prvUnlockQueue+0x40>
 8004c04:	23ff      	movs	r3, #255	; 0xff
 8004c06:	f884 3045 	strb.w	r3, [r4, #69]	; 0x45
 8004c0a:	f001 f9c5 	bl	8005f98 <vPortExitCritical>
 8004c0e:	f001 f9a1 	bl	8005f54 <vPortEnterCritical>
 8004c12:	f894 5044 	ldrb.w	r5, [r4, #68]	; 0x44
 8004c16:	f104 0610 	add.w	r6, r4, #16
 8004c1a:	b26d      	sxtb	r5, r5
 8004c1c:	2d00      	cmp	r5, #0
 8004c1e:	dc12      	bgt.n	8004c46 <prvUnlockQueue+0x58>
 8004c20:	23ff      	movs	r3, #255	; 0xff
 8004c22:	f884 3044 	strb.w	r3, [r4, #68]	; 0x44
 8004c26:	e8bd 4070 	ldmia.w	sp!, {r4, r5, r6, lr}
 8004c2a:	f001 b9b5 	b.w	8005f98 <vPortExitCritical>
 8004c2e:	6a63      	ldr	r3, [r4, #36]	; 0x24
 8004c30:	2b00      	cmp	r3, #0
 8004c32:	d0e7      	beq.n	8004c04 <prvUnlockQueue+0x16>
 8004c34:	4630      	mov	r0, r6
 8004c36:	f000 fe45 	bl	80058c4 <xTaskRemoveFromEventList>
 8004c3a:	b108      	cbz	r0, 8004c40 <prvUnlockQueue+0x52>
 8004c3c:	f000 feca 	bl	80059d4 <vTaskMissedYield>
 8004c40:	3d01      	subs	r5, #1
 8004c42:	b26d      	sxtb	r5, r5
 8004c44:	e7dc      	b.n	8004c00 <prvUnlockQueue+0x12>
 8004c46:	6923      	ldr	r3, [r4, #16]
 8004c48:	2b00      	cmp	r3, #0
 8004c4a:	d0e9      	beq.n	8004c20 <prvUnlockQueue+0x32>
 8004c4c:	4630      	mov	r0, r6
 8004c4e:	f000 fe39 	bl	80058c4 <xTaskRemoveFromEventList>
 8004c52:	b108      	cbz	r0, 8004c58 <prvUnlockQueue+0x6a>
 8004c54:	f000 febe 	bl	80059d4 <vTaskMissedYield>
 8004c58:	3d01      	subs	r5, #1
 8004c5a:	b26d      	sxtb	r5, r5
 8004c5c:	e7de      	b.n	8004c1c <prvUnlockQueue+0x2e>
	...

08004c60 <xQueueGenericReset>:
 8004c60:	b538      	push	{r3, r4, r5, lr}
 8004c62:	460d      	mov	r5, r1
 8004c64:	4604      	mov	r4, r0
 8004c66:	b940      	cbnz	r0, 8004c7a <xQueueGenericReset+0x1a>
 8004c68:	f04f 0350 	mov.w	r3, #80	; 0x50
 8004c6c:	f383 8811 	msr	BASEPRI, r3
 8004c70:	f3bf 8f6f 	isb	sy
 8004c74:	f3bf 8f4f 	dsb	sy
 8004c78:	e7fe      	b.n	8004c78 <xQueueGenericReset+0x18>
 8004c7a:	f001 f96b 	bl	8005f54 <vPortEnterCritical>
 8004c7e:	e9d4 300f 	ldrd	r3, r0, [r4, #60]	; 0x3c
 8004c82:	6822      	ldr	r2, [r4, #0]
 8004c84:	6062      	str	r2, [r4, #4]
 8004c86:	4343      	muls	r3, r0
 8004c88:	18d1      	adds	r1, r2, r3
 8004c8a:	1a1b      	subs	r3, r3, r0
 8004c8c:	4413      	add	r3, r2
 8004c8e:	60a1      	str	r1, [r4, #8]
 8004c90:	60e3      	str	r3, [r4, #12]
 8004c92:	2100      	movs	r1, #0
 8004c94:	23ff      	movs	r3, #255	; 0xff
 8004c96:	63a1      	str	r1, [r4, #56]	; 0x38
 8004c98:	f884 3044 	strb.w	r3, [r4, #68]	; 0x44
 8004c9c:	f884 3045 	strb.w	r3, [r4, #69]	; 0x45
 8004ca0:	b995      	cbnz	r5, 8004cc8 <xQueueGenericReset+0x68>
 8004ca2:	6923      	ldr	r3, [r4, #16]
 8004ca4:	b163      	cbz	r3, 8004cc0 <xQueueGenericReset+0x60>
 8004ca6:	f104 0010 	add.w	r0, r4, #16
 8004caa:	f000 fe0b 	bl	80058c4 <xTaskRemoveFromEventList>
 8004cae:	b138      	cbz	r0, 8004cc0 <xQueueGenericReset+0x60>
 8004cb0:	4b0a      	ldr	r3, [pc, #40]	; (8004cdc <xQueueGenericReset+0x7c>)
 8004cb2:	f04f 5280 	mov.w	r2, #268435456	; 0x10000000
 8004cb6:	601a      	str	r2, [r3, #0]
 8004cb8:	f3bf 8f4f 	dsb	sy
 8004cbc:	f3bf 8f6f 	isb	sy
 8004cc0:	f001 f96a 	bl	8005f98 <vPortExitCritical>
 8004cc4:	2001      	movs	r0, #1
 8004cc6:	bd38      	pop	{r3, r4, r5, pc}
 8004cc8:	f104 0010 	add.w	r0, r4, #16
 8004ccc:	f7ff fefa 	bl	8004ac4 <vListInitialise>
 8004cd0:	f104 0024 	add.w	r0, r4, #36	; 0x24
 8004cd4:	f7ff fef6 	bl	8004ac4 <vListInitialise>
 8004cd8:	e7f2      	b.n	8004cc0 <xQueueGenericReset+0x60>
 8004cda:	bf00      	nop
 8004cdc:	e000ed04 	.word	0xe000ed04

08004ce0 <xQueueGenericCreateStatic>:
 8004ce0:	b513      	push	{r0, r1, r4, lr}
 8004ce2:	461c      	mov	r4, r3
 8004ce4:	b940      	cbnz	r0, 8004cf8 <xQueueGenericCreateStatic+0x18>
 8004ce6:	f04f 0350 	mov.w	r3, #80	; 0x50
 8004cea:	f383 8811 	msr	BASEPRI, r3
 8004cee:	f3bf 8f6f 	isb	sy
 8004cf2:	f3bf 8f4f 	dsb	sy
 8004cf6:	e7fe      	b.n	8004cf6 <xQueueGenericCreateStatic+0x16>
 8004cf8:	b943      	cbnz	r3, 8004d0c <xQueueGenericCreateStatic+0x2c>
 8004cfa:	f04f 0350 	mov.w	r3, #80	; 0x50
 8004cfe:	f383 8811 	msr	BASEPRI, r3
 8004d02:	f3bf 8f6f 	isb	sy
 8004d06:	f3bf 8f4f 	dsb	sy
 8004d0a:	e7fe      	b.n	8004d0a <xQueueGenericCreateStatic+0x2a>
 8004d0c:	b14a      	cbz	r2, 8004d22 <xQueueGenericCreateStatic+0x42>
 8004d0e:	b991      	cbnz	r1, 8004d36 <xQueueGenericCreateStatic+0x56>
 8004d10:	f04f 0350 	mov.w	r3, #80	; 0x50
 8004d14:	f383 8811 	msr	BASEPRI, r3
 8004d18:	f3bf 8f6f 	isb	sy
 8004d1c:	f3bf 8f4f 	dsb	sy
 8004d20:	e7fe      	b.n	8004d20 <xQueueGenericCreateStatic+0x40>
 8004d22:	b141      	cbz	r1, 8004d36 <xQueueGenericCreateStatic+0x56>
 8004d24:	f04f 0350 	mov.w	r3, #80	; 0x50
 8004d28:	f383 8811 	msr	BASEPRI, r3
 8004d2c:	f3bf 8f6f 	isb	sy
 8004d30:	f3bf 8f4f 	dsb	sy
 8004d34:	e7fe      	b.n	8004d34 <xQueueGenericCreateStatic+0x54>
 8004d36:	2350      	movs	r3, #80	; 0x50
 8004d38:	9301      	str	r3, [sp, #4]
 8004d3a:	9b01      	ldr	r3, [sp, #4]
 8004d3c:	2b50      	cmp	r3, #80	; 0x50
 8004d3e:	d008      	beq.n	8004d52 <xQueueGenericCreateStatic+0x72>
 8004d40:	f04f 0350 	mov.w	r3, #80	; 0x50
 8004d44:	f383 8811 	msr	BASEPRI, r3
 8004d48:	f3bf 8f6f 	isb	sy
 8004d4c:	f3bf 8f4f 	dsb	sy
 8004d50:	e7fe      	b.n	8004d50 <xQueueGenericCreateStatic+0x70>
 8004d52:	2900      	cmp	r1, #0
 8004d54:	bf08      	it	eq
 8004d56:	4622      	moveq	r2, r4
 8004d58:	9b01      	ldr	r3, [sp, #4]
 8004d5a:	6022      	str	r2, [r4, #0]
 8004d5c:	2301      	movs	r3, #1
 8004d5e:	e9c4 010f 	strd	r0, r1, [r4, #60]	; 0x3c
 8004d62:	f884 3046 	strb.w	r3, [r4, #70]	; 0x46
 8004d66:	4619      	mov	r1, r3
 8004d68:	4620      	mov	r0, r4
 8004d6a:	f7ff ff79 	bl	8004c60 <xQueueGenericReset>
 8004d6e:	f89d 3010 	ldrb.w	r3, [sp, #16]
 8004d72:	f884 304c 	strb.w	r3, [r4, #76]	; 0x4c
 8004d76:	4620      	mov	r0, r4
 8004d78:	b002      	add	sp, #8
 8004d7a:	bd10      	pop	{r4, pc}

08004d7c <xQueueGenericSend>:
 8004d7c:	e92d 47ff 	stmdb	sp!, {r0, r1, r2, r3, r4, r5, r6, r7, r8, r9, sl, lr}
 8004d80:	4688      	mov	r8, r1
 8004d82:	9201      	str	r2, [sp, #4]
 8004d84:	461f      	mov	r7, r3
 8004d86:	4604      	mov	r4, r0
 8004d88:	b940      	cbnz	r0, 8004d9c <xQueueGenericSend+0x20>
 8004d8a:	f04f 0350 	mov.w	r3, #80	; 0x50
 8004d8e:	f383 8811 	msr	BASEPRI, r3
 8004d92:	f3bf 8f6f 	isb	sy
 8004d96:	f3bf 8f4f 	dsb	sy
 8004d9a:	e7fe      	b.n	8004d9a <xQueueGenericSend+0x1e>
 8004d9c:	b951      	cbnz	r1, 8004db4 <xQueueGenericSend+0x38>
 8004d9e:	6c03      	ldr	r3, [r0, #64]	; 0x40
 8004da0:	b143      	cbz	r3, 8004db4 <xQueueGenericSend+0x38>
 8004da2:	f04f 0350 	mov.w	r3, #80	; 0x50
 8004da6:	f383 8811 	msr	BASEPRI, r3
 8004daa:	f3bf 8f6f 	isb	sy
 8004dae:	f3bf 8f4f 	dsb	sy
 8004db2:	e7fe      	b.n	8004db2 <xQueueGenericSend+0x36>
 8004db4:	2f02      	cmp	r7, #2
 8004db6:	d10b      	bne.n	8004dd0 <xQueueGenericSend+0x54>
 8004db8:	6be3      	ldr	r3, [r4, #60]	; 0x3c
 8004dba:	2b01      	cmp	r3, #1
 8004dbc:	d008      	beq.n	8004dd0 <xQueueGenericSend+0x54>
 8004dbe:	f04f 0350 	mov.w	r3, #80	; 0x50
 8004dc2:	f383 8811 	msr	BASEPRI, r3
 8004dc6:	f3bf 8f6f 	isb	sy
 8004dca:	f3bf 8f4f 	dsb	sy
 8004dce:	e7fe      	b.n	8004dce <xQueueGenericSend+0x52>
 8004dd0:	f000 fe06 	bl	80059e0 <xTaskGetSchedulerState>
 8004dd4:	b950      	cbnz	r0, 8004dec <xQueueGenericSend+0x70>
 8004dd6:	9e01      	ldr	r6, [sp, #4]
 8004dd8:	b14e      	cbz	r6, 8004dee <xQueueGenericSend+0x72>
 8004dda:	f04f 0350 	mov.w	r3, #80	; 0x50
 8004dde:	f383 8811 	msr	BASEPRI, r3
 8004de2:	f3bf 8f6f 	isb	sy
 8004de6:	f3bf 8f4f 	dsb	sy
 8004dea:	e7fe      	b.n	8004dea <xQueueGenericSend+0x6e>
 8004dec:	2600      	movs	r6, #0
 8004dee:	f04f 0900 	mov.w	r9, #0
 8004df2:	f8df a0e8 	ldr.w	sl, [pc, #232]	; 8004edc <xQueueGenericSend+0x160>
 8004df6:	e037      	b.n	8004e68 <xQueueGenericSend+0xec>
 8004df8:	9d01      	ldr	r5, [sp, #4]
 8004dfa:	b91d      	cbnz	r5, 8004e04 <xQueueGenericSend+0x88>
 8004dfc:	f001 f8cc 	bl	8005f98 <vPortExitCritical>
 8004e00:	2000      	movs	r0, #0
 8004e02:	e050      	b.n	8004ea6 <xQueueGenericSend+0x12a>
 8004e04:	b916      	cbnz	r6, 8004e0c <xQueueGenericSend+0x90>
 8004e06:	a802      	add	r0, sp, #8
 8004e08:	f000 fd9c 	bl	8005944 <vTaskInternalSetTimeOutState>
 8004e0c:	f001 f8c4 	bl	8005f98 <vPortExitCritical>
 8004e10:	f000 fbae 	bl	8005570 <vTaskSuspendAll>
 8004e14:	f001 f89e 	bl	8005f54 <vPortEnterCritical>
 8004e18:	f894 3044 	ldrb.w	r3, [r4, #68]	; 0x44
 8004e1c:	2bff      	cmp	r3, #255	; 0xff
 8004e1e:	bf08      	it	eq
 8004e20:	f884 9044 	strbeq.w	r9, [r4, #68]	; 0x44
 8004e24:	f894 3045 	ldrb.w	r3, [r4, #69]	; 0x45
 8004e28:	2bff      	cmp	r3, #255	; 0xff
 8004e2a:	bf08      	it	eq
 8004e2c:	f884 9045 	strbeq.w	r9, [r4, #69]	; 0x45
 8004e30:	f001 f8b2 	bl	8005f98 <vPortExitCritical>
 8004e34:	a901      	add	r1, sp, #4
 8004e36:	a802      	add	r0, sp, #8
 8004e38:	f000 fd90 	bl	800595c <xTaskCheckForTimeOut>
 8004e3c:	2800      	cmp	r0, #0
 8004e3e:	d146      	bne.n	8004ece <xQueueGenericSend+0x152>
 8004e40:	f001 f888 	bl	8005f54 <vPortEnterCritical>
 8004e44:	6ba2      	ldr	r2, [r4, #56]	; 0x38
 8004e46:	6be3      	ldr	r3, [r4, #60]	; 0x3c
 8004e48:	429a      	cmp	r2, r3
 8004e4a:	d12f      	bne.n	8004eac <xQueueGenericSend+0x130>
 8004e4c:	f001 f8a4 	bl	8005f98 <vPortExitCritical>
 8004e50:	9901      	ldr	r1, [sp, #4]
 8004e52:	f104 0010 	add.w	r0, r4, #16
 8004e56:	f000 fcfd 	bl	8005854 <vTaskPlaceOnEventList>
 8004e5a:	4620      	mov	r0, r4
 8004e5c:	f7ff fec7 	bl	8004bee <prvUnlockQueue>
 8004e60:	f000 fc24 	bl	80056ac <xTaskResumeAll>
 8004e64:	b350      	cbz	r0, 8004ebc <xQueueGenericSend+0x140>
 8004e66:	2601      	movs	r6, #1
 8004e68:	f001 f874 	bl	8005f54 <vPortEnterCritical>
 8004e6c:	6ba2      	ldr	r2, [r4, #56]	; 0x38
 8004e6e:	6be3      	ldr	r3, [r4, #60]	; 0x3c
 8004e70:	429a      	cmp	r2, r3
 8004e72:	d301      	bcc.n	8004e78 <xQueueGenericSend+0xfc>
 8004e74:	2f02      	cmp	r7, #2
 8004e76:	d1bf      	bne.n	8004df8 <xQueueGenericSend+0x7c>
 8004e78:	463a      	mov	r2, r7
 8004e7a:	4641      	mov	r1, r8
 8004e7c:	4620      	mov	r0, r4
 8004e7e:	f7ff fe6e 	bl	8004b5e <prvCopyDataToQueue>
 8004e82:	6a63      	ldr	r3, [r4, #36]	; 0x24
 8004e84:	b11b      	cbz	r3, 8004e8e <xQueueGenericSend+0x112>
 8004e86:	f104 0024 	add.w	r0, r4, #36	; 0x24
 8004e8a:	f000 fd1b 	bl	80058c4 <xTaskRemoveFromEventList>
 8004e8e:	b138      	cbz	r0, 8004ea0 <xQueueGenericSend+0x124>
 8004e90:	4b12      	ldr	r3, [pc, #72]	; (8004edc <xQueueGenericSend+0x160>)
 8004e92:	f04f 5280 	mov.w	r2, #268435456	; 0x10000000
 8004e96:	601a      	str	r2, [r3, #0]
 8004e98:	f3bf 8f4f 	dsb	sy
 8004e9c:	f3bf 8f6f 	isb	sy
 8004ea0:	f001 f87a 	bl	8005f98 <vPortExitCritical>
 8004ea4:	2001      	movs	r0, #1
 8004ea6:	b004      	add	sp, #16
 8004ea8:	e8bd 87f0 	ldmia.w	sp!, {r4, r5, r6, r7, r8, r9, sl, pc}
 8004eac:	f001 f874 	bl	8005f98 <vPortExitCritical>
 8004eb0:	4620      	mov	r0, r4
 8004eb2:	f7ff fe9c 	bl	8004bee <prvUnlockQueue>
 8004eb6:	f000 fbf9 	bl	80056ac <xTaskResumeAll>
 8004eba:	e7d4      	b.n	8004e66 <xQueueGenericSend+0xea>
 8004ebc:	f04f 5380 	mov.w	r3, #268435456	; 0x10000000
 8004ec0:	f8ca 3000 	str.w	r3, [sl]
 8004ec4:	f3bf 8f4f 	dsb	sy
 8004ec8:	f3bf 8f6f 	isb	sy
 8004ecc:	e7cb      	b.n	8004e66 <xQueueGenericSend+0xea>
 8004ece:	4620      	mov	r0, r4
 8004ed0:	f7ff fe8d 	bl	8004bee <prvUnlockQueue>
 8004ed4:	f000 fbea 	bl	80056ac <xTaskResumeAll>
 8004ed8:	e792      	b.n	8004e00 <xQueueGenericSend+0x84>
 8004eda:	bf00      	nop
 8004edc:	e000ed04 	.word	0xe000ed04

08004ee0 <xQueueGenericSendFromISR>:
 8004ee0:	e92d 43f8 	stmdb	sp!, {r3, r4, r5, r6, r7, r8, r9, lr}
 8004ee4:	4689      	mov	r9, r1
 8004ee6:	4690      	mov	r8, r2
 8004ee8:	461f      	mov	r7, r3
 8004eea:	4604      	mov	r4, r0
 8004eec:	b940      	cbnz	r0, 8004f00 <xQueueGenericSendFromISR+0x20>
 8004eee:	f04f 0350 	mov.w	r3, #80	; 0x50
 8004ef2:	f383 8811 	msr	BASEPRI, r3
 8004ef6:	f3bf 8f6f 	isb	sy
 8004efa:	f3bf 8f4f 	dsb	sy
 8004efe:	e7fe      	b.n	8004efe <xQueueGenericSendFromISR+0x1e>
 8004f00:	b951      	cbnz	r1, 8004f18 <xQueueGenericSendFromISR+0x38>
 8004f02:	6c03      	ldr	r3, [r0, #64]	; 0x40
 8004f04:	b143      	cbz	r3, 8004f18 <xQueueGenericSendFromISR+0x38>
 8004f06:	f04f 0350 	mov.w	r3, #80	; 0x50
 8004f0a:	f383 8811 	msr	BASEPRI, r3
 8004f0e:	f3bf 8f6f 	isb	sy
 8004f12:	f3bf 8f4f 	dsb	sy
 8004f16:	e7fe      	b.n	8004f16 <xQueueGenericSendFromISR+0x36>
 8004f18:	2f02      	cmp	r7, #2
 8004f1a:	d10b      	bne.n	8004f34 <xQueueGenericSendFromISR+0x54>
 8004f1c:	6be3      	ldr	r3, [r4, #60]	; 0x3c
 8004f1e:	2b01      	cmp	r3, #1
 8004f20:	d008      	beq.n	8004f34 <xQueueGenericSendFromISR+0x54>
 8004f22:	f04f 0350 	mov.w	r3, #80	; 0x50
 8004f26:	f383 8811 	msr	BASEPRI, r3
 8004f2a:	f3bf 8f6f 	isb	sy
 8004f2e:	f3bf 8f4f 	dsb	sy
 8004f32:	e7fe      	b.n	8004f32 <xQueueGenericSendFromISR+0x52>
 8004f34:	f001 f92c 	bl	8006190 <vPortValidateInterruptPriority>
 8004f38:	f3ef 8611 	mrs	r6, BASEPRI
 8004f3c:	f04f 0350 	mov.w	r3, #80	; 0x50
 8004f40:	f383 8811 	msr	BASEPRI, r3
 8004f44:	f3bf 8f6f 	isb	sy
 8004f48:	f3bf 8f4f 	dsb	sy
 8004f4c:	6ba2      	ldr	r2, [r4, #56]	; 0x38
 8004f4e:	6be3      	ldr	r3, [r4, #60]	; 0x3c
 8004f50:	429a      	cmp	r2, r3
 8004f52:	d301      	bcc.n	8004f58 <xQueueGenericSendFromISR+0x78>
 8004f54:	2f02      	cmp	r7, #2
 8004f56:	d122      	bne.n	8004f9e <xQueueGenericSendFromISR+0xbe>
 8004f58:	f894 5045 	ldrb.w	r5, [r4, #69]	; 0x45
 8004f5c:	463a      	mov	r2, r7
 8004f5e:	b26d      	sxtb	r5, r5
 8004f60:	4649      	mov	r1, r9
 8004f62:	4620      	mov	r0, r4
 8004f64:	f7ff fdfb 	bl	8004b5e <prvCopyDataToQueue>
 8004f68:	1c6b      	adds	r3, r5, #1
 8004f6a:	d113      	bne.n	8004f94 <xQueueGenericSendFromISR+0xb4>
 8004f6c:	6a63      	ldr	r3, [r4, #36]	; 0x24
 8004f6e:	b90b      	cbnz	r3, 8004f74 <xQueueGenericSendFromISR+0x94>
 8004f70:	2001      	movs	r0, #1
 8004f72:	e00b      	b.n	8004f8c <xQueueGenericSendFromISR+0xac>
 8004f74:	f104 0024 	add.w	r0, r4, #36	; 0x24
 8004f78:	f000 fca4 	bl	80058c4 <xTaskRemoveFromEventList>
 8004f7c:	2800      	cmp	r0, #0
 8004f7e:	d0f7      	beq.n	8004f70 <xQueueGenericSendFromISR+0x90>
 8004f80:	f1b8 0f00 	cmp.w	r8, #0
 8004f84:	d0f4      	beq.n	8004f70 <xQueueGenericSendFromISR+0x90>
 8004f86:	2001      	movs	r0, #1
 8004f88:	f8c8 0000 	str.w	r0, [r8]
 8004f8c:	f386 8811 	msr	BASEPRI, r6
 8004f90:	e8bd 83f8 	ldmia.w	sp!, {r3, r4, r5, r6, r7, r8, r9, pc}
 8004f94:	3501      	adds	r5, #1
 8004f96:	b26d      	sxtb	r5, r5
 8004f98:	f884 5045 	strb.w	r5, [r4, #69]	; 0x45
 8004f9c:	e7e8      	b.n	8004f70 <xQueueGenericSendFromISR+0x90>
 8004f9e:	2000      	movs	r0, #0
 8004fa0:	e7f4      	b.n	8004f8c <xQueueGenericSendFromISR+0xac>
	...

08004fa4 <xQueueReceive>:
 8004fa4:	e92d 43f0 	stmdb	sp!, {r4, r5, r6, r7, r8, r9, lr}
 8004fa8:	b085      	sub	sp, #20
 8004faa:	460f      	mov	r7, r1
 8004fac:	9201      	str	r2, [sp, #4]
 8004fae:	4604      	mov	r4, r0
 8004fb0:	b940      	cbnz	r0, 8004fc4 <xQueueReceive+0x20>
 8004fb2:	f04f 0350 	mov.w	r3, #80	; 0x50
 8004fb6:	f383 8811 	msr	BASEPRI, r3
 8004fba:	f3bf 8f6f 	isb	sy
 8004fbe:	f3bf 8f4f 	dsb	sy
 8004fc2:	e7fe      	b.n	8004fc2 <xQueueReceive+0x1e>
 8004fc4:	b951      	cbnz	r1, 8004fdc <xQueueReceive+0x38>
 8004fc6:	6c03      	ldr	r3, [r0, #64]	; 0x40
 8004fc8:	b143      	cbz	r3, 8004fdc <xQueueReceive+0x38>
 8004fca:	f04f 0350 	mov.w	r3, #80	; 0x50
 8004fce:	f383 8811 	msr	BASEPRI, r3
 8004fd2:	f3bf 8f6f 	isb	sy
 8004fd6:	f3bf 8f4f 	dsb	sy
 8004fda:	e7fe      	b.n	8004fda <xQueueReceive+0x36>
 8004fdc:	f000 fd00 	bl	80059e0 <xTaskGetSchedulerState>
 8004fe0:	b950      	cbnz	r0, 8004ff8 <xQueueReceive+0x54>
 8004fe2:	9e01      	ldr	r6, [sp, #4]
 8004fe4:	b14e      	cbz	r6, 8004ffa <xQueueReceive+0x56>
 8004fe6:	f04f 0350 	mov.w	r3, #80	; 0x50
 8004fea:	f383 8811 	msr	BASEPRI, r3
 8004fee:	f3bf 8f6f 	isb	sy
 8004ff2:	f3bf 8f4f 	dsb	sy
 8004ff6:	e7fe      	b.n	8004ff6 <xQueueReceive+0x52>
 8004ff8:	2600      	movs	r6, #0
 8004ffa:	f04f 0800 	mov.w	r8, #0
 8004ffe:	f8df 90e0 	ldr.w	r9, [pc, #224]	; 80050e0 <xQueueReceive+0x13c>
 8005002:	e03b      	b.n	800507c <xQueueReceive+0xd8>
 8005004:	9d01      	ldr	r5, [sp, #4]
 8005006:	b91d      	cbnz	r5, 8005010 <xQueueReceive+0x6c>
 8005008:	f000 ffc6 	bl	8005f98 <vPortExitCritical>
 800500c:	2000      	movs	r0, #0
 800500e:	e052      	b.n	80050b6 <xQueueReceive+0x112>
 8005010:	b916      	cbnz	r6, 8005018 <xQueueReceive+0x74>
 8005012:	a802      	add	r0, sp, #8
 8005014:	f000 fc96 	bl	8005944 <vTaskInternalSetTimeOutState>
 8005018:	f000 ffbe 	bl	8005f98 <vPortExitCritical>
 800501c:	f000 faa8 	bl	8005570 <vTaskSuspendAll>
 8005020:	f000 ff98 	bl	8005f54 <vPortEnterCritical>
 8005024:	f894 3044 	ldrb.w	r3, [r4, #68]	; 0x44
 8005028:	2bff      	cmp	r3, #255	; 0xff
 800502a:	bf08      	it	eq
 800502c:	f884 8044 	strbeq.w	r8, [r4, #68]	; 0x44
 8005030:	f894 3045 	ldrb.w	r3, [r4, #69]	; 0x45
 8005034:	2bff      	cmp	r3, #255	; 0xff
 8005036:	bf08      	it	eq
 8005038:	f884 8045 	strbeq.w	r8, [r4, #69]	; 0x45
 800503c:	f000 ffac 	bl	8005f98 <vPortExitCritical>
 8005040:	a901      	add	r1, sp, #4
 8005042:	a802      	add	r0, sp, #8
 8005044:	f000 fc8a 	bl	800595c <xTaskCheckForTimeOut>
 8005048:	2800      	cmp	r0, #0
 800504a:	d13d      	bne.n	80050c8 <xQueueReceive+0x124>
 800504c:	4620      	mov	r0, r4
 800504e:	f7ff fd7b 	bl	8004b48 <prvIsQueueEmpty>
 8005052:	b398      	cbz	r0, 80050bc <xQueueReceive+0x118>
 8005054:	9901      	ldr	r1, [sp, #4]
 8005056:	f104 0024 	add.w	r0, r4, #36	; 0x24
 800505a:	f000 fbfb 	bl	8005854 <vTaskPlaceOnEventList>
 800505e:	4620      	mov	r0, r4
 8005060:	f7ff fdc5 	bl	8004bee <prvUnlockQueue>
 8005064:	f000 fb22 	bl	80056ac <xTaskResumeAll>
 8005068:	b938      	cbnz	r0, 800507a <xQueueReceive+0xd6>
 800506a:	f04f 5380 	mov.w	r3, #268435456	; 0x10000000
 800506e:	f8c9 3000 	str.w	r3, [r9]
 8005072:	f3bf 8f4f 	dsb	sy
 8005076:	f3bf 8f6f 	isb	sy
 800507a:	2601      	movs	r6, #1
 800507c:	f000 ff6a 	bl	8005f54 <vPortEnterCritical>
 8005080:	6ba5      	ldr	r5, [r4, #56]	; 0x38
 8005082:	2d00      	cmp	r5, #0
 8005084:	d0be      	beq.n	8005004 <xQueueReceive+0x60>
 8005086:	4639      	mov	r1, r7
 8005088:	4620      	mov	r0, r4
 800508a:	3d01      	subs	r5, #1
 800508c:	f7ff fd9a 	bl	8004bc4 <prvCopyDataFromQueue>
 8005090:	63a5      	str	r5, [r4, #56]	; 0x38
 8005092:	6923      	ldr	r3, [r4, #16]
 8005094:	b163      	cbz	r3, 80050b0 <xQueueReceive+0x10c>
 8005096:	f104 0010 	add.w	r0, r4, #16
 800509a:	f000 fc13 	bl	80058c4 <xTaskRemoveFromEventList>
 800509e:	b138      	cbz	r0, 80050b0 <xQueueReceive+0x10c>
 80050a0:	4b0f      	ldr	r3, [pc, #60]	; (80050e0 <xQueueReceive+0x13c>)
 80050a2:	f04f 5280 	mov.w	r2, #268435456	; 0x10000000
 80050a6:	601a      	str	r2, [r3, #0]
 80050a8:	f3bf 8f4f 	dsb	sy
 80050ac:	f3bf 8f6f 	isb	sy
 80050b0:	f000 ff72 	bl	8005f98 <vPortExitCritical>
 80050b4:	2001      	movs	r0, #1
 80050b6:	b005      	add	sp, #20
 80050b8:	e8bd 83f0 	ldmia.w	sp!, {r4, r5, r6, r7, r8, r9, pc}
 80050bc:	4620      	mov	r0, r4
 80050be:	f7ff fd96 	bl	8004bee <prvUnlockQueue>
 80050c2:	f000 faf3 	bl	80056ac <xTaskResumeAll>
 80050c6:	e7d8      	b.n	800507a <xQueueReceive+0xd6>
 80050c8:	4620      	mov	r0, r4
 80050ca:	f7ff fd90 	bl	8004bee <prvUnlockQueue>
 80050ce:	f000 faed 	bl	80056ac <xTaskResumeAll>
 80050d2:	4620      	mov	r0, r4
 80050d4:	f7ff fd38 	bl	8004b48 <prvIsQueueEmpty>
 80050d8:	2800      	cmp	r0, #0
 80050da:	d0ce      	beq.n	800507a <xQueueReceive+0xd6>
 80050dc:	e796      	b.n	800500c <xQueueReceive+0x68>
 80050de:	bf00      	nop
 80050e0:	e000ed04 	.word	0xe000ed04

080050e4 <vQueueAddToRegistry>:
 80050e4:	b530      	push	{r4, r5, lr}
 80050e6:	4a07      	ldr	r2, [pc, #28]	; (8005104 <vQueueAddToRegistry+0x20>)
 80050e8:	2300      	movs	r3, #0
 80050ea:	f852 5033 	ldr.w	r5, [r2, r3, lsl #3]
 80050ee:	eb02 04c3 	add.w	r4, r2, r3, lsl #3
 80050f2:	b91d      	cbnz	r5, 80050fc <vQueueAddToRegistry+0x18>
 80050f4:	f842 1033 	str.w	r1, [r2, r3, lsl #3]
 80050f8:	6060      	str	r0, [r4, #4]
 80050fa:	bd30      	pop	{r4, r5, pc}
 80050fc:	3301      	adds	r3, #1
 80050fe:	2b08      	cmp	r3, #8
 8005100:	d1f3      	bne.n	80050ea <vQueueAddToRegistry+0x6>
 8005102:	e7fa      	b.n	80050fa <vQueueAddToRegistry+0x16>
 8005104:	20001ce0 	.word	0x20001ce0

08005108 <vQueueWaitForMessageRestricted>:
 8005108:	b570      	push	{r4, r5, r6, lr}
 800510a:	4604      	mov	r4, r0
 800510c:	460d      	mov	r5, r1
 800510e:	4616      	mov	r6, r2
 8005110:	f000 ff20 	bl	8005f54 <vPortEnterCritical>
 8005114:	f894 3044 	ldrb.w	r3, [r4, #68]	; 0x44
 8005118:	2bff      	cmp	r3, #255	; 0xff
 800511a:	bf04      	itt	eq
 800511c:	2300      	moveq	r3, #0
 800511e:	f884 3044 	strbeq.w	r3, [r4, #68]	; 0x44
 8005122:	f894 3045 	ldrb.w	r3, [r4, #69]	; 0x45
 8005126:	2bff      	cmp	r3, #255	; 0xff
 8005128:	bf04      	itt	eq
 800512a:	2300      	moveq	r3, #0
 800512c:	f884 3045 	strbeq.w	r3, [r4, #69]	; 0x45
 8005130:	f000 ff32 	bl	8005f98 <vPortExitCritical>
 8005134:	6ba3      	ldr	r3, [r4, #56]	; 0x38
 8005136:	b92b      	cbnz	r3, 8005144 <vQueueWaitForMessageRestricted+0x3c>
 8005138:	4632      	mov	r2, r6
 800513a:	4629      	mov	r1, r5
 800513c:	f104 0024 	add.w	r0, r4, #36	; 0x24
 8005140:	f000 fba2 	bl	8005888 <vTaskPlaceOnEventListRestricted>
 8005144:	4620      	mov	r0, r4
 8005146:	e8bd 4070 	ldmia.w	sp!, {r4, r5, r6, lr}
 800514a:	f7ff bd50 	b.w	8004bee <prvUnlockQueue>
	...

08005150 <prvAddNewTaskToReadyList>:
 8005150:	e92d 41f0 	stmdb	sp!, {r4, r5, r6, r7, r8, lr}
 8005154:	4604      	mov	r4, r0
 8005156:	f000 fefd 	bl	8005f54 <vPortEnterCritical>
 800515a:	4b2f      	ldr	r3, [pc, #188]	; (8005218 <prvAddNewTaskToReadyList+0xc8>)
 800515c:	4d2f      	ldr	r5, [pc, #188]	; (800521c <prvAddNewTaskToReadyList+0xcc>)
 800515e:	681a      	ldr	r2, [r3, #0]
 8005160:	4f2f      	ldr	r7, [pc, #188]	; (8005220 <prvAddNewTaskToReadyList+0xd0>)
 8005162:	3201      	adds	r2, #1
 8005164:	601a      	str	r2, [r3, #0]
 8005166:	682e      	ldr	r6, [r5, #0]
 8005168:	2e00      	cmp	r6, #0
 800516a:	d149      	bne.n	8005200 <prvAddNewTaskToReadyList+0xb0>
 800516c:	602c      	str	r4, [r5, #0]
 800516e:	681b      	ldr	r3, [r3, #0]
 8005170:	2b01      	cmp	r3, #1
 8005172:	d11f      	bne.n	80051b4 <prvAddNewTaskToReadyList+0x64>
 8005174:	f04f 0814 	mov.w	r8, #20
 8005178:	fb08 7006 	mla	r0, r8, r6, r7
 800517c:	3601      	adds	r6, #1
 800517e:	f7ff fca1 	bl	8004ac4 <vListInitialise>
 8005182:	2e38      	cmp	r6, #56	; 0x38
 8005184:	d1f8      	bne.n	8005178 <prvAddNewTaskToReadyList+0x28>
 8005186:	f8df 80c4 	ldr.w	r8, [pc, #196]	; 800524c <prvAddNewTaskToReadyList+0xfc>
 800518a:	4e26      	ldr	r6, [pc, #152]	; (8005224 <prvAddNewTaskToReadyList+0xd4>)
 800518c:	4640      	mov	r0, r8
 800518e:	f7ff fc99 	bl	8004ac4 <vListInitialise>
 8005192:	4630      	mov	r0, r6
 8005194:	f7ff fc96 	bl	8004ac4 <vListInitialise>
 8005198:	4823      	ldr	r0, [pc, #140]	; (8005228 <prvAddNewTaskToReadyList+0xd8>)
 800519a:	f7ff fc93 	bl	8004ac4 <vListInitialise>
 800519e:	4823      	ldr	r0, [pc, #140]	; (800522c <prvAddNewTaskToReadyList+0xdc>)
 80051a0:	f7ff fc90 	bl	8004ac4 <vListInitialise>
 80051a4:	4822      	ldr	r0, [pc, #136]	; (8005230 <prvAddNewTaskToReadyList+0xe0>)
 80051a6:	f7ff fc8d 	bl	8004ac4 <vListInitialise>
 80051aa:	4b22      	ldr	r3, [pc, #136]	; (8005234 <prvAddNewTaskToReadyList+0xe4>)
 80051ac:	f8c3 8000 	str.w	r8, [r3]
 80051b0:	4b21      	ldr	r3, [pc, #132]	; (8005238 <prvAddNewTaskToReadyList+0xe8>)
 80051b2:	601e      	str	r6, [r3, #0]
 80051b4:	4a21      	ldr	r2, [pc, #132]	; (800523c <prvAddNewTaskToReadyList+0xec>)
 80051b6:	6813      	ldr	r3, [r2, #0]
 80051b8:	3301      	adds	r3, #1
 80051ba:	6013      	str	r3, [r2, #0]
 80051bc:	4a20      	ldr	r2, [pc, #128]	; (8005240 <prvAddNewTaskToReadyList+0xf0>)
 80051be:	6463      	str	r3, [r4, #68]	; 0x44
 80051c0:	6811      	ldr	r1, [r2, #0]
 80051c2:	6ae3      	ldr	r3, [r4, #44]	; 0x2c
 80051c4:	2014      	movs	r0, #20
 80051c6:	428b      	cmp	r3, r1
 80051c8:	fb00 7003 	mla	r0, r0, r3, r7
 80051cc:	f104 0104 	add.w	r1, r4, #4
 80051d0:	bf88      	it	hi
 80051d2:	6013      	strhi	r3, [r2, #0]
 80051d4:	f7ff fc84 	bl	8004ae0 <vListInsertEnd>
 80051d8:	f000 fede 	bl	8005f98 <vPortExitCritical>
 80051dc:	4b19      	ldr	r3, [pc, #100]	; (8005244 <prvAddNewTaskToReadyList+0xf4>)
 80051de:	681b      	ldr	r3, [r3, #0]
 80051e0:	b163      	cbz	r3, 80051fc <prvAddNewTaskToReadyList+0xac>
 80051e2:	682b      	ldr	r3, [r5, #0]
 80051e4:	6ada      	ldr	r2, [r3, #44]	; 0x2c
 80051e6:	6ae3      	ldr	r3, [r4, #44]	; 0x2c
 80051e8:	429a      	cmp	r2, r3
 80051ea:	d207      	bcs.n	80051fc <prvAddNewTaskToReadyList+0xac>
 80051ec:	4b16      	ldr	r3, [pc, #88]	; (8005248 <prvAddNewTaskToReadyList+0xf8>)
 80051ee:	f04f 5280 	mov.w	r2, #268435456	; 0x10000000
 80051f2:	601a      	str	r2, [r3, #0]
 80051f4:	f3bf 8f4f 	dsb	sy
 80051f8:	f3bf 8f6f 	isb	sy
 80051fc:	e8bd 81f0 	ldmia.w	sp!, {r4, r5, r6, r7, r8, pc}
 8005200:	4b10      	ldr	r3, [pc, #64]	; (8005244 <prvAddNewTaskToReadyList+0xf4>)
 8005202:	681b      	ldr	r3, [r3, #0]
 8005204:	2b00      	cmp	r3, #0
 8005206:	d1d5      	bne.n	80051b4 <prvAddNewTaskToReadyList+0x64>
 8005208:	682b      	ldr	r3, [r5, #0]
 800520a:	6ada      	ldr	r2, [r3, #44]	; 0x2c
 800520c:	6ae3      	ldr	r3, [r4, #44]	; 0x2c
 800520e:	429a      	cmp	r2, r3
 8005210:	bf98      	it	ls
 8005212:	602c      	strls	r4, [r5, #0]
 8005214:	e7ce      	b.n	80051b4 <prvAddNewTaskToReadyList+0x64>
 8005216:	bf00      	nop
 8005218:	20000c0c 	.word	0x20000c0c
 800521c:	200007a0 	.word	0x200007a0
 8005220:	200007ac 	.word	0x200007ac
 8005224:	20000c38 	.word	0x20000c38
 8005228:	20000c54 	.word	0x20000c54
 800522c:	20000c80 	.word	0x20000c80
 8005230:	20000c6c 	.word	0x20000c6c
 8005234:	200007a4 	.word	0x200007a4
 8005238:	200007a8 	.word	0x200007a8
 800523c:	20000c1c 	.word	0x20000c1c
 8005240:	20000c20 	.word	0x20000c20
 8005244:	20000c68 	.word	0x20000c68
 8005248:	e000ed04 	.word	0xe000ed04
 800524c:	20000c24 	.word	0x20000c24

08005250 <prvDeleteTCB>:
 8005250:	b510      	push	{r4, lr}
 8005252:	f890 3059 	ldrb.w	r3, [r0, #89]	; 0x59
 8005256:	4604      	mov	r4, r0
 8005258:	b93b      	cbnz	r3, 800526a <prvDeleteTCB+0x1a>
 800525a:	6b00      	ldr	r0, [r0, #48]	; 0x30
 800525c:	f001 f876 	bl	800634c <vPortFree>
 8005260:	4620      	mov	r0, r4
 8005262:	e8bd 4010 	ldmia.w	sp!, {r4, lr}
 8005266:	f001 b871 	b.w	800634c <vPortFree>
 800526a:	2b01      	cmp	r3, #1
 800526c:	d0f9      	beq.n	8005262 <prvDeleteTCB+0x12>
 800526e:	2b02      	cmp	r3, #2
 8005270:	d008      	beq.n	8005284 <prvDeleteTCB+0x34>
 8005272:	f04f 0350 	mov.w	r3, #80	; 0x50
 8005276:	f383 8811 	msr	BASEPRI, r3
 800527a:	f3bf 8f6f 	isb	sy
 800527e:	f3bf 8f4f 	dsb	sy
 8005282:	e7fe      	b.n	8005282 <prvDeleteTCB+0x32>
 8005284:	bd10      	pop	{r4, pc}
	...

08005288 <prvIdleTask>:
 8005288:	b580      	push	{r7, lr}
 800528a:	f8df 805c 	ldr.w	r8, [pc, #92]	; 80052e8 <prvIdleTask+0x60>
 800528e:	4f12      	ldr	r7, [pc, #72]	; (80052d8 <prvIdleTask+0x50>)
 8005290:	4c12      	ldr	r4, [pc, #72]	; (80052dc <prvIdleTask+0x54>)
 8005292:	4d13      	ldr	r5, [pc, #76]	; (80052e0 <prvIdleTask+0x58>)
 8005294:	6823      	ldr	r3, [r4, #0]
 8005296:	b963      	cbnz	r3, 80052b2 <prvIdleTask+0x2a>
 8005298:	4b12      	ldr	r3, [pc, #72]	; (80052e4 <prvIdleTask+0x5c>)
 800529a:	681b      	ldr	r3, [r3, #0]
 800529c:	2b01      	cmp	r3, #1
 800529e:	d9f8      	bls.n	8005292 <prvIdleTask+0xa>
 80052a0:	f04f 5380 	mov.w	r3, #268435456	; 0x10000000
 80052a4:	f8c8 3000 	str.w	r3, [r8]
 80052a8:	f3bf 8f4f 	dsb	sy
 80052ac:	f3bf 8f6f 	isb	sy
 80052b0:	e7ee      	b.n	8005290 <prvIdleTask+0x8>
 80052b2:	f000 fe4f 	bl	8005f54 <vPortEnterCritical>
 80052b6:	68fb      	ldr	r3, [r7, #12]
 80052b8:	68de      	ldr	r6, [r3, #12]
 80052ba:	1d30      	adds	r0, r6, #4
 80052bc:	f7ff fc33 	bl	8004b26 <uxListRemove>
 80052c0:	682b      	ldr	r3, [r5, #0]
 80052c2:	3b01      	subs	r3, #1
 80052c4:	602b      	str	r3, [r5, #0]
 80052c6:	6823      	ldr	r3, [r4, #0]
 80052c8:	3b01      	subs	r3, #1
 80052ca:	6023      	str	r3, [r4, #0]
 80052cc:	f000 fe64 	bl	8005f98 <vPortExitCritical>
 80052d0:	4630      	mov	r0, r6
 80052d2:	f7ff ffbd 	bl	8005250 <prvDeleteTCB>
 80052d6:	e7dd      	b.n	8005294 <prvIdleTask+0xc>
 80052d8:	20000c80 	.word	0x20000c80
 80052dc:	20000c10 	.word	0x20000c10
 80052e0:	20000c0c 	.word	0x20000c0c
 80052e4:	200007ac 	.word	0x200007ac
 80052e8:	e000ed04 	.word	0xe000ed04

080052ec <prvResetNextTaskUnblockTime>:
 80052ec:	4a06      	ldr	r2, [pc, #24]	; (8005308 <prvResetNextTaskUnblockTime+0x1c>)
 80052ee:	6813      	ldr	r3, [r2, #0]
 80052f0:	6819      	ldr	r1, [r3, #0]
 80052f2:	4b06      	ldr	r3, [pc, #24]	; (800530c <prvResetNextTaskUnblockTime+0x20>)
 80052f4:	b919      	cbnz	r1, 80052fe <prvResetNextTaskUnblockTime+0x12>
 80052f6:	f04f 32ff 	mov.w	r2, #4294967295	; 0xffffffff
 80052fa:	601a      	str	r2, [r3, #0]
 80052fc:	4770      	bx	lr
 80052fe:	6812      	ldr	r2, [r2, #0]
 8005300:	68d2      	ldr	r2, [r2, #12]
 8005302:	68d2      	ldr	r2, [r2, #12]
 8005304:	6852      	ldr	r2, [r2, #4]
 8005306:	e7f8      	b.n	80052fa <prvResetNextTaskUnblockTime+0xe>
 8005308:	200007a4 	.word	0x200007a4
 800530c:	20000c4c 	.word	0x20000c4c

08005310 <prvInitialiseNewTask.isra.2>:
 8005310:	e92d 47f0 	stmdb	sp!, {r4, r5, r6, r7, r8, r9, sl, lr}
 8005314:	e9dd 6409 	ldrd	r6, r4, [sp, #36]	; 0x24
 8005318:	ea4f 0982 	mov.w	r9, r2, lsl #2
 800531c:	464a      	mov	r2, r9
 800531e:	4607      	mov	r7, r0
 8005320:	460d      	mov	r5, r1
 8005322:	6b20      	ldr	r0, [r4, #48]	; 0x30
 8005324:	21a5      	movs	r1, #165	; 0xa5
 8005326:	4698      	mov	r8, r3
 8005328:	f001 f877 	bl	800641a <memset>
 800532c:	6b23      	ldr	r3, [r4, #48]	; 0x30
 800532e:	f1a9 0904 	sub.w	r9, r9, #4
 8005332:	4499      	add	r9, r3
 8005334:	f029 0907 	bic.w	r9, r9, #7
 8005338:	b395      	cbz	r5, 80053a0 <prvInitialiseNewTask.isra.2+0x90>
 800533a:	1e6b      	subs	r3, r5, #1
 800533c:	f104 0234 	add.w	r2, r4, #52	; 0x34
 8005340:	350f      	adds	r5, #15
 8005342:	f813 1f01 	ldrb.w	r1, [r3, #1]!
 8005346:	f802 1b01 	strb.w	r1, [r2], #1
 800534a:	7819      	ldrb	r1, [r3, #0]
 800534c:	b109      	cbz	r1, 8005352 <prvInitialiseNewTask.isra.2+0x42>
 800534e:	42ab      	cmp	r3, r5
 8005350:	d1f7      	bne.n	8005342 <prvInitialiseNewTask.isra.2+0x32>
 8005352:	2300      	movs	r3, #0
 8005354:	f884 3043 	strb.w	r3, [r4, #67]	; 0x43
 8005358:	9d08      	ldr	r5, [sp, #32]
 800535a:	2d37      	cmp	r5, #55	; 0x37
 800535c:	bf28      	it	cs
 800535e:	2537      	movcs	r5, #55	; 0x37
 8005360:	f04f 0a00 	mov.w	sl, #0
 8005364:	62e5      	str	r5, [r4, #44]	; 0x2c
 8005366:	64e5      	str	r5, [r4, #76]	; 0x4c
 8005368:	1d20      	adds	r0, r4, #4
 800536a:	f8c4 a050 	str.w	sl, [r4, #80]	; 0x50
 800536e:	f7ff fbb4 	bl	8004ada <vListInitialiseItem>
 8005372:	f1c5 0538 	rsb	r5, r5, #56	; 0x38
 8005376:	f104 0018 	add.w	r0, r4, #24
 800537a:	f7ff fbae 	bl	8004ada <vListInitialiseItem>
 800537e:	f8c4 a054 	str.w	sl, [r4, #84]	; 0x54
 8005382:	6124      	str	r4, [r4, #16]
 8005384:	61a5      	str	r5, [r4, #24]
 8005386:	6264      	str	r4, [r4, #36]	; 0x24
 8005388:	f884 a058 	strb.w	sl, [r4, #88]	; 0x58
 800538c:	4642      	mov	r2, r8
 800538e:	4639      	mov	r1, r7
 8005390:	4648      	mov	r0, r9
 8005392:	f000 fdb5 	bl	8005f00 <pxPortInitialiseStack>
 8005396:	6020      	str	r0, [r4, #0]
 8005398:	b106      	cbz	r6, 800539c <prvInitialiseNewTask.isra.2+0x8c>
 800539a:	6034      	str	r4, [r6, #0]
 800539c:	e8bd 87f0 	ldmia.w	sp!, {r4, r5, r6, r7, r8, r9, sl, pc}
 80053a0:	f884 5034 	strb.w	r5, [r4, #52]	; 0x34
 80053a4:	e7d8      	b.n	8005358 <prvInitialiseNewTask.isra.2+0x48>
	...

080053a8 <prvAddCurrentTaskToDelayedList>:
 80053a8:	b5f8      	push	{r3, r4, r5, r6, r7, lr}
 80053aa:	4b16      	ldr	r3, [pc, #88]	; (8005404 <prvAddCurrentTaskToDelayedList+0x5c>)
 80053ac:	4e16      	ldr	r6, [pc, #88]	; (8005408 <prvAddCurrentTaskToDelayedList+0x60>)
 80053ae:	681c      	ldr	r4, [r3, #0]
 80053b0:	4605      	mov	r5, r0
 80053b2:	6830      	ldr	r0, [r6, #0]
 80053b4:	3004      	adds	r0, #4
 80053b6:	460f      	mov	r7, r1
 80053b8:	f7ff fbb5 	bl	8004b26 <uxListRemove>
 80053bc:	1c6b      	adds	r3, r5, #1
 80053be:	4633      	mov	r3, r6
 80053c0:	d107      	bne.n	80053d2 <prvAddCurrentTaskToDelayedList+0x2a>
 80053c2:	b137      	cbz	r7, 80053d2 <prvAddCurrentTaskToDelayedList+0x2a>
 80053c4:	6831      	ldr	r1, [r6, #0]
 80053c6:	4811      	ldr	r0, [pc, #68]	; (800540c <prvAddCurrentTaskToDelayedList+0x64>)
 80053c8:	3104      	adds	r1, #4
 80053ca:	e8bd 40f8 	ldmia.w	sp!, {r3, r4, r5, r6, r7, lr}
 80053ce:	f7ff bb87 	b.w	8004ae0 <vListInsertEnd>
 80053d2:	681a      	ldr	r2, [r3, #0]
 80053d4:	1964      	adds	r4, r4, r5
 80053d6:	6054      	str	r4, [r2, #4]
 80053d8:	d307      	bcc.n	80053ea <prvAddCurrentTaskToDelayedList+0x42>
 80053da:	4a0d      	ldr	r2, [pc, #52]	; (8005410 <prvAddCurrentTaskToDelayedList+0x68>)
 80053dc:	6810      	ldr	r0, [r2, #0]
 80053de:	6819      	ldr	r1, [r3, #0]
 80053e0:	e8bd 40f8 	ldmia.w	sp!, {r3, r4, r5, r6, r7, lr}
 80053e4:	3104      	adds	r1, #4
 80053e6:	f7ff bb87 	b.w	8004af8 <vListInsert>
 80053ea:	4a0a      	ldr	r2, [pc, #40]	; (8005414 <prvAddCurrentTaskToDelayedList+0x6c>)
 80053ec:	6810      	ldr	r0, [r2, #0]
 80053ee:	6819      	ldr	r1, [r3, #0]
 80053f0:	3104      	adds	r1, #4
 80053f2:	f7ff fb81 	bl	8004af8 <vListInsert>
 80053f6:	4b08      	ldr	r3, [pc, #32]	; (8005418 <prvAddCurrentTaskToDelayedList+0x70>)
 80053f8:	681a      	ldr	r2, [r3, #0]
 80053fa:	42a2      	cmp	r2, r4
 80053fc:	bf88      	it	hi
 80053fe:	601c      	strhi	r4, [r3, #0]
 8005400:	bdf8      	pop	{r3, r4, r5, r6, r7, pc}
 8005402:	bf00      	nop
 8005404:	20000c94 	.word	0x20000c94
 8005408:	200007a0 	.word	0x200007a0
 800540c:	20000c6c 	.word	0x20000c6c
 8005410:	200007a8 	.word	0x200007a8
 8005414:	200007a4 	.word	0x200007a4
 8005418:	20000c4c 	.word	0x20000c4c

0800541c <xTaskCreateStatic>:
 800541c:	b570      	push	{r4, r5, r6, lr}
 800541e:	b086      	sub	sp, #24
 8005420:	e9dd 540b 	ldrd	r5, r4, [sp, #44]	; 0x2c
 8005424:	b945      	cbnz	r5, 8005438 <xTaskCreateStatic+0x1c>
 8005426:	f04f 0350 	mov.w	r3, #80	; 0x50
 800542a:	f383 8811 	msr	BASEPRI, r3
 800542e:	f3bf 8f6f 	isb	sy
 8005432:	f3bf 8f4f 	dsb	sy
 8005436:	e7fe      	b.n	8005436 <xTaskCreateStatic+0x1a>
 8005438:	b944      	cbnz	r4, 800544c <xTaskCreateStatic+0x30>
 800543a:	f04f 0350 	mov.w	r3, #80	; 0x50
 800543e:	f383 8811 	msr	BASEPRI, r3
 8005442:	f3bf 8f6f 	isb	sy
 8005446:	f3bf 8f4f 	dsb	sy
 800544a:	e7fe      	b.n	800544a <xTaskCreateStatic+0x2e>
 800544c:	265c      	movs	r6, #92	; 0x5c
 800544e:	9605      	str	r6, [sp, #20]
 8005450:	9e05      	ldr	r6, [sp, #20]
 8005452:	2e5c      	cmp	r6, #92	; 0x5c
 8005454:	d008      	beq.n	8005468 <xTaskCreateStatic+0x4c>
 8005456:	f04f 0350 	mov.w	r3, #80	; 0x50
 800545a:	f383 8811 	msr	BASEPRI, r3
 800545e:	f3bf 8f6f 	isb	sy
 8005462:	f3bf 8f4f 	dsb	sy
 8005466:	e7fe      	b.n	8005466 <xTaskCreateStatic+0x4a>
 8005468:	6325      	str	r5, [r4, #48]	; 0x30
 800546a:	2502      	movs	r5, #2
 800546c:	f884 5059 	strb.w	r5, [r4, #89]	; 0x59
 8005470:	ad04      	add	r5, sp, #16
 8005472:	9501      	str	r5, [sp, #4]
 8005474:	9d0a      	ldr	r5, [sp, #40]	; 0x28
 8005476:	9402      	str	r4, [sp, #8]
 8005478:	9500      	str	r5, [sp, #0]
 800547a:	9e05      	ldr	r6, [sp, #20]
 800547c:	f7ff ff48 	bl	8005310 <prvInitialiseNewTask.isra.2>
 8005480:	4620      	mov	r0, r4
 8005482:	f7ff fe65 	bl	8005150 <prvAddNewTaskToReadyList>
 8005486:	9804      	ldr	r0, [sp, #16]
 8005488:	b006      	add	sp, #24
 800548a:	bd70      	pop	{r4, r5, r6, pc}

0800548c <xTaskCreate>:
 800548c:	e92d 43f0 	stmdb	sp!, {r4, r5, r6, r7, r8, r9, lr}
 8005490:	4607      	mov	r7, r0
 8005492:	b085      	sub	sp, #20
 8005494:	0090      	lsls	r0, r2, #2
 8005496:	4688      	mov	r8, r1
 8005498:	4616      	mov	r6, r2
 800549a:	4699      	mov	r9, r3
 800549c:	f000 feca 	bl	8006234 <pvPortMalloc>
 80054a0:	4605      	mov	r5, r0
 80054a2:	b1e8      	cbz	r0, 80054e0 <xTaskCreate+0x54>
 80054a4:	205c      	movs	r0, #92	; 0x5c
 80054a6:	f000 fec5 	bl	8006234 <pvPortMalloc>
 80054aa:	4604      	mov	r4, r0
 80054ac:	b1a8      	cbz	r0, 80054da <xTaskCreate+0x4e>
 80054ae:	2300      	movs	r3, #0
 80054b0:	f880 3059 	strb.w	r3, [r0, #89]	; 0x59
 80054b4:	9b0d      	ldr	r3, [sp, #52]	; 0x34
 80054b6:	6305      	str	r5, [r0, #48]	; 0x30
 80054b8:	9301      	str	r3, [sp, #4]
 80054ba:	9b0c      	ldr	r3, [sp, #48]	; 0x30
 80054bc:	9002      	str	r0, [sp, #8]
 80054be:	9300      	str	r3, [sp, #0]
 80054c0:	4632      	mov	r2, r6
 80054c2:	464b      	mov	r3, r9
 80054c4:	4641      	mov	r1, r8
 80054c6:	4638      	mov	r0, r7
 80054c8:	f7ff ff22 	bl	8005310 <prvInitialiseNewTask.isra.2>
 80054cc:	4620      	mov	r0, r4
 80054ce:	f7ff fe3f 	bl	8005150 <prvAddNewTaskToReadyList>
 80054d2:	2001      	movs	r0, #1
 80054d4:	b005      	add	sp, #20
 80054d6:	e8bd 83f0 	ldmia.w	sp!, {r4, r5, r6, r7, r8, r9, pc}
 80054da:	4628      	mov	r0, r5
 80054dc:	f000 ff36 	bl	800634c <vPortFree>
 80054e0:	f04f 30ff 	mov.w	r0, #4294967295	; 0xffffffff
 80054e4:	e7f6      	b.n	80054d4 <xTaskCreate+0x48>
	...

080054e8 <vTaskStartScheduler>:
 80054e8:	b510      	push	{r4, lr}
 80054ea:	b088      	sub	sp, #32
 80054ec:	2400      	movs	r4, #0
 80054ee:	aa07      	add	r2, sp, #28
 80054f0:	a906      	add	r1, sp, #24
 80054f2:	a805      	add	r0, sp, #20
 80054f4:	e9cd 4405 	strd	r4, r4, [sp, #20]
 80054f8:	f7ff facc 	bl	8004a94 <vApplicationGetIdleTaskMemory>
 80054fc:	9b05      	ldr	r3, [sp, #20]
 80054fe:	9302      	str	r3, [sp, #8]
 8005500:	9b06      	ldr	r3, [sp, #24]
 8005502:	9a07      	ldr	r2, [sp, #28]
 8005504:	4915      	ldr	r1, [pc, #84]	; (800555c <vTaskStartScheduler+0x74>)
 8005506:	4816      	ldr	r0, [pc, #88]	; (8005560 <vTaskStartScheduler+0x78>)
 8005508:	e9cd 4300 	strd	r4, r3, [sp]
 800550c:	4623      	mov	r3, r4
 800550e:	f7ff ff85 	bl	800541c <xTaskCreateStatic>
 8005512:	b1a8      	cbz	r0, 8005540 <vTaskStartScheduler+0x58>
 8005514:	f000 fb08 	bl	8005b28 <xTimerCreateTimerTask>
 8005518:	2801      	cmp	r0, #1
 800551a:	d113      	bne.n	8005544 <vTaskStartScheduler+0x5c>
 800551c:	f04f 0350 	mov.w	r3, #80	; 0x50
 8005520:	f383 8811 	msr	BASEPRI, r3
 8005524:	f3bf 8f6f 	isb	sy
 8005528:	f3bf 8f4f 	dsb	sy
 800552c:	4b0d      	ldr	r3, [pc, #52]	; (8005564 <vTaskStartScheduler+0x7c>)
 800552e:	f04f 32ff 	mov.w	r2, #4294967295	; 0xffffffff
 8005532:	601a      	str	r2, [r3, #0]
 8005534:	4b0c      	ldr	r3, [pc, #48]	; (8005568 <vTaskStartScheduler+0x80>)
 8005536:	6018      	str	r0, [r3, #0]
 8005538:	4b0c      	ldr	r3, [pc, #48]	; (800556c <vTaskStartScheduler+0x84>)
 800553a:	601c      	str	r4, [r3, #0]
 800553c:	f000 fda2 	bl	8006084 <xPortStartScheduler>
 8005540:	b008      	add	sp, #32
 8005542:	bd10      	pop	{r4, pc}
 8005544:	3001      	adds	r0, #1
 8005546:	d1fb      	bne.n	8005540 <vTaskStartScheduler+0x58>
 8005548:	f04f 0350 	mov.w	r3, #80	; 0x50
 800554c:	f383 8811 	msr	BASEPRI, r3
 8005550:	f3bf 8f6f 	isb	sy
 8005554:	f3bf 8f4f 	dsb	sy
 8005558:	e7fe      	b.n	8005558 <vTaskStartScheduler+0x70>
 800555a:	bf00      	nop
 800555c:	08006740 	.word	0x08006740
 8005560:	08005289 	.word	0x08005289
 8005564:	20000c4c 	.word	0x20000c4c
 8005568:	20000c68 	.word	0x20000c68
 800556c:	20000c94 	.word	0x20000c94

08005570 <vTaskSuspendAll>:
 8005570:	4a02      	ldr	r2, [pc, #8]	; (800557c <vTaskSuspendAll+0xc>)
 8005572:	6813      	ldr	r3, [r2, #0]
 8005574:	3301      	adds	r3, #1
 8005576:	6013      	str	r3, [r2, #0]
 8005578:	4770      	bx	lr
 800557a:	bf00      	nop
 800557c:	20000c18 	.word	0x20000c18

08005580 <xTaskGetTickCount>:
 8005580:	4b01      	ldr	r3, [pc, #4]	; (8005588 <xTaskGetTickCount+0x8>)
 8005582:	6818      	ldr	r0, [r3, #0]
 8005584:	4770      	bx	lr
 8005586:	bf00      	nop
 8005588:	20000c94 	.word	0x20000c94

0800558c <xTaskIncrementTick>:
 800558c:	e92d 4ff8 	stmdb	sp!, {r3, r4, r5, r6, r7, r8, r9, sl, fp, lr}
 8005590:	4b3b      	ldr	r3, [pc, #236]	; (8005680 <xTaskIncrementTick+0xf4>)
 8005592:	681b      	ldr	r3, [r3, #0]
 8005594:	2b00      	cmp	r3, #0
 8005596:	d16c      	bne.n	8005672 <xTaskIncrementTick+0xe6>
 8005598:	4b3a      	ldr	r3, [pc, #232]	; (8005684 <xTaskIncrementTick+0xf8>)
 800559a:	681c      	ldr	r4, [r3, #0]
 800559c:	3401      	adds	r4, #1
 800559e:	601c      	str	r4, [r3, #0]
 80055a0:	b9bc      	cbnz	r4, 80055d2 <xTaskIncrementTick+0x46>
 80055a2:	4b39      	ldr	r3, [pc, #228]	; (8005688 <xTaskIncrementTick+0xfc>)
 80055a4:	681a      	ldr	r2, [r3, #0]
 80055a6:	6812      	ldr	r2, [r2, #0]
 80055a8:	b142      	cbz	r2, 80055bc <xTaskIncrementTick+0x30>
 80055aa:	f04f 0350 	mov.w	r3, #80	; 0x50
 80055ae:	f383 8811 	msr	BASEPRI, r3
 80055b2:	f3bf 8f6f 	isb	sy
 80055b6:	f3bf 8f4f 	dsb	sy
 80055ba:	e7fe      	b.n	80055ba <xTaskIncrementTick+0x2e>
 80055bc:	4a33      	ldr	r2, [pc, #204]	; (800568c <xTaskIncrementTick+0x100>)
 80055be:	6819      	ldr	r1, [r3, #0]
 80055c0:	6810      	ldr	r0, [r2, #0]
 80055c2:	6018      	str	r0, [r3, #0]
 80055c4:	6011      	str	r1, [r2, #0]
 80055c6:	4a32      	ldr	r2, [pc, #200]	; (8005690 <xTaskIncrementTick+0x104>)
 80055c8:	6813      	ldr	r3, [r2, #0]
 80055ca:	3301      	adds	r3, #1
 80055cc:	6013      	str	r3, [r2, #0]
 80055ce:	f7ff fe8d 	bl	80052ec <prvResetNextTaskUnblockTime>
 80055d2:	4d30      	ldr	r5, [pc, #192]	; (8005694 <xTaskIncrementTick+0x108>)
 80055d4:	4f30      	ldr	r7, [pc, #192]	; (8005698 <xTaskIncrementTick+0x10c>)
 80055d6:	682b      	ldr	r3, [r5, #0]
 80055d8:	42a3      	cmp	r3, r4
 80055da:	f04f 0b00 	mov.w	fp, #0
 80055de:	d911      	bls.n	8005604 <xTaskIncrementTick+0x78>
 80055e0:	683a      	ldr	r2, [r7, #0]
 80055e2:	4b2e      	ldr	r3, [pc, #184]	; (800569c <xTaskIncrementTick+0x110>)
 80055e4:	6ad1      	ldr	r1, [r2, #44]	; 0x2c
 80055e6:	2214      	movs	r2, #20
 80055e8:	434a      	muls	r2, r1
 80055ea:	589a      	ldr	r2, [r3, r2]
 80055ec:	2a02      	cmp	r2, #2
 80055ee:	bf28      	it	cs
 80055f0:	f04f 0b01 	movcs.w	fp, #1
 80055f4:	4a2a      	ldr	r2, [pc, #168]	; (80056a0 <xTaskIncrementTick+0x114>)
 80055f6:	6812      	ldr	r2, [r2, #0]
 80055f8:	2a00      	cmp	r2, #0
 80055fa:	bf0c      	ite	eq
 80055fc:	4658      	moveq	r0, fp
 80055fe:	2001      	movne	r0, #1
 8005600:	e8bd 8ff8 	ldmia.w	sp!, {r3, r4, r5, r6, r7, r8, r9, sl, fp, pc}
 8005604:	f8df 9080 	ldr.w	r9, [pc, #128]	; 8005688 <xTaskIncrementTick+0xfc>
 8005608:	f8df a09c 	ldr.w	sl, [pc, #156]	; 80056a8 <xTaskIncrementTick+0x11c>
 800560c:	f8d9 2000 	ldr.w	r2, [r9]
 8005610:	6812      	ldr	r2, [r2, #0]
 8005612:	b91a      	cbnz	r2, 800561c <xTaskIncrementTick+0x90>
 8005614:	f04f 32ff 	mov.w	r2, #4294967295	; 0xffffffff
 8005618:	602a      	str	r2, [r5, #0]
 800561a:	e7e1      	b.n	80055e0 <xTaskIncrementTick+0x54>
 800561c:	f8d9 2000 	ldr.w	r2, [r9]
 8005620:	68d2      	ldr	r2, [r2, #12]
 8005622:	68d6      	ldr	r6, [r2, #12]
 8005624:	6871      	ldr	r1, [r6, #4]
 8005626:	428c      	cmp	r4, r1
 8005628:	d201      	bcs.n	800562e <xTaskIncrementTick+0xa2>
 800562a:	6029      	str	r1, [r5, #0]
 800562c:	e7d8      	b.n	80055e0 <xTaskIncrementTick+0x54>
 800562e:	f106 0804 	add.w	r8, r6, #4
 8005632:	4640      	mov	r0, r8
 8005634:	f7ff fa77 	bl	8004b26 <uxListRemove>
 8005638:	6ab1      	ldr	r1, [r6, #40]	; 0x28
 800563a:	b119      	cbz	r1, 8005644 <xTaskIncrementTick+0xb8>
 800563c:	f106 0018 	add.w	r0, r6, #24
 8005640:	f7ff fa71 	bl	8004b26 <uxListRemove>
 8005644:	6af0      	ldr	r0, [r6, #44]	; 0x2c
 8005646:	f8da 1000 	ldr.w	r1, [sl]
 800564a:	4b14      	ldr	r3, [pc, #80]	; (800569c <xTaskIncrementTick+0x110>)
 800564c:	4288      	cmp	r0, r1
 800564e:	f04f 0214 	mov.w	r2, #20
 8005652:	bf88      	it	hi
 8005654:	f8ca 0000 	strhi.w	r0, [sl]
 8005658:	4641      	mov	r1, r8
 800565a:	fb02 3000 	mla	r0, r2, r0, r3
 800565e:	f7ff fa3f 	bl	8004ae0 <vListInsertEnd>
 8005662:	6838      	ldr	r0, [r7, #0]
 8005664:	6af1      	ldr	r1, [r6, #44]	; 0x2c
 8005666:	6ac2      	ldr	r2, [r0, #44]	; 0x2c
 8005668:	4291      	cmp	r1, r2
 800566a:	bf28      	it	cs
 800566c:	f04f 0b01 	movcs.w	fp, #1
 8005670:	e7cc      	b.n	800560c <xTaskIncrementTick+0x80>
 8005672:	4a0c      	ldr	r2, [pc, #48]	; (80056a4 <xTaskIncrementTick+0x118>)
 8005674:	6813      	ldr	r3, [r2, #0]
 8005676:	3301      	adds	r3, #1
 8005678:	6013      	str	r3, [r2, #0]
 800567a:	f04f 0b00 	mov.w	fp, #0
 800567e:	e7b9      	b.n	80055f4 <xTaskIncrementTick+0x68>
 8005680:	20000c18 	.word	0x20000c18
 8005684:	20000c94 	.word	0x20000c94
 8005688:	200007a4 	.word	0x200007a4
 800568c:	200007a8 	.word	0x200007a8
 8005690:	20000c50 	.word	0x20000c50
 8005694:	20000c4c 	.word	0x20000c4c
 8005698:	200007a0 	.word	0x200007a0
 800569c:	200007ac 	.word	0x200007ac
 80056a0:	20000c98 	.word	0x20000c98
 80056a4:	20000c14 	.word	0x20000c14
 80056a8:	20000c20 	.word	0x20000c20

080056ac <xTaskResumeAll>:
 80056ac:	e92d 41f0 	stmdb	sp!, {r4, r5, r6, r7, r8, lr}
 80056b0:	4c2f      	ldr	r4, [pc, #188]	; (8005770 <xTaskResumeAll+0xc4>)
 80056b2:	6823      	ldr	r3, [r4, #0]
 80056b4:	b943      	cbnz	r3, 80056c8 <xTaskResumeAll+0x1c>
 80056b6:	f04f 0350 	mov.w	r3, #80	; 0x50
 80056ba:	f383 8811 	msr	BASEPRI, r3
 80056be:	f3bf 8f6f 	isb	sy
 80056c2:	f3bf 8f4f 	dsb	sy
 80056c6:	e7fe      	b.n	80056c6 <xTaskResumeAll+0x1a>
 80056c8:	f000 fc44 	bl	8005f54 <vPortEnterCritical>
 80056cc:	6823      	ldr	r3, [r4, #0]
 80056ce:	3b01      	subs	r3, #1
 80056d0:	6023      	str	r3, [r4, #0]
 80056d2:	6824      	ldr	r4, [r4, #0]
 80056d4:	b12c      	cbz	r4, 80056e2 <xTaskResumeAll+0x36>
 80056d6:	2400      	movs	r4, #0
 80056d8:	f000 fc5e 	bl	8005f98 <vPortExitCritical>
 80056dc:	4620      	mov	r0, r4
 80056de:	e8bd 81f0 	ldmia.w	sp!, {r4, r5, r6, r7, r8, pc}
 80056e2:	4b24      	ldr	r3, [pc, #144]	; (8005774 <xTaskResumeAll+0xc8>)
 80056e4:	681b      	ldr	r3, [r3, #0]
 80056e6:	2b00      	cmp	r3, #0
 80056e8:	d0f5      	beq.n	80056d6 <xTaskResumeAll+0x2a>
 80056ea:	4d23      	ldr	r5, [pc, #140]	; (8005778 <xTaskResumeAll+0xcc>)
 80056ec:	4e23      	ldr	r6, [pc, #140]	; (800577c <xTaskResumeAll+0xd0>)
 80056ee:	f8df 80a0 	ldr.w	r8, [pc, #160]	; 8005790 <xTaskResumeAll+0xe4>
 80056f2:	e01d      	b.n	8005730 <xTaskResumeAll+0x84>
 80056f4:	68eb      	ldr	r3, [r5, #12]
 80056f6:	68dc      	ldr	r4, [r3, #12]
 80056f8:	1d27      	adds	r7, r4, #4
 80056fa:	f104 0018 	add.w	r0, r4, #24
 80056fe:	f7ff fa12 	bl	8004b26 <uxListRemove>
 8005702:	4638      	mov	r0, r7
 8005704:	f7ff fa0f 	bl	8004b26 <uxListRemove>
 8005708:	6ae3      	ldr	r3, [r4, #44]	; 0x2c
 800570a:	6832      	ldr	r2, [r6, #0]
 800570c:	2014      	movs	r0, #20
 800570e:	4293      	cmp	r3, r2
 8005710:	fb00 8003 	mla	r0, r0, r3, r8
 8005714:	4639      	mov	r1, r7
 8005716:	bf88      	it	hi
 8005718:	6033      	strhi	r3, [r6, #0]
 800571a:	f7ff f9e1 	bl	8004ae0 <vListInsertEnd>
 800571e:	4b18      	ldr	r3, [pc, #96]	; (8005780 <xTaskResumeAll+0xd4>)
 8005720:	6ae2      	ldr	r2, [r4, #44]	; 0x2c
 8005722:	681b      	ldr	r3, [r3, #0]
 8005724:	6adb      	ldr	r3, [r3, #44]	; 0x2c
 8005726:	429a      	cmp	r2, r3
 8005728:	d302      	bcc.n	8005730 <xTaskResumeAll+0x84>
 800572a:	4b16      	ldr	r3, [pc, #88]	; (8005784 <xTaskResumeAll+0xd8>)
 800572c:	2201      	movs	r2, #1
 800572e:	601a      	str	r2, [r3, #0]
 8005730:	682b      	ldr	r3, [r5, #0]
 8005732:	2b00      	cmp	r3, #0
 8005734:	d1de      	bne.n	80056f4 <xTaskResumeAll+0x48>
 8005736:	b10c      	cbz	r4, 800573c <xTaskResumeAll+0x90>
 8005738:	f7ff fdd8 	bl	80052ec <prvResetNextTaskUnblockTime>
 800573c:	4d12      	ldr	r5, [pc, #72]	; (8005788 <xTaskResumeAll+0xdc>)
 800573e:	682c      	ldr	r4, [r5, #0]
 8005740:	b144      	cbz	r4, 8005754 <xTaskResumeAll+0xa8>
 8005742:	4e10      	ldr	r6, [pc, #64]	; (8005784 <xTaskResumeAll+0xd8>)
 8005744:	2701      	movs	r7, #1
 8005746:	f7ff ff21 	bl	800558c <xTaskIncrementTick>
 800574a:	b100      	cbz	r0, 800574e <xTaskResumeAll+0xa2>
 800574c:	6037      	str	r7, [r6, #0]
 800574e:	3c01      	subs	r4, #1
 8005750:	d1f9      	bne.n	8005746 <xTaskResumeAll+0x9a>
 8005752:	602c      	str	r4, [r5, #0]
 8005754:	4b0b      	ldr	r3, [pc, #44]	; (8005784 <xTaskResumeAll+0xd8>)
 8005756:	681b      	ldr	r3, [r3, #0]
 8005758:	2b00      	cmp	r3, #0
 800575a:	d0bc      	beq.n	80056d6 <xTaskResumeAll+0x2a>
 800575c:	4b0b      	ldr	r3, [pc, #44]	; (800578c <xTaskResumeAll+0xe0>)
 800575e:	f04f 5280 	mov.w	r2, #268435456	; 0x10000000
 8005762:	601a      	str	r2, [r3, #0]
 8005764:	f3bf 8f4f 	dsb	sy
 8005768:	f3bf 8f6f 	isb	sy
 800576c:	2401      	movs	r4, #1
 800576e:	e7b3      	b.n	80056d8 <xTaskResumeAll+0x2c>
 8005770:	20000c18 	.word	0x20000c18
 8005774:	20000c0c 	.word	0x20000c0c
 8005778:	20000c54 	.word	0x20000c54
 800577c:	20000c20 	.word	0x20000c20
 8005780:	200007a0 	.word	0x200007a0
 8005784:	20000c98 	.word	0x20000c98
 8005788:	20000c14 	.word	0x20000c14
 800578c:	e000ed04 	.word	0xe000ed04
 8005790:	200007ac 	.word	0x200007ac

08005794 <vTaskDelay>:
 8005794:	b508      	push	{r3, lr}
 8005796:	b940      	cbnz	r0, 80057aa <vTaskDelay+0x16>
 8005798:	4b0e      	ldr	r3, [pc, #56]	; (80057d4 <vTaskDelay+0x40>)
 800579a:	f04f 5280 	mov.w	r2, #268435456	; 0x10000000
 800579e:	601a      	str	r2, [r3, #0]
 80057a0:	f3bf 8f4f 	dsb	sy
 80057a4:	f3bf 8f6f 	isb	sy
 80057a8:	bd08      	pop	{r3, pc}
 80057aa:	4b0b      	ldr	r3, [pc, #44]	; (80057d8 <vTaskDelay+0x44>)
 80057ac:	6819      	ldr	r1, [r3, #0]
 80057ae:	b141      	cbz	r1, 80057c2 <vTaskDelay+0x2e>
 80057b0:	f04f 0350 	mov.w	r3, #80	; 0x50
 80057b4:	f383 8811 	msr	BASEPRI, r3
 80057b8:	f3bf 8f6f 	isb	sy
 80057bc:	f3bf 8f4f 	dsb	sy
 80057c0:	e7fe      	b.n	80057c0 <vTaskDelay+0x2c>
 80057c2:	f7ff fed5 	bl	8005570 <vTaskSuspendAll>
 80057c6:	f7ff fdef 	bl	80053a8 <prvAddCurrentTaskToDelayedList>
 80057ca:	f7ff ff6f 	bl	80056ac <xTaskResumeAll>
 80057ce:	2800      	cmp	r0, #0
 80057d0:	d0e2      	beq.n	8005798 <vTaskDelay+0x4>
 80057d2:	e7e9      	b.n	80057a8 <vTaskDelay+0x14>
 80057d4:	e000ed04 	.word	0xe000ed04
 80057d8:	20000c18 	.word	0x20000c18

080057dc <vTaskSwitchContext>:
 80057dc:	4b18      	ldr	r3, [pc, #96]	; (8005840 <vTaskSwitchContext+0x64>)
 80057de:	681a      	ldr	r2, [r3, #0]
 80057e0:	4b18      	ldr	r3, [pc, #96]	; (8005844 <vTaskSwitchContext+0x68>)
 80057e2:	b5f0      	push	{r4, r5, r6, r7, lr}
 80057e4:	b112      	cbz	r2, 80057ec <vTaskSwitchContext+0x10>
 80057e6:	2201      	movs	r2, #1
 80057e8:	601a      	str	r2, [r3, #0]
 80057ea:	bdf0      	pop	{r4, r5, r6, r7, pc}
 80057ec:	4d16      	ldr	r5, [pc, #88]	; (8005848 <vTaskSwitchContext+0x6c>)
 80057ee:	601a      	str	r2, [r3, #0]
 80057f0:	4a16      	ldr	r2, [pc, #88]	; (800584c <vTaskSwitchContext+0x70>)
 80057f2:	682b      	ldr	r3, [r5, #0]
 80057f4:	2714      	movs	r7, #20
 80057f6:	4616      	mov	r6, r2
 80057f8:	fb07 f103 	mul.w	r1, r7, r3
 80057fc:	1850      	adds	r0, r2, r1
 80057fe:	5854      	ldr	r4, [r2, r1]
 8005800:	b18c      	cbz	r4, 8005826 <vTaskSwitchContext+0x4a>
 8005802:	6844      	ldr	r4, [r0, #4]
 8005804:	3108      	adds	r1, #8
 8005806:	6864      	ldr	r4, [r4, #4]
 8005808:	6044      	str	r4, [r0, #4]
 800580a:	440a      	add	r2, r1
 800580c:	4294      	cmp	r4, r2
 800580e:	bf04      	itt	eq
 8005810:	6862      	ldreq	r2, [r4, #4]
 8005812:	6042      	streq	r2, [r0, #4]
 8005814:	2214      	movs	r2, #20
 8005816:	fb02 6203 	mla	r2, r2, r3, r6
 800581a:	6852      	ldr	r2, [r2, #4]
 800581c:	68d1      	ldr	r1, [r2, #12]
 800581e:	4a0c      	ldr	r2, [pc, #48]	; (8005850 <vTaskSwitchContext+0x74>)
 8005820:	6011      	str	r1, [r2, #0]
 8005822:	602b      	str	r3, [r5, #0]
 8005824:	e7e1      	b.n	80057ea <vTaskSwitchContext+0xe>
 8005826:	b943      	cbnz	r3, 800583a <vTaskSwitchContext+0x5e>
 8005828:	f04f 0350 	mov.w	r3, #80	; 0x50
 800582c:	f383 8811 	msr	BASEPRI, r3
 8005830:	f3bf 8f6f 	isb	sy
 8005834:	f3bf 8f4f 	dsb	sy
 8005838:	e7fe      	b.n	8005838 <vTaskSwitchContext+0x5c>
 800583a:	3b01      	subs	r3, #1
 800583c:	e7dc      	b.n	80057f8 <vTaskSwitchContext+0x1c>
 800583e:	bf00      	nop
 8005840:	20000c18 	.word	0x20000c18
 8005844:	20000c98 	.word	0x20000c98
 8005848:	20000c20 	.word	0x20000c20
 800584c:	200007ac 	.word	0x200007ac
 8005850:	200007a0 	.word	0x200007a0

08005854 <vTaskPlaceOnEventList>:
 8005854:	b510      	push	{r4, lr}
 8005856:	460c      	mov	r4, r1
 8005858:	b940      	cbnz	r0, 800586c <vTaskPlaceOnEventList+0x18>
 800585a:	f04f 0350 	mov.w	r3, #80	; 0x50
 800585e:	f383 8811 	msr	BASEPRI, r3
 8005862:	f3bf 8f6f 	isb	sy
 8005866:	f3bf 8f4f 	dsb	sy
 800586a:	e7fe      	b.n	800586a <vTaskPlaceOnEventList+0x16>
 800586c:	4b05      	ldr	r3, [pc, #20]	; (8005884 <vTaskPlaceOnEventList+0x30>)
 800586e:	6819      	ldr	r1, [r3, #0]
 8005870:	3118      	adds	r1, #24
 8005872:	f7ff f941 	bl	8004af8 <vListInsert>
 8005876:	4620      	mov	r0, r4
 8005878:	2101      	movs	r1, #1
 800587a:	e8bd 4010 	ldmia.w	sp!, {r4, lr}
 800587e:	f7ff bd93 	b.w	80053a8 <prvAddCurrentTaskToDelayedList>
 8005882:	bf00      	nop
 8005884:	200007a0 	.word	0x200007a0

08005888 <vTaskPlaceOnEventListRestricted>:
 8005888:	b538      	push	{r3, r4, r5, lr}
 800588a:	460d      	mov	r5, r1
 800588c:	4614      	mov	r4, r2
 800588e:	b940      	cbnz	r0, 80058a2 <vTaskPlaceOnEventListRestricted+0x1a>
 8005890:	f04f 0350 	mov.w	r3, #80	; 0x50
 8005894:	f383 8811 	msr	BASEPRI, r3
 8005898:	f3bf 8f6f 	isb	sy
 800589c:	f3bf 8f4f 	dsb	sy
 80058a0:	e7fe      	b.n	80058a0 <vTaskPlaceOnEventListRestricted+0x18>
 80058a2:	4b07      	ldr	r3, [pc, #28]	; (80058c0 <vTaskPlaceOnEventListRestricted+0x38>)
 80058a4:	6819      	ldr	r1, [r3, #0]
 80058a6:	3118      	adds	r1, #24
 80058a8:	f7ff f91a 	bl	8004ae0 <vListInsertEnd>
 80058ac:	2c00      	cmp	r4, #0
 80058ae:	4621      	mov	r1, r4
 80058b0:	bf0c      	ite	eq
 80058b2:	4628      	moveq	r0, r5
 80058b4:	f04f 30ff 	movne.w	r0, #4294967295	; 0xffffffff
 80058b8:	e8bd 4038 	ldmia.w	sp!, {r3, r4, r5, lr}
 80058bc:	f7ff bd74 	b.w	80053a8 <prvAddCurrentTaskToDelayedList>
 80058c0:	200007a0 	.word	0x200007a0

080058c4 <xTaskRemoveFromEventList>:
 80058c4:	b538      	push	{r3, r4, r5, lr}
 80058c6:	68c3      	ldr	r3, [r0, #12]
 80058c8:	68dc      	ldr	r4, [r3, #12]
 80058ca:	b944      	cbnz	r4, 80058de <xTaskRemoveFromEventList+0x1a>
 80058cc:	f04f 0350 	mov.w	r3, #80	; 0x50
 80058d0:	f383 8811 	msr	BASEPRI, r3
 80058d4:	f3bf 8f6f 	isb	sy
 80058d8:	f3bf 8f4f 	dsb	sy
 80058dc:	e7fe      	b.n	80058dc <xTaskRemoveFromEventList+0x18>
 80058de:	f104 0518 	add.w	r5, r4, #24
 80058e2:	4628      	mov	r0, r5
 80058e4:	f7ff f91f 	bl	8004b26 <uxListRemove>
 80058e8:	4b10      	ldr	r3, [pc, #64]	; (800592c <xTaskRemoveFromEventList+0x68>)
 80058ea:	681b      	ldr	r3, [r3, #0]
 80058ec:	b9db      	cbnz	r3, 8005926 <xTaskRemoveFromEventList+0x62>
 80058ee:	1d25      	adds	r5, r4, #4
 80058f0:	4628      	mov	r0, r5
 80058f2:	f7ff f918 	bl	8004b26 <uxListRemove>
 80058f6:	4a0e      	ldr	r2, [pc, #56]	; (8005930 <xTaskRemoveFromEventList+0x6c>)
 80058f8:	6ae3      	ldr	r3, [r4, #44]	; 0x2c
 80058fa:	6811      	ldr	r1, [r2, #0]
 80058fc:	428b      	cmp	r3, r1
 80058fe:	bf88      	it	hi
 8005900:	6013      	strhi	r3, [r2, #0]
 8005902:	4a0c      	ldr	r2, [pc, #48]	; (8005934 <xTaskRemoveFromEventList+0x70>)
 8005904:	2014      	movs	r0, #20
 8005906:	4629      	mov	r1, r5
 8005908:	fb00 2003 	mla	r0, r0, r3, r2
 800590c:	f7ff f8e8 	bl	8004ae0 <vListInsertEnd>
 8005910:	4b09      	ldr	r3, [pc, #36]	; (8005938 <xTaskRemoveFromEventList+0x74>)
 8005912:	6ae2      	ldr	r2, [r4, #44]	; 0x2c
 8005914:	681b      	ldr	r3, [r3, #0]
 8005916:	6adb      	ldr	r3, [r3, #44]	; 0x2c
 8005918:	429a      	cmp	r2, r3
 800591a:	bf83      	ittte	hi
 800591c:	4b07      	ldrhi	r3, [pc, #28]	; (800593c <xTaskRemoveFromEventList+0x78>)
 800591e:	2001      	movhi	r0, #1
 8005920:	6018      	strhi	r0, [r3, #0]
 8005922:	2000      	movls	r0, #0
 8005924:	bd38      	pop	{r3, r4, r5, pc}
 8005926:	4629      	mov	r1, r5
 8005928:	4805      	ldr	r0, [pc, #20]	; (8005940 <xTaskRemoveFromEventList+0x7c>)
 800592a:	e7ef      	b.n	800590c <xTaskRemoveFromEventList+0x48>
 800592c:	20000c18 	.word	0x20000c18
 8005930:	20000c20 	.word	0x20000c20
 8005934:	200007ac 	.word	0x200007ac
 8005938:	200007a0 	.word	0x200007a0
 800593c:	20000c98 	.word	0x20000c98
 8005940:	20000c54 	.word	0x20000c54

08005944 <vTaskInternalSetTimeOutState>:
 8005944:	4b03      	ldr	r3, [pc, #12]	; (8005954 <vTaskInternalSetTimeOutState+0x10>)
 8005946:	681b      	ldr	r3, [r3, #0]
 8005948:	6003      	str	r3, [r0, #0]
 800594a:	4b03      	ldr	r3, [pc, #12]	; (8005958 <vTaskInternalSetTimeOutState+0x14>)
 800594c:	681b      	ldr	r3, [r3, #0]
 800594e:	6043      	str	r3, [r0, #4]
 8005950:	4770      	bx	lr
 8005952:	bf00      	nop
 8005954:	20000c50 	.word	0x20000c50
 8005958:	20000c94 	.word	0x20000c94

0800595c <xTaskCheckForTimeOut>:
 800595c:	b5f8      	push	{r3, r4, r5, r6, r7, lr}
 800595e:	460c      	mov	r4, r1
 8005960:	4605      	mov	r5, r0
 8005962:	b940      	cbnz	r0, 8005976 <xTaskCheckForTimeOut+0x1a>
 8005964:	f04f 0350 	mov.w	r3, #80	; 0x50
 8005968:	f383 8811 	msr	BASEPRI, r3
 800596c:	f3bf 8f6f 	isb	sy
 8005970:	f3bf 8f4f 	dsb	sy
 8005974:	e7fe      	b.n	8005974 <xTaskCheckForTimeOut+0x18>
 8005976:	b941      	cbnz	r1, 800598a <xTaskCheckForTimeOut+0x2e>
 8005978:	f04f 0350 	mov.w	r3, #80	; 0x50
 800597c:	f383 8811 	msr	BASEPRI, r3
 8005980:	f3bf 8f6f 	isb	sy
 8005984:	f3bf 8f4f 	dsb	sy
 8005988:	e7fe      	b.n	8005988 <xTaskCheckForTimeOut+0x2c>
 800598a:	f000 fae3 	bl	8005f54 <vPortEnterCritical>
 800598e:	4b0f      	ldr	r3, [pc, #60]	; (80059cc <xTaskCheckForTimeOut+0x70>)
 8005990:	6868      	ldr	r0, [r5, #4]
 8005992:	6819      	ldr	r1, [r3, #0]
 8005994:	6823      	ldr	r3, [r4, #0]
 8005996:	1c5e      	adds	r6, r3, #1
 8005998:	eba1 0200 	sub.w	r2, r1, r0
 800599c:	d00d      	beq.n	80059ba <xTaskCheckForTimeOut+0x5e>
 800599e:	4e0c      	ldr	r6, [pc, #48]	; (80059d0 <xTaskCheckForTimeOut+0x74>)
 80059a0:	682f      	ldr	r7, [r5, #0]
 80059a2:	6836      	ldr	r6, [r6, #0]
 80059a4:	42b7      	cmp	r7, r6
 80059a6:	d001      	beq.n	80059ac <xTaskCheckForTimeOut+0x50>
 80059a8:	4288      	cmp	r0, r1
 80059aa:	d90d      	bls.n	80059c8 <xTaskCheckForTimeOut+0x6c>
 80059ac:	4293      	cmp	r3, r2
 80059ae:	d909      	bls.n	80059c4 <xTaskCheckForTimeOut+0x68>
 80059b0:	1a9b      	subs	r3, r3, r2
 80059b2:	6023      	str	r3, [r4, #0]
 80059b4:	4628      	mov	r0, r5
 80059b6:	f7ff ffc5 	bl	8005944 <vTaskInternalSetTimeOutState>
 80059ba:	2400      	movs	r4, #0
 80059bc:	f000 faec 	bl	8005f98 <vPortExitCritical>
 80059c0:	4620      	mov	r0, r4
 80059c2:	bdf8      	pop	{r3, r4, r5, r6, r7, pc}
 80059c4:	2300      	movs	r3, #0
 80059c6:	6023      	str	r3, [r4, #0]
 80059c8:	2401      	movs	r4, #1
 80059ca:	e7f7      	b.n	80059bc <xTaskCheckForTimeOut+0x60>
 80059cc:	20000c94 	.word	0x20000c94
 80059d0:	20000c50 	.word	0x20000c50

080059d4 <vTaskMissedYield>:
 80059d4:	4b01      	ldr	r3, [pc, #4]	; (80059dc <vTaskMissedYield+0x8>)
 80059d6:	2201      	movs	r2, #1
 80059d8:	601a      	str	r2, [r3, #0]
 80059da:	4770      	bx	lr
 80059dc:	20000c98 	.word	0x20000c98

080059e0 <xTaskGetSchedulerState>:
 80059e0:	4b05      	ldr	r3, [pc, #20]	; (80059f8 <xTaskGetSchedulerState+0x18>)
 80059e2:	681b      	ldr	r3, [r3, #0]
 80059e4:	b133      	cbz	r3, 80059f4 <xTaskGetSchedulerState+0x14>
 80059e6:	4b05      	ldr	r3, [pc, #20]	; (80059fc <xTaskGetSchedulerState+0x1c>)
 80059e8:	681b      	ldr	r3, [r3, #0]
 80059ea:	2b00      	cmp	r3, #0
 80059ec:	bf0c      	ite	eq
 80059ee:	2002      	moveq	r0, #2
 80059f0:	2000      	movne	r0, #0
 80059f2:	4770      	bx	lr
 80059f4:	2001      	movs	r0, #1
 80059f6:	4770      	bx	lr
 80059f8:	20000c68 	.word	0x20000c68
 80059fc:	20000c18 	.word	0x20000c18

08005a00 <xTaskPriorityDisinherit>:
 8005a00:	b538      	push	{r3, r4, r5, lr}
 8005a02:	b908      	cbnz	r0, 8005a08 <xTaskPriorityDisinherit+0x8>
 8005a04:	2000      	movs	r0, #0
 8005a06:	bd38      	pop	{r3, r4, r5, pc}
 8005a08:	4b1b      	ldr	r3, [pc, #108]	; (8005a78 <xTaskPriorityDisinherit+0x78>)
 8005a0a:	681c      	ldr	r4, [r3, #0]
 8005a0c:	4284      	cmp	r4, r0
 8005a0e:	d008      	beq.n	8005a22 <xTaskPriorityDisinherit+0x22>
 8005a10:	f04f 0350 	mov.w	r3, #80	; 0x50
 8005a14:	f383 8811 	msr	BASEPRI, r3
 8005a18:	f3bf 8f6f 	isb	sy
 8005a1c:	f3bf 8f4f 	dsb	sy
 8005a20:	e7fe      	b.n	8005a20 <xTaskPriorityDisinherit+0x20>
 8005a22:	6d23      	ldr	r3, [r4, #80]	; 0x50
 8005a24:	b943      	cbnz	r3, 8005a38 <xTaskPriorityDisinherit+0x38>
 8005a26:	f04f 0350 	mov.w	r3, #80	; 0x50
 8005a2a:	f383 8811 	msr	BASEPRI, r3
 8005a2e:	f3bf 8f6f 	isb	sy
 8005a32:	f3bf 8f4f 	dsb	sy
 8005a36:	e7fe      	b.n	8005a36 <xTaskPriorityDisinherit+0x36>
 8005a38:	6ae1      	ldr	r1, [r4, #44]	; 0x2c
 8005a3a:	6ce2      	ldr	r2, [r4, #76]	; 0x4c
 8005a3c:	3b01      	subs	r3, #1
 8005a3e:	4291      	cmp	r1, r2
 8005a40:	6523      	str	r3, [r4, #80]	; 0x50
 8005a42:	d0df      	beq.n	8005a04 <xTaskPriorityDisinherit+0x4>
 8005a44:	2b00      	cmp	r3, #0
 8005a46:	d1dd      	bne.n	8005a04 <xTaskPriorityDisinherit+0x4>
 8005a48:	1d25      	adds	r5, r4, #4
 8005a4a:	4628      	mov	r0, r5
 8005a4c:	f7ff f86b 	bl	8004b26 <uxListRemove>
 8005a50:	6ce3      	ldr	r3, [r4, #76]	; 0x4c
 8005a52:	62e3      	str	r3, [r4, #44]	; 0x2c
 8005a54:	f1c3 0238 	rsb	r2, r3, #56	; 0x38
 8005a58:	61a2      	str	r2, [r4, #24]
 8005a5a:	4a08      	ldr	r2, [pc, #32]	; (8005a7c <xTaskPriorityDisinherit+0x7c>)
 8005a5c:	6811      	ldr	r1, [r2, #0]
 8005a5e:	428b      	cmp	r3, r1
 8005a60:	bf88      	it	hi
 8005a62:	6013      	strhi	r3, [r2, #0]
 8005a64:	4a06      	ldr	r2, [pc, #24]	; (8005a80 <xTaskPriorityDisinherit+0x80>)
 8005a66:	2014      	movs	r0, #20
 8005a68:	fb00 2003 	mla	r0, r0, r3, r2
 8005a6c:	4629      	mov	r1, r5
 8005a6e:	f7ff f837 	bl	8004ae0 <vListInsertEnd>
 8005a72:	2001      	movs	r0, #1
 8005a74:	e7c7      	b.n	8005a06 <xTaskPriorityDisinherit+0x6>
 8005a76:	bf00      	nop
 8005a78:	200007a0 	.word	0x200007a0
 8005a7c:	20000c20 	.word	0x20000c20
 8005a80:	200007ac 	.word	0x200007ac

08005a84 <prvCheckForValidListAndQueue>:
 8005a84:	b5f7      	push	{r0, r1, r2, r4, r5, r6, r7, lr}
 8005a86:	4c11      	ldr	r4, [pc, #68]	; (8005acc <prvCheckForValidListAndQueue+0x48>)
 8005a88:	f000 fa64 	bl	8005f54 <vPortEnterCritical>
 8005a8c:	6825      	ldr	r5, [r4, #0]
 8005a8e:	b9bd      	cbnz	r5, 8005ac0 <prvCheckForValidListAndQueue+0x3c>
 8005a90:	4f0f      	ldr	r7, [pc, #60]	; (8005ad0 <prvCheckForValidListAndQueue+0x4c>)
 8005a92:	4e10      	ldr	r6, [pc, #64]	; (8005ad4 <prvCheckForValidListAndQueue+0x50>)
 8005a94:	4638      	mov	r0, r7
 8005a96:	f7ff f815 	bl	8004ac4 <vListInitialise>
 8005a9a:	4630      	mov	r0, r6
 8005a9c:	f7ff f812 	bl	8004ac4 <vListInitialise>
 8005aa0:	4b0d      	ldr	r3, [pc, #52]	; (8005ad8 <prvCheckForValidListAndQueue+0x54>)
 8005aa2:	4a0e      	ldr	r2, [pc, #56]	; (8005adc <prvCheckForValidListAndQueue+0x58>)
 8005aa4:	601f      	str	r7, [r3, #0]
 8005aa6:	4b0e      	ldr	r3, [pc, #56]	; (8005ae0 <prvCheckForValidListAndQueue+0x5c>)
 8005aa8:	2110      	movs	r1, #16
 8005aaa:	601e      	str	r6, [r3, #0]
 8005aac:	200a      	movs	r0, #10
 8005aae:	9500      	str	r5, [sp, #0]
 8005ab0:	4b0c      	ldr	r3, [pc, #48]	; (8005ae4 <prvCheckForValidListAndQueue+0x60>)
 8005ab2:	f7ff f915 	bl	8004ce0 <xQueueGenericCreateStatic>
 8005ab6:	6020      	str	r0, [r4, #0]
 8005ab8:	b110      	cbz	r0, 8005ac0 <prvCheckForValidListAndQueue+0x3c>
 8005aba:	490b      	ldr	r1, [pc, #44]	; (8005ae8 <prvCheckForValidListAndQueue+0x64>)
 8005abc:	f7ff fb12 	bl	80050e4 <vQueueAddToRegistry>
 8005ac0:	b003      	add	sp, #12
 8005ac2:	e8bd 40f0 	ldmia.w	sp!, {r4, r5, r6, r7, lr}
 8005ac6:	f000 ba67 	b.w	8005f98 <vPortExitCritical>
 8005aca:	bf00      	nop
 8005acc:	20000dc0 	.word	0x20000dc0
 8005ad0:	20000d44 	.word	0x20000d44
 8005ad4:	20000d58 	.word	0x20000d58
 8005ad8:	20000c9c 	.word	0x20000c9c
 8005adc:	20000ca4 	.word	0x20000ca4
 8005ae0:	20000ca0 	.word	0x20000ca0
 8005ae4:	20000d70 	.word	0x20000d70
 8005ae8:	08006745 	.word	0x08006745

08005aec <prvInsertTimerInActiveList>:
 8005aec:	4291      	cmp	r1, r2
 8005aee:	b508      	push	{r3, lr}
 8005af0:	6041      	str	r1, [r0, #4]
 8005af2:	6100      	str	r0, [r0, #16]
 8005af4:	d80a      	bhi.n	8005b0c <prvInsertTimerInActiveList+0x20>
 8005af6:	1ad2      	subs	r2, r2, r3
 8005af8:	6983      	ldr	r3, [r0, #24]
 8005afa:	429a      	cmp	r2, r3
 8005afc:	d20d      	bcs.n	8005b1a <prvInsertTimerInActiveList+0x2e>
 8005afe:	4b08      	ldr	r3, [pc, #32]	; (8005b20 <prvInsertTimerInActiveList+0x34>)
 8005b00:	1d01      	adds	r1, r0, #4
 8005b02:	6818      	ldr	r0, [r3, #0]
 8005b04:	f7fe fff8 	bl	8004af8 <vListInsert>
 8005b08:	2000      	movs	r0, #0
 8005b0a:	bd08      	pop	{r3, pc}
 8005b0c:	429a      	cmp	r2, r3
 8005b0e:	d201      	bcs.n	8005b14 <prvInsertTimerInActiveList+0x28>
 8005b10:	4299      	cmp	r1, r3
 8005b12:	d202      	bcs.n	8005b1a <prvInsertTimerInActiveList+0x2e>
 8005b14:	1d01      	adds	r1, r0, #4
 8005b16:	4b03      	ldr	r3, [pc, #12]	; (8005b24 <prvInsertTimerInActiveList+0x38>)
 8005b18:	e7f3      	b.n	8005b02 <prvInsertTimerInActiveList+0x16>
 8005b1a:	2001      	movs	r0, #1
 8005b1c:	e7f5      	b.n	8005b0a <prvInsertTimerInActiveList+0x1e>
 8005b1e:	bf00      	nop
 8005b20:	20000ca0 	.word	0x20000ca0
 8005b24:	20000c9c 	.word	0x20000c9c

08005b28 <xTimerCreateTimerTask>:
 8005b28:	b510      	push	{r4, lr}
 8005b2a:	b088      	sub	sp, #32
 8005b2c:	f7ff ffaa 	bl	8005a84 <prvCheckForValidListAndQueue>
 8005b30:	4b12      	ldr	r3, [pc, #72]	; (8005b7c <xTimerCreateTimerTask+0x54>)
 8005b32:	681b      	ldr	r3, [r3, #0]
 8005b34:	b1b3      	cbz	r3, 8005b64 <xTimerCreateTimerTask+0x3c>
 8005b36:	2400      	movs	r4, #0
 8005b38:	aa07      	add	r2, sp, #28
 8005b3a:	a906      	add	r1, sp, #24
 8005b3c:	a805      	add	r0, sp, #20
 8005b3e:	e9cd 4405 	strd	r4, r4, [sp, #20]
 8005b42:	f7fe ffb3 	bl	8004aac <vApplicationGetTimerTaskMemory>
 8005b46:	9b05      	ldr	r3, [sp, #20]
 8005b48:	9302      	str	r3, [sp, #8]
 8005b4a:	9b06      	ldr	r3, [sp, #24]
 8005b4c:	9301      	str	r3, [sp, #4]
 8005b4e:	2302      	movs	r3, #2
 8005b50:	9300      	str	r3, [sp, #0]
 8005b52:	9a07      	ldr	r2, [sp, #28]
 8005b54:	490a      	ldr	r1, [pc, #40]	; (8005b80 <xTimerCreateTimerTask+0x58>)
 8005b56:	480b      	ldr	r0, [pc, #44]	; (8005b84 <xTimerCreateTimerTask+0x5c>)
 8005b58:	4623      	mov	r3, r4
 8005b5a:	f7ff fc5f 	bl	800541c <xTaskCreateStatic>
 8005b5e:	4b0a      	ldr	r3, [pc, #40]	; (8005b88 <xTimerCreateTimerTask+0x60>)
 8005b60:	6018      	str	r0, [r3, #0]
 8005b62:	b940      	cbnz	r0, 8005b76 <xTimerCreateTimerTask+0x4e>
 8005b64:	f04f 0350 	mov.w	r3, #80	; 0x50
 8005b68:	f383 8811 	msr	BASEPRI, r3
 8005b6c:	f3bf 8f6f 	isb	sy
 8005b70:	f3bf 8f4f 	dsb	sy
 8005b74:	e7fe      	b.n	8005b74 <xTimerCreateTimerTask+0x4c>
 8005b76:	2001      	movs	r0, #1
 8005b78:	b008      	add	sp, #32
 8005b7a:	bd10      	pop	{r4, pc}
 8005b7c:	20000dc0 	.word	0x20000dc0
 8005b80:	0800674a 	.word	0x0800674a
 8005b84:	08005c65 	.word	0x08005c65
 8005b88:	20000dc4 	.word	0x20000dc4

08005b8c <xTimerGenericCommand>:
 8005b8c:	b530      	push	{r4, r5, lr}
 8005b8e:	4615      	mov	r5, r2
 8005b90:	b085      	sub	sp, #20
 8005b92:	461a      	mov	r2, r3
 8005b94:	4603      	mov	r3, r0
 8005b96:	b940      	cbnz	r0, 8005baa <xTimerGenericCommand+0x1e>
 8005b98:	f04f 0350 	mov.w	r3, #80	; 0x50
 8005b9c:	f383 8811 	msr	BASEPRI, r3
 8005ba0:	f3bf 8f6f 	isb	sy
 8005ba4:	f3bf 8f4f 	dsb	sy
 8005ba8:	e7fe      	b.n	8005ba8 <xTimerGenericCommand+0x1c>
 8005baa:	4c0d      	ldr	r4, [pc, #52]	; (8005be0 <xTimerGenericCommand+0x54>)
 8005bac:	6820      	ldr	r0, [r4, #0]
 8005bae:	b180      	cbz	r0, 8005bd2 <xTimerGenericCommand+0x46>
 8005bb0:	2905      	cmp	r1, #5
 8005bb2:	e9cd 1500 	strd	r1, r5, [sp]
 8005bb6:	9302      	str	r3, [sp, #8]
 8005bb8:	dc0d      	bgt.n	8005bd6 <xTimerGenericCommand+0x4a>
 8005bba:	f7ff ff11 	bl	80059e0 <xTaskGetSchedulerState>
 8005bbe:	2300      	movs	r3, #0
 8005bc0:	2802      	cmp	r0, #2
 8005bc2:	bf08      	it	eq
 8005bc4:	9a08      	ldreq	r2, [sp, #32]
 8005bc6:	6820      	ldr	r0, [r4, #0]
 8005bc8:	bf18      	it	ne
 8005bca:	461a      	movne	r2, r3
 8005bcc:	4669      	mov	r1, sp
 8005bce:	f7ff f8d5 	bl	8004d7c <xQueueGenericSend>
 8005bd2:	b005      	add	sp, #20
 8005bd4:	bd30      	pop	{r4, r5, pc}
 8005bd6:	2300      	movs	r3, #0
 8005bd8:	4669      	mov	r1, sp
 8005bda:	f7ff f981 	bl	8004ee0 <xQueueGenericSendFromISR>
 8005bde:	e7f8      	b.n	8005bd2 <xTimerGenericCommand+0x46>
 8005be0:	20000dc0 	.word	0x20000dc0

08005be4 <prvSwitchTimerLists>:
 8005be4:	e92d 41f3 	stmdb	sp!, {r0, r1, r4, r5, r6, r7, r8, lr}
 8005be8:	4d1c      	ldr	r5, [pc, #112]	; (8005c5c <prvSwitchTimerLists+0x78>)
 8005bea:	f04f 0800 	mov.w	r8, #0
 8005bee:	682b      	ldr	r3, [r5, #0]
 8005bf0:	681a      	ldr	r2, [r3, #0]
 8005bf2:	b932      	cbnz	r2, 8005c02 <prvSwitchTimerLists+0x1e>
 8005bf4:	4a1a      	ldr	r2, [pc, #104]	; (8005c60 <prvSwitchTimerLists+0x7c>)
 8005bf6:	6811      	ldr	r1, [r2, #0]
 8005bf8:	6029      	str	r1, [r5, #0]
 8005bfa:	6013      	str	r3, [r2, #0]
 8005bfc:	b002      	add	sp, #8
 8005bfe:	e8bd 81f0 	ldmia.w	sp!, {r4, r5, r6, r7, r8, pc}
 8005c02:	68db      	ldr	r3, [r3, #12]
 8005c04:	68dc      	ldr	r4, [r3, #12]
 8005c06:	681e      	ldr	r6, [r3, #0]
 8005c08:	1d27      	adds	r7, r4, #4
 8005c0a:	4638      	mov	r0, r7
 8005c0c:	f7fe ff8b 	bl	8004b26 <uxListRemove>
 8005c10:	6a23      	ldr	r3, [r4, #32]
 8005c12:	4620      	mov	r0, r4
 8005c14:	4798      	blx	r3
 8005c16:	f894 3028 	ldrb.w	r3, [r4, #40]	; 0x28
 8005c1a:	075b      	lsls	r3, r3, #29
 8005c1c:	d5e7      	bpl.n	8005bee <prvSwitchTimerLists+0xa>
 8005c1e:	69a3      	ldr	r3, [r4, #24]
 8005c20:	4433      	add	r3, r6
 8005c22:	429e      	cmp	r6, r3
 8005c24:	d206      	bcs.n	8005c34 <prvSwitchTimerLists+0x50>
 8005c26:	6063      	str	r3, [r4, #4]
 8005c28:	6124      	str	r4, [r4, #16]
 8005c2a:	4639      	mov	r1, r7
 8005c2c:	6828      	ldr	r0, [r5, #0]
 8005c2e:	f7fe ff63 	bl	8004af8 <vListInsert>
 8005c32:	e7dc      	b.n	8005bee <prvSwitchTimerLists+0xa>
 8005c34:	2300      	movs	r3, #0
 8005c36:	f8cd 8000 	str.w	r8, [sp]
 8005c3a:	4632      	mov	r2, r6
 8005c3c:	4619      	mov	r1, r3
 8005c3e:	4620      	mov	r0, r4
 8005c40:	f7ff ffa4 	bl	8005b8c <xTimerGenericCommand>
 8005c44:	2800      	cmp	r0, #0
 8005c46:	d1d2      	bne.n	8005bee <prvSwitchTimerLists+0xa>
 8005c48:	f04f 0350 	mov.w	r3, #80	; 0x50
 8005c4c:	f383 8811 	msr	BASEPRI, r3
 8005c50:	f3bf 8f6f 	isb	sy
 8005c54:	f3bf 8f4f 	dsb	sy
 8005c58:	e7fe      	b.n	8005c58 <prvSwitchTimerLists+0x74>
 8005c5a:	bf00      	nop
 8005c5c:	20000c9c 	.word	0x20000c9c
 8005c60:	20000ca0 	.word	0x20000ca0

08005c64 <prvTimerTask>:
 8005c64:	e92d 4ff0 	stmdb	sp!, {r4, r5, r6, r7, r8, r9, sl, fp, lr}
 8005c68:	4d81      	ldr	r5, [pc, #516]	; (8005e70 <prvTimerTask+0x20c>)
 8005c6a:	f8df 8210 	ldr.w	r8, [pc, #528]	; 8005e7c <prvTimerTask+0x218>
 8005c6e:	b087      	sub	sp, #28
 8005c70:	462f      	mov	r7, r5
 8005c72:	682a      	ldr	r2, [r5, #0]
 8005c74:	6813      	ldr	r3, [r2, #0]
 8005c76:	b353      	cbz	r3, 8005cce <prvTimerTask+0x6a>
 8005c78:	68d3      	ldr	r3, [r2, #12]
 8005c7a:	f8d3 9000 	ldr.w	r9, [r3]
 8005c7e:	2400      	movs	r4, #0
 8005c80:	f8df b1fc 	ldr.w	fp, [pc, #508]	; 8005e80 <prvTimerTask+0x21c>
 8005c84:	f7ff fc74 	bl	8005570 <vTaskSuspendAll>
 8005c88:	f7ff fc7a 	bl	8005580 <xTaskGetTickCount>
 8005c8c:	f8db 3000 	ldr.w	r3, [fp]
 8005c90:	4298      	cmp	r0, r3
 8005c92:	4682      	mov	sl, r0
 8005c94:	465e      	mov	r6, fp
 8005c96:	d31d      	bcc.n	8005cd4 <prvTimerTask+0x70>
 8005c98:	f8cb 0000 	str.w	r0, [fp]
 8005c9c:	b32c      	cbz	r4, 8005cea <prvTimerTask+0x86>
 8005c9e:	4b75      	ldr	r3, [pc, #468]	; (8005e74 <prvTimerTask+0x210>)
 8005ca0:	681b      	ldr	r3, [r3, #0]
 8005ca2:	681a      	ldr	r2, [r3, #0]
 8005ca4:	fab2 f282 	clz	r2, r2
 8005ca8:	0952      	lsrs	r2, r2, #5
 8005caa:	4b73      	ldr	r3, [pc, #460]	; (8005e78 <prvTimerTask+0x214>)
 8005cac:	eba9 010a 	sub.w	r1, r9, sl
 8005cb0:	6818      	ldr	r0, [r3, #0]
 8005cb2:	f7ff fa29 	bl	8005108 <vQueueWaitForMessageRestricted>
 8005cb6:	f7ff fcf9 	bl	80056ac <xTaskResumeAll>
 8005cba:	b988      	cbnz	r0, 8005ce0 <prvTimerTask+0x7c>
 8005cbc:	f04f 5380 	mov.w	r3, #268435456	; 0x10000000
 8005cc0:	f8c8 3000 	str.w	r3, [r8]
 8005cc4:	f3bf 8f4f 	dsb	sy
 8005cc8:	f3bf 8f6f 	isb	sy
 8005ccc:	e008      	b.n	8005ce0 <prvTimerTask+0x7c>
 8005cce:	2401      	movs	r4, #1
 8005cd0:	4699      	mov	r9, r3
 8005cd2:	e7d5      	b.n	8005c80 <prvTimerTask+0x1c>
 8005cd4:	f7ff ff86 	bl	8005be4 <prvSwitchTimerLists>
 8005cd8:	f8cb a000 	str.w	sl, [fp]
 8005cdc:	f7ff fce6 	bl	80056ac <xTaskResumeAll>
 8005ce0:	f8df 9194 	ldr.w	r9, [pc, #404]	; 8005e78 <prvTimerTask+0x214>
 8005ce4:	f04f 0a00 	mov.w	sl, #0
 8005ce8:	e07d      	b.n	8005de6 <prvTimerTask+0x182>
 8005cea:	4581      	cmp	r9, r0
 8005cec:	d830      	bhi.n	8005d50 <prvTimerTask+0xec>
 8005cee:	f7ff fcdd 	bl	80056ac <xTaskResumeAll>
 8005cf2:	683b      	ldr	r3, [r7, #0]
 8005cf4:	68db      	ldr	r3, [r3, #12]
 8005cf6:	f8d3 b00c 	ldr.w	fp, [r3, #12]
 8005cfa:	f10b 0004 	add.w	r0, fp, #4
 8005cfe:	f7fe ff12 	bl	8004b26 <uxListRemove>
 8005d02:	f89b 3028 	ldrb.w	r3, [fp, #40]	; 0x28
 8005d06:	0758      	lsls	r0, r3, #29
 8005d08:	d519      	bpl.n	8005d3e <prvTimerTask+0xda>
 8005d0a:	f8db 1018 	ldr.w	r1, [fp, #24]
 8005d0e:	464b      	mov	r3, r9
 8005d10:	4652      	mov	r2, sl
 8005d12:	4449      	add	r1, r9
 8005d14:	4658      	mov	r0, fp
 8005d16:	f7ff fee9 	bl	8005aec <prvInsertTimerInActiveList>
 8005d1a:	b1a0      	cbz	r0, 8005d46 <prvTimerTask+0xe2>
 8005d1c:	9400      	str	r4, [sp, #0]
 8005d1e:	4623      	mov	r3, r4
 8005d20:	464a      	mov	r2, r9
 8005d22:	4621      	mov	r1, r4
 8005d24:	4658      	mov	r0, fp
 8005d26:	f7ff ff31 	bl	8005b8c <xTimerGenericCommand>
 8005d2a:	b960      	cbnz	r0, 8005d46 <prvTimerTask+0xe2>
 8005d2c:	f04f 0350 	mov.w	r3, #80	; 0x50
 8005d30:	f383 8811 	msr	BASEPRI, r3
 8005d34:	f3bf 8f6f 	isb	sy
 8005d38:	f3bf 8f4f 	dsb	sy
 8005d3c:	e7fe      	b.n	8005d3c <prvTimerTask+0xd8>
 8005d3e:	f023 0301 	bic.w	r3, r3, #1
 8005d42:	f88b 3028 	strb.w	r3, [fp, #40]	; 0x28
 8005d46:	f8db 3020 	ldr.w	r3, [fp, #32]
 8005d4a:	4658      	mov	r0, fp
 8005d4c:	4798      	blx	r3
 8005d4e:	e7c7      	b.n	8005ce0 <prvTimerTask+0x7c>
 8005d50:	4622      	mov	r2, r4
 8005d52:	e7aa      	b.n	8005caa <prvTimerTask+0x46>
 8005d54:	f894 3028 	ldrb.w	r3, [r4, #40]	; 0x28
 8005d58:	69a1      	ldr	r1, [r4, #24]
 8005d5a:	f043 0301 	orr.w	r3, r3, #1
 8005d5e:	f884 3028 	strb.w	r3, [r4, #40]	; 0x28
 8005d62:	9b03      	ldr	r3, [sp, #12]
 8005d64:	465a      	mov	r2, fp
 8005d66:	4419      	add	r1, r3
 8005d68:	4620      	mov	r0, r4
 8005d6a:	f7ff febf 	bl	8005aec <prvInsertTimerInActiveList>
 8005d6e:	2800      	cmp	r0, #0
 8005d70:	d039      	beq.n	8005de6 <prvTimerTask+0x182>
 8005d72:	6a23      	ldr	r3, [r4, #32]
 8005d74:	4620      	mov	r0, r4
 8005d76:	4798      	blx	r3
 8005d78:	f894 3028 	ldrb.w	r3, [r4, #40]	; 0x28
 8005d7c:	0759      	lsls	r1, r3, #29
 8005d7e:	d532      	bpl.n	8005de6 <prvTimerTask+0x182>
 8005d80:	69a2      	ldr	r2, [r4, #24]
 8005d82:	9903      	ldr	r1, [sp, #12]
 8005d84:	f8cd a000 	str.w	sl, [sp]
 8005d88:	2300      	movs	r3, #0
 8005d8a:	440a      	add	r2, r1
 8005d8c:	4620      	mov	r0, r4
 8005d8e:	4619      	mov	r1, r3
 8005d90:	f7ff fefc 	bl	8005b8c <xTimerGenericCommand>
 8005d94:	bb38      	cbnz	r0, 8005de6 <prvTimerTask+0x182>
 8005d96:	f04f 0350 	mov.w	r3, #80	; 0x50
 8005d9a:	f383 8811 	msr	BASEPRI, r3
 8005d9e:	f3bf 8f6f 	isb	sy
 8005da2:	f3bf 8f4f 	dsb	sy
 8005da6:	e7fe      	b.n	8005da6 <prvTimerTask+0x142>
 8005da8:	f894 3028 	ldrb.w	r3, [r4, #40]	; 0x28
 8005dac:	f023 0301 	bic.w	r3, r3, #1
 8005db0:	f884 3028 	strb.w	r3, [r4, #40]	; 0x28
 8005db4:	e017      	b.n	8005de6 <prvTimerTask+0x182>
 8005db6:	f894 3028 	ldrb.w	r3, [r4, #40]	; 0x28
 8005dba:	9903      	ldr	r1, [sp, #12]
 8005dbc:	61a1      	str	r1, [r4, #24]
 8005dbe:	f043 0301 	orr.w	r3, r3, #1
 8005dc2:	f884 3028 	strb.w	r3, [r4, #40]	; 0x28
 8005dc6:	b941      	cbnz	r1, 8005dda <prvTimerTask+0x176>
 8005dc8:	f04f 0350 	mov.w	r3, #80	; 0x50
 8005dcc:	f383 8811 	msr	BASEPRI, r3
 8005dd0:	f3bf 8f6f 	isb	sy
 8005dd4:	f3bf 8f4f 	dsb	sy
 8005dd8:	e7fe      	b.n	8005dd8 <prvTimerTask+0x174>
 8005dda:	465b      	mov	r3, fp
 8005ddc:	465a      	mov	r2, fp
 8005dde:	4459      	add	r1, fp
 8005de0:	4620      	mov	r0, r4
 8005de2:	f7ff fe83 	bl	8005aec <prvInsertTimerInActiveList>
 8005de6:	2200      	movs	r2, #0
 8005de8:	a902      	add	r1, sp, #8
 8005dea:	f8d9 0000 	ldr.w	r0, [r9]
 8005dee:	f7ff f8d9 	bl	8004fa4 <xQueueReceive>
 8005df2:	2800      	cmp	r0, #0
 8005df4:	f43f af3d 	beq.w	8005c72 <prvTimerTask+0xe>
 8005df8:	9b02      	ldr	r3, [sp, #8]
 8005dfa:	2b00      	cmp	r3, #0
 8005dfc:	da03      	bge.n	8005e06 <prvTimerTask+0x1a2>
 8005dfe:	e9dd 0104 	ldrd	r0, r1, [sp, #16]
 8005e02:	9b03      	ldr	r3, [sp, #12]
 8005e04:	4798      	blx	r3
 8005e06:	9b02      	ldr	r3, [sp, #8]
 8005e08:	2b00      	cmp	r3, #0
 8005e0a:	dbec      	blt.n	8005de6 <prvTimerTask+0x182>
 8005e0c:	9c04      	ldr	r4, [sp, #16]
 8005e0e:	6963      	ldr	r3, [r4, #20]
 8005e10:	b113      	cbz	r3, 8005e18 <prvTimerTask+0x1b4>
 8005e12:	1d20      	adds	r0, r4, #4
 8005e14:	f7fe fe87 	bl	8004b26 <uxListRemove>
 8005e18:	f7ff fbb2 	bl	8005580 <xTaskGetTickCount>
 8005e1c:	6833      	ldr	r3, [r6, #0]
 8005e1e:	4298      	cmp	r0, r3
 8005e20:	4683      	mov	fp, r0
 8005e22:	d201      	bcs.n	8005e28 <prvTimerTask+0x1c4>
 8005e24:	f7ff fede 	bl	8005be4 <prvSwitchTimerLists>
 8005e28:	9b02      	ldr	r3, [sp, #8]
 8005e2a:	f8c6 b000 	str.w	fp, [r6]
 8005e2e:	2b09      	cmp	r3, #9
 8005e30:	d8d9      	bhi.n	8005de6 <prvTimerTask+0x182>
 8005e32:	a201      	add	r2, pc, #4	; (adr r2, 8005e38 <prvTimerTask+0x1d4>)
 8005e34:	f852 f023 	ldr.w	pc, [r2, r3, lsl #2]
 8005e38:	08005d55 	.word	0x08005d55
 8005e3c:	08005d55 	.word	0x08005d55
 8005e40:	08005d55 	.word	0x08005d55
 8005e44:	08005da9 	.word	0x08005da9
 8005e48:	08005db7 	.word	0x08005db7
 8005e4c:	08005e61 	.word	0x08005e61
 8005e50:	08005d55 	.word	0x08005d55
 8005e54:	08005d55 	.word	0x08005d55
 8005e58:	08005da9 	.word	0x08005da9
 8005e5c:	08005db7 	.word	0x08005db7
 8005e60:	f894 3028 	ldrb.w	r3, [r4, #40]	; 0x28
 8005e64:	079a      	lsls	r2, r3, #30
 8005e66:	d4a1      	bmi.n	8005dac <prvTimerTask+0x148>
 8005e68:	4620      	mov	r0, r4
 8005e6a:	f000 fa6f 	bl	800634c <vPortFree>
 8005e6e:	e7ba      	b.n	8005de6 <prvTimerTask+0x182>
 8005e70:	20000c9c 	.word	0x20000c9c
 8005e74:	20000ca0 	.word	0x20000ca0
 8005e78:	20000dc0 	.word	0x20000dc0
 8005e7c:	e000ed04 	.word	0xe000ed04
 8005e80:	20000d6c 	.word	0x20000d6c

08005e84 <prvTaskExitError>:
 8005e84:	b082      	sub	sp, #8
 8005e86:	2300      	movs	r3, #0
 8005e88:	9301      	str	r3, [sp, #4]
 8005e8a:	4b0d      	ldr	r3, [pc, #52]	; (8005ec0 <prvTaskExitError+0x3c>)
 8005e8c:	681b      	ldr	r3, [r3, #0]
 8005e8e:	3301      	adds	r3, #1
 8005e90:	d008      	beq.n	8005ea4 <prvTaskExitError+0x20>
 8005e92:	f04f 0350 	mov.w	r3, #80	; 0x50
 8005e96:	f383 8811 	msr	BASEPRI, r3
 8005e9a:	f3bf 8f6f 	isb	sy
 8005e9e:	f3bf 8f4f 	dsb	sy
 8005ea2:	e7fe      	b.n	8005ea2 <prvTaskExitError+0x1e>
 8005ea4:	f04f 0350 	mov.w	r3, #80	; 0x50
 8005ea8:	f383 8811 	msr	BASEPRI, r3
 8005eac:	f3bf 8f6f 	isb	sy
 8005eb0:	f3bf 8f4f 	dsb	sy
 8005eb4:	9b01      	ldr	r3, [sp, #4]
 8005eb6:	2b00      	cmp	r3, #0
 8005eb8:	d0fc      	beq.n	8005eb4 <prvTaskExitError+0x30>
 8005eba:	b002      	add	sp, #8
 8005ebc:	4770      	bx	lr
 8005ebe:	bf00      	nop
 8005ec0:	200000b0 	.word	0x200000b0

08005ec4 <prvPortStartFirstTask>:
 8005ec4:	4808      	ldr	r0, [pc, #32]	; (8005ee8 <prvPortStartFirstTask+0x24>)
 8005ec6:	6800      	ldr	r0, [r0, #0]
 8005ec8:	6800      	ldr	r0, [r0, #0]
 8005eca:	f380 8808 	msr	MSP, r0
 8005ece:	f04f 0000 	mov.w	r0, #0
 8005ed2:	f380 8814 	msr	CONTROL, r0
 8005ed6:	b662      	cpsie	i
 8005ed8:	b661      	cpsie	f
 8005eda:	f3bf 8f4f 	dsb	sy
 8005ede:	f3bf 8f6f 	isb	sy
 8005ee2:	df00      	svc	0
 8005ee4:	bf00      	nop
 8005ee6:	0000      	.short	0x0000
 8005ee8:	e000ed08 	.word	0xe000ed08

08005eec <vPortEnableVFP>:
 8005eec:	f8df 000c 	ldr.w	r0, [pc, #12]	; 8005efc <vPortEnableVFP+0x10>
 8005ef0:	6801      	ldr	r1, [r0, #0]
 8005ef2:	f441 0170 	orr.w	r1, r1, #15728640	; 0xf00000
 8005ef6:	6001      	str	r1, [r0, #0]
 8005ef8:	4770      	bx	lr
 8005efa:	0000      	.short	0x0000
 8005efc:	e000ed88 	.word	0xe000ed88

08005f00 <pxPortInitialiseStack>:
 8005f00:	f04f 7380 	mov.w	r3, #16777216	; 0x1000000
 8005f04:	f840 3c04 	str.w	r3, [r0, #-4]
 8005f08:	4b07      	ldr	r3, [pc, #28]	; (8005f28 <pxPortInitialiseStack+0x28>)
 8005f0a:	f840 3c0c 	str.w	r3, [r0, #-12]
 8005f0e:	f021 0101 	bic.w	r1, r1, #1
 8005f12:	f06f 0302 	mvn.w	r3, #2
 8005f16:	f840 1c08 	str.w	r1, [r0, #-8]
 8005f1a:	f840 2c20 	str.w	r2, [r0, #-32]
 8005f1e:	f840 3c24 	str.w	r3, [r0, #-36]
 8005f22:	3844      	subs	r0, #68	; 0x44
 8005f24:	4770      	bx	lr
 8005f26:	bf00      	nop
 8005f28:	08005e85 	.word	0x08005e85
 8005f2c:	00000000 	.word	0x00000000

08005f30 <SVC_Handler>:
 8005f30:	4b07      	ldr	r3, [pc, #28]	; (8005f50 <pxCurrentTCBConst2>)
 8005f32:	6819      	ldr	r1, [r3, #0]
 8005f34:	6808      	ldr	r0, [r1, #0]
 8005f36:	e8b0 4ff0 	ldmia.w	r0!, {r4, r5, r6, r7, r8, r9, sl, fp, lr}
 8005f3a:	f380 8809 	msr	PSP, r0
 8005f3e:	f3bf 8f6f 	isb	sy
 8005f42:	f04f 0000 	mov.w	r0, #0
 8005f46:	f380 8811 	msr	BASEPRI, r0
 8005f4a:	4770      	bx	lr
 8005f4c:	f3af 8000 	nop.w

08005f50 <pxCurrentTCBConst2>:
 8005f50:	200007a0 	.word	0x200007a0

08005f54 <vPortEnterCritical>:
 8005f54:	f04f 0350 	mov.w	r3, #80	; 0x50
 8005f58:	f383 8811 	msr	BASEPRI, r3
 8005f5c:	f3bf 8f6f 	isb	sy
 8005f60:	f3bf 8f4f 	dsb	sy
 8005f64:	4a0a      	ldr	r2, [pc, #40]	; (8005f90 <vPortEnterCritical+0x3c>)
 8005f66:	6813      	ldr	r3, [r2, #0]
 8005f68:	3301      	adds	r3, #1
 8005f6a:	2b01      	cmp	r3, #1
 8005f6c:	6013      	str	r3, [r2, #0]
 8005f6e:	d10d      	bne.n	8005f8c <vPortEnterCritical+0x38>
 8005f70:	4b08      	ldr	r3, [pc, #32]	; (8005f94 <vPortEnterCritical+0x40>)
 8005f72:	681b      	ldr	r3, [r3, #0]
 8005f74:	f013 0fff 	tst.w	r3, #255	; 0xff
 8005f78:	d008      	beq.n	8005f8c <vPortEnterCritical+0x38>
 8005f7a:	f04f 0350 	mov.w	r3, #80	; 0x50
 8005f7e:	f383 8811 	msr	BASEPRI, r3
 8005f82:	f3bf 8f6f 	isb	sy
 8005f86:	f3bf 8f4f 	dsb	sy
 8005f8a:	e7fe      	b.n	8005f8a <vPortEnterCritical+0x36>
 8005f8c:	4770      	bx	lr
 8005f8e:	bf00      	nop
 8005f90:	200000b0 	.word	0x200000b0
 8005f94:	e000ed04 	.word	0xe000ed04

08005f98 <vPortExitCritical>:
 8005f98:	4a08      	ldr	r2, [pc, #32]	; (8005fbc <vPortExitCritical+0x24>)
 8005f9a:	6813      	ldr	r3, [r2, #0]
 8005f9c:	b943      	cbnz	r3, 8005fb0 <vPortExitCritical+0x18>
 8005f9e:	f04f 0350 	mov.w	r3, #80	; 0x50
 8005fa2:	f383 8811 	msr	BASEPRI, r3
 8005fa6:	f3bf 8f6f 	isb	sy
 8005faa:	f3bf 8f4f 	dsb	sy
 8005fae:	e7fe      	b.n	8005fae <vPortExitCritical+0x16>
 8005fb0:	3b01      	subs	r3, #1
 8005fb2:	6013      	str	r3, [r2, #0]
 8005fb4:	b90b      	cbnz	r3, 8005fba <vPortExitCritical+0x22>
 8005fb6:	f383 8811 	msr	BASEPRI, r3
 8005fba:	4770      	bx	lr
 8005fbc:	200000b0 	.word	0x200000b0

08005fc0 <PendSV_Handler>:
 8005fc0:	f3ef 8009 	mrs	r0, PSP
 8005fc4:	f3bf 8f6f 	isb	sy
 8005fc8:	4b15      	ldr	r3, [pc, #84]	; (8006020 <pxCurrentTCBConst>)
 8005fca:	681a      	ldr	r2, [r3, #0]
 8005fcc:	f01e 0f10 	tst.w	lr, #16
 8005fd0:	bf08      	it	eq
 8005fd2:	ed20 8a10 	vstmdbeq	r0!, {s16-s31}
 8005fd6:	e920 4ff0 	stmdb	r0!, {r4, r5, r6, r7, r8, r9, sl, fp, lr}
 8005fda:	6010      	str	r0, [r2, #0]
 8005fdc:	e92d 0009 	stmdb	sp!, {r0, r3}
 8005fe0:	f04f 0050 	mov.w	r0, #80	; 0x50
 8005fe4:	f380 8811 	msr	BASEPRI, r0
 8005fe8:	f3bf 8f4f 	dsb	sy
 8005fec:	f3bf 8f6f 	isb	sy
 8005ff0:	f7ff fbf4 	bl	80057dc <vTaskSwitchContext>
 8005ff4:	f04f 0000 	mov.w	r0, #0
 8005ff8:	f380 8811 	msr	BASEPRI, r0
 8005ffc:	bc09      	pop	{r0, r3}
 8005ffe:	6819      	ldr	r1, [r3, #0]
 8006000:	6808      	ldr	r0, [r1, #0]
 8006002:	e8b0 4ff0 	ldmia.w	r0!, {r4, r5, r6, r7, r8, r9, sl, fp, lr}
 8006006:	f01e 0f10 	tst.w	lr, #16
 800600a:	bf08      	it	eq
 800600c:	ecb0 8a10 	vldmiaeq	r0!, {s16-s31}
 8006010:	f380 8809 	msr	PSP, r0
 8006014:	f3bf 8f6f 	isb	sy
 8006018:	4770      	bx	lr
 800601a:	bf00      	nop
 800601c:	f3af 8000 	nop.w

08006020 <pxCurrentTCBConst>:
 8006020:	200007a0 	.word	0x200007a0

08006024 <xPortSysTickHandler>:
 8006024:	b508      	push	{r3, lr}
 8006026:	f04f 0350 	mov.w	r3, #80	; 0x50
 800602a:	f383 8811 	msr	BASEPRI, r3
 800602e:	f3bf 8f6f 	isb	sy
 8006032:	f3bf 8f4f 	dsb	sy
 8006036:	f7ff faa9 	bl	800558c <xTaskIncrementTick>
 800603a:	b118      	cbz	r0, 8006044 <xPortSysTickHandler+0x20>
 800603c:	4b03      	ldr	r3, [pc, #12]	; (800604c <xPortSysTickHandler+0x28>)
 800603e:	f04f 5280 	mov.w	r2, #268435456	; 0x10000000
 8006042:	601a      	str	r2, [r3, #0]
 8006044:	2300      	movs	r3, #0
 8006046:	f383 8811 	msr	BASEPRI, r3
 800604a:	bd08      	pop	{r3, pc}
 800604c:	e000ed04 	.word	0xe000ed04

08006050 <vPortSetupTimerInterrupt>:
 8006050:	4a08      	ldr	r2, [pc, #32]	; (8006074 <vPortSetupTimerInterrupt+0x24>)
 8006052:	4909      	ldr	r1, [pc, #36]	; (8006078 <vPortSetupTimerInterrupt+0x28>)
 8006054:	2300      	movs	r3, #0
 8006056:	6013      	str	r3, [r2, #0]
 8006058:	600b      	str	r3, [r1, #0]
 800605a:	4b08      	ldr	r3, [pc, #32]	; (800607c <vPortSetupTimerInterrupt+0x2c>)
 800605c:	f44f 717a 	mov.w	r1, #1000	; 0x3e8
 8006060:	681b      	ldr	r3, [r3, #0]
 8006062:	fbb3 f3f1 	udiv	r3, r3, r1
 8006066:	4906      	ldr	r1, [pc, #24]	; (8006080 <vPortSetupTimerInterrupt+0x30>)
 8006068:	3b01      	subs	r3, #1
 800606a:	600b      	str	r3, [r1, #0]
 800606c:	2307      	movs	r3, #7
 800606e:	6013      	str	r3, [r2, #0]
 8006070:	4770      	bx	lr
 8006072:	bf00      	nop
 8006074:	e000e010 	.word	0xe000e010
 8006078:	e000e018 	.word	0xe000e018
 800607c:	200000a4 	.word	0x200000a4
 8006080:	e000e014 	.word	0xe000e014

08006084 <xPortStartScheduler>:
 8006084:	4b39      	ldr	r3, [pc, #228]	; (800616c <xPortStartScheduler+0xe8>)
 8006086:	4a3a      	ldr	r2, [pc, #232]	; (8006170 <xPortStartScheduler+0xec>)
 8006088:	b513      	push	{r0, r1, r4, lr}
 800608a:	6819      	ldr	r1, [r3, #0]
 800608c:	4291      	cmp	r1, r2
 800608e:	d108      	bne.n	80060a2 <xPortStartScheduler+0x1e>
 8006090:	f04f 0350 	mov.w	r3, #80	; 0x50
 8006094:	f383 8811 	msr	BASEPRI, r3
 8006098:	f3bf 8f6f 	isb	sy
 800609c:	f3bf 8f4f 	dsb	sy
 80060a0:	e7fe      	b.n	80060a0 <xPortStartScheduler+0x1c>
 80060a2:	681a      	ldr	r2, [r3, #0]
 80060a4:	4b33      	ldr	r3, [pc, #204]	; (8006174 <xPortStartScheduler+0xf0>)
 80060a6:	429a      	cmp	r2, r3
 80060a8:	d108      	bne.n	80060bc <xPortStartScheduler+0x38>
 80060aa:	f04f 0350 	mov.w	r3, #80	; 0x50
 80060ae:	f383 8811 	msr	BASEPRI, r3
 80060b2:	f3bf 8f6f 	isb	sy
 80060b6:	f3bf 8f4f 	dsb	sy
 80060ba:	e7fe      	b.n	80060ba <xPortStartScheduler+0x36>
 80060bc:	4b2e      	ldr	r3, [pc, #184]	; (8006178 <xPortStartScheduler+0xf4>)
 80060be:	781a      	ldrb	r2, [r3, #0]
 80060c0:	b2d2      	uxtb	r2, r2
 80060c2:	9201      	str	r2, [sp, #4]
 80060c4:	22ff      	movs	r2, #255	; 0xff
 80060c6:	701a      	strb	r2, [r3, #0]
 80060c8:	781b      	ldrb	r3, [r3, #0]
 80060ca:	4a2c      	ldr	r2, [pc, #176]	; (800617c <xPortStartScheduler+0xf8>)
 80060cc:	b2db      	uxtb	r3, r3
 80060ce:	f88d 3003 	strb.w	r3, [sp, #3]
 80060d2:	f89d 3003 	ldrb.w	r3, [sp, #3]
 80060d6:	f003 0350 	and.w	r3, r3, #80	; 0x50
 80060da:	7013      	strb	r3, [r2, #0]
 80060dc:	4b28      	ldr	r3, [pc, #160]	; (8006180 <xPortStartScheduler+0xfc>)
 80060de:	2207      	movs	r2, #7
 80060e0:	601a      	str	r2, [r3, #0]
 80060e2:	2100      	movs	r1, #0
 80060e4:	f89d 0003 	ldrb.w	r0, [sp, #3]
 80060e8:	0600      	lsls	r0, r0, #24
 80060ea:	f102 34ff 	add.w	r4, r2, #4294967295	; 0xffffffff
 80060ee:	d40d      	bmi.n	800610c <xPortStartScheduler+0x88>
 80060f0:	b101      	cbz	r1, 80060f4 <xPortStartScheduler+0x70>
 80060f2:	601a      	str	r2, [r3, #0]
 80060f4:	681a      	ldr	r2, [r3, #0]
 80060f6:	2a03      	cmp	r2, #3
 80060f8:	d011      	beq.n	800611e <xPortStartScheduler+0x9a>
 80060fa:	f04f 0350 	mov.w	r3, #80	; 0x50
 80060fe:	f383 8811 	msr	BASEPRI, r3
 8006102:	f3bf 8f6f 	isb	sy
 8006106:	f3bf 8f4f 	dsb	sy
 800610a:	e7fe      	b.n	800610a <xPortStartScheduler+0x86>
 800610c:	f89d 2003 	ldrb.w	r2, [sp, #3]
 8006110:	0052      	lsls	r2, r2, #1
 8006112:	b2d2      	uxtb	r2, r2
 8006114:	f88d 2003 	strb.w	r2, [sp, #3]
 8006118:	2101      	movs	r1, #1
 800611a:	4622      	mov	r2, r4
 800611c:	e7e2      	b.n	80060e4 <xPortStartScheduler+0x60>
 800611e:	0212      	lsls	r2, r2, #8
 8006120:	f402 62e0 	and.w	r2, r2, #1792	; 0x700
 8006124:	601a      	str	r2, [r3, #0]
 8006126:	9b01      	ldr	r3, [sp, #4]
 8006128:	4a13      	ldr	r2, [pc, #76]	; (8006178 <xPortStartScheduler+0xf4>)
 800612a:	b2db      	uxtb	r3, r3
 800612c:	7013      	strb	r3, [r2, #0]
 800612e:	4b15      	ldr	r3, [pc, #84]	; (8006184 <xPortStartScheduler+0x100>)
 8006130:	681a      	ldr	r2, [r3, #0]
 8006132:	f442 0270 	orr.w	r2, r2, #15728640	; 0xf00000
 8006136:	601a      	str	r2, [r3, #0]
 8006138:	681a      	ldr	r2, [r3, #0]
 800613a:	f042 4270 	orr.w	r2, r2, #4026531840	; 0xf0000000
 800613e:	601a      	str	r2, [r3, #0]
 8006140:	f7ff ff86 	bl	8006050 <vPortSetupTimerInterrupt>
 8006144:	4b10      	ldr	r3, [pc, #64]	; (8006188 <xPortStartScheduler+0x104>)
 8006146:	2400      	movs	r4, #0
 8006148:	601c      	str	r4, [r3, #0]
 800614a:	f7ff fecf 	bl	8005eec <vPortEnableVFP>
 800614e:	4a0f      	ldr	r2, [pc, #60]	; (800618c <xPortStartScheduler+0x108>)
 8006150:	6813      	ldr	r3, [r2, #0]
 8006152:	f043 4340 	orr.w	r3, r3, #3221225472	; 0xc0000000
 8006156:	6013      	str	r3, [r2, #0]
 8006158:	f7ff feb4 	bl	8005ec4 <prvPortStartFirstTask>
 800615c:	f7ff fb3e 	bl	80057dc <vTaskSwitchContext>
 8006160:	f7ff fe90 	bl	8005e84 <prvTaskExitError>
 8006164:	4620      	mov	r0, r4
 8006166:	b002      	add	sp, #8
 8006168:	bd10      	pop	{r4, pc}
 800616a:	bf00      	nop
 800616c:	e000ed00 	.word	0xe000ed00
 8006170:	410fc271 	.word	0x410fc271
 8006174:	410fc270 	.word	0x410fc270
 8006178:	e000e400 	.word	0xe000e400
 800617c:	20000dc8 	.word	0x20000dc8
 8006180:	20000dcc 	.word	0x20000dcc
 8006184:	e000ed20 	.word	0xe000ed20
 8006188:	200000b0 	.word	0x200000b0
 800618c:	e000ef34 	.word	0xe000ef34

08006190 <vPortValidateInterruptPriority>:
 8006190:	f3ef 8305 	mrs	r3, IPSR
 8006194:	2b0f      	cmp	r3, #15
 8006196:	d90e      	bls.n	80061b6 <vPortValidateInterruptPriority+0x26>
 8006198:	4a10      	ldr	r2, [pc, #64]	; (80061dc <vPortValidateInterruptPriority+0x4c>)
 800619a:	5c9b      	ldrb	r3, [r3, r2]
 800619c:	4a10      	ldr	r2, [pc, #64]	; (80061e0 <vPortValidateInterruptPriority+0x50>)
 800619e:	7812      	ldrb	r2, [r2, #0]
 80061a0:	429a      	cmp	r2, r3
 80061a2:	d908      	bls.n	80061b6 <vPortValidateInterruptPriority+0x26>
 80061a4:	f04f 0350 	mov.w	r3, #80	; 0x50
 80061a8:	f383 8811 	msr	BASEPRI, r3
 80061ac:	f3bf 8f6f 	isb	sy
 80061b0:	f3bf 8f4f 	dsb	sy
 80061b4:	e7fe      	b.n	80061b4 <vPortValidateInterruptPriority+0x24>
 80061b6:	4b0b      	ldr	r3, [pc, #44]	; (80061e4 <vPortValidateInterruptPriority+0x54>)
 80061b8:	4a0b      	ldr	r2, [pc, #44]	; (80061e8 <vPortValidateInterruptPriority+0x58>)
 80061ba:	681b      	ldr	r3, [r3, #0]
 80061bc:	6812      	ldr	r2, [r2, #0]
 80061be:	f403 63e0 	and.w	r3, r3, #1792	; 0x700
 80061c2:	4293      	cmp	r3, r2
 80061c4:	d908      	bls.n	80061d8 <vPortValidateInterruptPriority+0x48>
 80061c6:	f04f 0350 	mov.w	r3, #80	; 0x50
 80061ca:	f383 8811 	msr	BASEPRI, r3
 80061ce:	f3bf 8f6f 	isb	sy
 80061d2:	f3bf 8f4f 	dsb	sy
 80061d6:	e7fe      	b.n	80061d6 <vPortValidateInterruptPriority+0x46>
 80061d8:	4770      	bx	lr
 80061da:	bf00      	nop
 80061dc:	e000e3f0 	.word	0xe000e3f0
 80061e0:	20000dc8 	.word	0x20000dc8
 80061e4:	e000ed0c 	.word	0xe000ed0c
 80061e8:	20000dcc 	.word	0x20000dcc

080061ec <prvInsertBlockIntoFreeList>:
 80061ec:	b510      	push	{r4, lr}
 80061ee:	4b0f      	ldr	r3, [pc, #60]	; (800622c <prvInsertBlockIntoFreeList+0x40>)
 80061f0:	681a      	ldr	r2, [r3, #0]
 80061f2:	4282      	cmp	r2, r0
 80061f4:	d318      	bcc.n	8006228 <prvInsertBlockIntoFreeList+0x3c>
 80061f6:	685c      	ldr	r4, [r3, #4]
 80061f8:	1919      	adds	r1, r3, r4
 80061fa:	4288      	cmp	r0, r1
 80061fc:	bf01      	itttt	eq
 80061fe:	6841      	ldreq	r1, [r0, #4]
 8006200:	4618      	moveq	r0, r3
 8006202:	1909      	addeq	r1, r1, r4
 8006204:	6059      	streq	r1, [r3, #4]
 8006206:	6844      	ldr	r4, [r0, #4]
 8006208:	1901      	adds	r1, r0, r4
 800620a:	428a      	cmp	r2, r1
 800620c:	d107      	bne.n	800621e <prvInsertBlockIntoFreeList+0x32>
 800620e:	4908      	ldr	r1, [pc, #32]	; (8006230 <prvInsertBlockIntoFreeList+0x44>)
 8006210:	6809      	ldr	r1, [r1, #0]
 8006212:	428a      	cmp	r2, r1
 8006214:	bf1f      	itttt	ne
 8006216:	6851      	ldrne	r1, [r2, #4]
 8006218:	6812      	ldrne	r2, [r2, #0]
 800621a:	1909      	addne	r1, r1, r4
 800621c:	6041      	strne	r1, [r0, #4]
 800621e:	4298      	cmp	r0, r3
 8006220:	6002      	str	r2, [r0, #0]
 8006222:	bf18      	it	ne
 8006224:	6018      	strne	r0, [r3, #0]
 8006226:	bd10      	pop	{r4, pc}
 8006228:	4613      	mov	r3, r2
 800622a:	e7e1      	b.n	80061f0 <prvInsertBlockIntoFreeList+0x4>
 800622c:	200019e0 	.word	0x200019e0
 8006230:	20000dd0 	.word	0x20000dd0

08006234 <pvPortMalloc>:
 8006234:	e92d 41f0 	stmdb	sp!, {r4, r5, r6, r7, r8, lr}
 8006238:	4604      	mov	r4, r0
 800623a:	f7ff f999 	bl	8005570 <vTaskSuspendAll>
 800623e:	493d      	ldr	r1, [pc, #244]	; (8006334 <pvPortMalloc+0x100>)
 8006240:	4d3d      	ldr	r5, [pc, #244]	; (8006338 <pvPortMalloc+0x104>)
 8006242:	680b      	ldr	r3, [r1, #0]
 8006244:	b9fb      	cbnz	r3, 8006286 <pvPortMalloc+0x52>
 8006246:	4a3d      	ldr	r2, [pc, #244]	; (800633c <pvPortMalloc+0x108>)
 8006248:	0756      	lsls	r6, r2, #29
 800624a:	f502 6340 	add.w	r3, r2, #3072	; 0xc00
 800624e:	bf1d      	ittte	ne
 8006250:	3207      	addne	r2, #7
 8006252:	f022 0207 	bicne.w	r2, r2, #7
 8006256:	1a9b      	subne	r3, r3, r2
 8006258:	f44f 6340 	moveq.w	r3, #3072	; 0xc00
 800625c:	4413      	add	r3, r2
 800625e:	4e38      	ldr	r6, [pc, #224]	; (8006340 <pvPortMalloc+0x10c>)
 8006260:	3b08      	subs	r3, #8
 8006262:	f023 0307 	bic.w	r3, r3, #7
 8006266:	2000      	movs	r0, #0
 8006268:	6070      	str	r0, [r6, #4]
 800626a:	6032      	str	r2, [r6, #0]
 800626c:	e9c3 0000 	strd	r0, r0, [r3]
 8006270:	1a98      	subs	r0, r3, r2
 8006272:	600b      	str	r3, [r1, #0]
 8006274:	e9c2 3000 	strd	r3, r0, [r2]
 8006278:	4b32      	ldr	r3, [pc, #200]	; (8006344 <pvPortMalloc+0x110>)
 800627a:	6018      	str	r0, [r3, #0]
 800627c:	4b32      	ldr	r3, [pc, #200]	; (8006348 <pvPortMalloc+0x114>)
 800627e:	6018      	str	r0, [r3, #0]
 8006280:	f04f 4300 	mov.w	r3, #2147483648	; 0x80000000
 8006284:	602b      	str	r3, [r5, #0]
 8006286:	682f      	ldr	r7, [r5, #0]
 8006288:	4227      	tst	r7, r4
 800628a:	d14e      	bne.n	800632a <pvPortMalloc+0xf6>
 800628c:	2c00      	cmp	r4, #0
 800628e:	d03f      	beq.n	8006310 <pvPortMalloc+0xdc>
 8006290:	f104 0308 	add.w	r3, r4, #8
 8006294:	0758      	lsls	r0, r3, #29
 8006296:	bf1c      	itt	ne
 8006298:	f023 0307 	bicne.w	r3, r3, #7
 800629c:	3308      	addne	r3, #8
 800629e:	2b00      	cmp	r3, #0
 80062a0:	d043      	beq.n	800632a <pvPortMalloc+0xf6>
 80062a2:	4a29      	ldr	r2, [pc, #164]	; (8006348 <pvPortMalloc+0x114>)
 80062a4:	6816      	ldr	r6, [r2, #0]
 80062a6:	429e      	cmp	r6, r3
 80062a8:	4690      	mov	r8, r2
 80062aa:	d33e      	bcc.n	800632a <pvPortMalloc+0xf6>
 80062ac:	4a24      	ldr	r2, [pc, #144]	; (8006340 <pvPortMalloc+0x10c>)
 80062ae:	6815      	ldr	r5, [r2, #0]
 80062b0:	6868      	ldr	r0, [r5, #4]
 80062b2:	4298      	cmp	r0, r3
 80062b4:	d201      	bcs.n	80062ba <pvPortMalloc+0x86>
 80062b6:	682c      	ldr	r4, [r5, #0]
 80062b8:	b9a4      	cbnz	r4, 80062e4 <pvPortMalloc+0xb0>
 80062ba:	6809      	ldr	r1, [r1, #0]
 80062bc:	42a9      	cmp	r1, r5
 80062be:	d034      	beq.n	800632a <pvPortMalloc+0xf6>
 80062c0:	6829      	ldr	r1, [r5, #0]
 80062c2:	6814      	ldr	r4, [r2, #0]
 80062c4:	6011      	str	r1, [r2, #0]
 80062c6:	1ac2      	subs	r2, r0, r3
 80062c8:	2a10      	cmp	r2, #16
 80062ca:	d912      	bls.n	80062f2 <pvPortMalloc+0xbe>
 80062cc:	18e8      	adds	r0, r5, r3
 80062ce:	0741      	lsls	r1, r0, #29
 80062d0:	d00b      	beq.n	80062ea <pvPortMalloc+0xb6>
 80062d2:	f04f 0350 	mov.w	r3, #80	; 0x50
 80062d6:	f383 8811 	msr	BASEPRI, r3
 80062da:	f3bf 8f6f 	isb	sy
 80062de:	f3bf 8f4f 	dsb	sy
 80062e2:	e7fe      	b.n	80062e2 <pvPortMalloc+0xae>
 80062e4:	462a      	mov	r2, r5
 80062e6:	4625      	mov	r5, r4
 80062e8:	e7e2      	b.n	80062b0 <pvPortMalloc+0x7c>
 80062ea:	6042      	str	r2, [r0, #4]
 80062ec:	606b      	str	r3, [r5, #4]
 80062ee:	f7ff ff7d 	bl	80061ec <prvInsertBlockIntoFreeList>
 80062f2:	4914      	ldr	r1, [pc, #80]	; (8006344 <pvPortMalloc+0x110>)
 80062f4:	686b      	ldr	r3, [r5, #4]
 80062f6:	6808      	ldr	r0, [r1, #0]
 80062f8:	1af6      	subs	r6, r6, r3
 80062fa:	431f      	orrs	r7, r3
 80062fc:	4286      	cmp	r6, r0
 80062fe:	f04f 0300 	mov.w	r3, #0
 8006302:	f8c8 6000 	str.w	r6, [r8]
 8006306:	bf38      	it	cc
 8006308:	600e      	strcc	r6, [r1, #0]
 800630a:	3408      	adds	r4, #8
 800630c:	606f      	str	r7, [r5, #4]
 800630e:	602b      	str	r3, [r5, #0]
 8006310:	f7ff f9cc 	bl	80056ac <xTaskResumeAll>
 8006314:	0763      	lsls	r3, r4, #29
 8006316:	d00a      	beq.n	800632e <pvPortMalloc+0xfa>
 8006318:	f04f 0350 	mov.w	r3, #80	; 0x50
 800631c:	f383 8811 	msr	BASEPRI, r3
 8006320:	f3bf 8f6f 	isb	sy
 8006324:	f3bf 8f4f 	dsb	sy
 8006328:	e7fe      	b.n	8006328 <pvPortMalloc+0xf4>
 800632a:	2400      	movs	r4, #0
 800632c:	e7f0      	b.n	8006310 <pvPortMalloc+0xdc>
 800632e:	4620      	mov	r0, r4
 8006330:	e8bd 81f0 	ldmia.w	sp!, {r4, r5, r6, r7, r8, pc}
 8006334:	20000dd0 	.word	0x20000dd0
 8006338:	200019d4 	.word	0x200019d4
 800633c:	20000dd4 	.word	0x20000dd4
 8006340:	200019e0 	.word	0x200019e0
 8006344:	200019dc 	.word	0x200019dc
 8006348:	200019d8 	.word	0x200019d8

0800634c <vPortFree>:
 800634c:	b510      	push	{r4, lr}
 800634e:	4604      	mov	r4, r0
 8006350:	b370      	cbz	r0, 80063b0 <vPortFree+0x64>
 8006352:	4a18      	ldr	r2, [pc, #96]	; (80063b4 <vPortFree+0x68>)
 8006354:	f850 3c04 	ldr.w	r3, [r0, #-4]
 8006358:	6812      	ldr	r2, [r2, #0]
 800635a:	4213      	tst	r3, r2
 800635c:	d108      	bne.n	8006370 <vPortFree+0x24>
 800635e:	f04f 0350 	mov.w	r3, #80	; 0x50
 8006362:	f383 8811 	msr	BASEPRI, r3
 8006366:	f3bf 8f6f 	isb	sy
 800636a:	f3bf 8f4f 	dsb	sy
 800636e:	e7fe      	b.n	800636e <vPortFree+0x22>
 8006370:	f850 1c08 	ldr.w	r1, [r0, #-8]
 8006374:	b141      	cbz	r1, 8006388 <vPortFree+0x3c>
 8006376:	f04f 0350 	mov.w	r3, #80	; 0x50
 800637a:	f383 8811 	msr	BASEPRI, r3
 800637e:	f3bf 8f6f 	isb	sy
 8006382:	f3bf 8f4f 	dsb	sy
 8006386:	e7fe      	b.n	8006386 <vPortFree+0x3a>
 8006388:	ea23 0302 	bic.w	r3, r3, r2
 800638c:	f840 3c04 	str.w	r3, [r0, #-4]
 8006390:	f7ff f8ee 	bl	8005570 <vTaskSuspendAll>
 8006394:	4a08      	ldr	r2, [pc, #32]	; (80063b8 <vPortFree+0x6c>)
 8006396:	f854 3c04 	ldr.w	r3, [r4, #-4]
 800639a:	6811      	ldr	r1, [r2, #0]
 800639c:	f1a4 0008 	sub.w	r0, r4, #8
 80063a0:	440b      	add	r3, r1
 80063a2:	6013      	str	r3, [r2, #0]
 80063a4:	f7ff ff22 	bl	80061ec <prvInsertBlockIntoFreeList>
 80063a8:	e8bd 4010 	ldmia.w	sp!, {r4, lr}
 80063ac:	f7ff b97e 	b.w	80056ac <xTaskResumeAll>
 80063b0:	bd10      	pop	{r4, pc}
 80063b2:	bf00      	nop
 80063b4:	200019d4 	.word	0x200019d4
 80063b8:	200019d8 	.word	0x200019d8

080063bc <__libc_init_array>:
 80063bc:	b570      	push	{r4, r5, r6, lr}
 80063be:	4e0d      	ldr	r6, [pc, #52]	; (80063f4 <__libc_init_array+0x38>)
 80063c0:	4c0d      	ldr	r4, [pc, #52]	; (80063f8 <__libc_init_array+0x3c>)
 80063c2:	1ba4      	subs	r4, r4, r6
 80063c4:	10a4      	asrs	r4, r4, #2
 80063c6:	2500      	movs	r5, #0
 80063c8:	42a5      	cmp	r5, r4
 80063ca:	d109      	bne.n	80063e0 <__libc_init_array+0x24>
 80063cc:	4e0b      	ldr	r6, [pc, #44]	; (80063fc <__libc_init_array+0x40>)
 80063ce:	4c0c      	ldr	r4, [pc, #48]	; (8006400 <__libc_init_array+0x44>)
 80063d0:	f000 f850 	bl	8006474 <_init>
 80063d4:	1ba4      	subs	r4, r4, r6
 80063d6:	10a4      	asrs	r4, r4, #2
 80063d8:	2500      	movs	r5, #0
 80063da:	42a5      	cmp	r5, r4
 80063dc:	d105      	bne.n	80063ea <__libc_init_array+0x2e>
 80063de:	bd70      	pop	{r4, r5, r6, pc}
 80063e0:	f856 3025 	ldr.w	r3, [r6, r5, lsl #2]
 80063e4:	4798      	blx	r3
 80063e6:	3501      	adds	r5, #1
 80063e8:	e7ee      	b.n	80063c8 <__libc_init_array+0xc>
 80063ea:	f856 3025 	ldr.w	r3, [r6, r5, lsl #2]
 80063ee:	4798      	blx	r3
 80063f0:	3501      	adds	r5, #1
 80063f2:	e7f2      	b.n	80063da <__libc_init_array+0x1e>
 80063f4:	0800675c 	.word	0x0800675c
 80063f8:	0800675c 	.word	0x0800675c
 80063fc:	0800675c 	.word	0x0800675c
 8006400:	08006760 	.word	0x08006760

08006404 <memcpy>:
 8006404:	b510      	push	{r4, lr}
 8006406:	1e43      	subs	r3, r0, #1
 8006408:	440a      	add	r2, r1
 800640a:	4291      	cmp	r1, r2
 800640c:	d100      	bne.n	8006410 <memcpy+0xc>
 800640e:	bd10      	pop	{r4, pc}
 8006410:	f811 4b01 	ldrb.w	r4, [r1], #1
 8006414:	f803 4f01 	strb.w	r4, [r3, #1]!
 8006418:	e7f7      	b.n	800640a <memcpy+0x6>

0800641a <memset>:
 800641a:	4402      	add	r2, r0
 800641c:	4603      	mov	r3, r0
 800641e:	4293      	cmp	r3, r2
 8006420:	d100      	bne.n	8006424 <memset+0xa>
 8006422:	4770      	bx	lr
 8006424:	f803 1b01 	strb.w	r1, [r3], #1
 8006428:	e7f9      	b.n	800641e <memset+0x4>

0800642a <strcat>:
 800642a:	b510      	push	{r4, lr}
 800642c:	4603      	mov	r3, r0
 800642e:	781a      	ldrb	r2, [r3, #0]
 8006430:	1c5c      	adds	r4, r3, #1
 8006432:	b93a      	cbnz	r2, 8006444 <strcat+0x1a>
 8006434:	3b01      	subs	r3, #1
 8006436:	f811 2b01 	ldrb.w	r2, [r1], #1
 800643a:	f803 2f01 	strb.w	r2, [r3, #1]!
 800643e:	2a00      	cmp	r2, #0
 8006440:	d1f9      	bne.n	8006436 <strcat+0xc>
 8006442:	bd10      	pop	{r4, pc}
 8006444:	4623      	mov	r3, r4
 8006446:	e7f2      	b.n	800642e <strcat+0x4>

08006448 <strncpy>:
 8006448:	b570      	push	{r4, r5, r6, lr}
 800644a:	3901      	subs	r1, #1
 800644c:	4604      	mov	r4, r0
 800644e:	b902      	cbnz	r2, 8006452 <strncpy+0xa>
 8006450:	bd70      	pop	{r4, r5, r6, pc}
 8006452:	4623      	mov	r3, r4
 8006454:	f811 5f01 	ldrb.w	r5, [r1, #1]!
 8006458:	f803 5b01 	strb.w	r5, [r3], #1
 800645c:	1e56      	subs	r6, r2, #1
 800645e:	b92d      	cbnz	r5, 800646c <strncpy+0x24>
 8006460:	4414      	add	r4, r2
 8006462:	42a3      	cmp	r3, r4
 8006464:	d0f4      	beq.n	8006450 <strncpy+0x8>
 8006466:	f803 5b01 	strb.w	r5, [r3], #1
 800646a:	e7fa      	b.n	8006462 <strncpy+0x1a>
 800646c:	461c      	mov	r4, r3
 800646e:	4632      	mov	r2, r6
 8006470:	e7ed      	b.n	800644e <strncpy+0x6>
	...

08006474 <_init>:
 8006474:	b5f8      	push	{r3, r4, r5, r6, r7, lr}
 8006476:	bf00      	nop
 8006478:	bcf8      	pop	{r3, r4, r5, r6, r7}
 800647a:	bc08      	pop	{r3}
 800647c:	469e      	mov	lr, r3
 800647e:	4770      	bx	lr

08006480 <_fini>:
 8006480:	b5f8      	push	{r3, r4, r5, r6, r7, lr}
 8006482:	bf00      	nop
 8006484:	bcf8      	pop	{r3, r4, r5, r6, r7}
 8006486:	bc08      	pop	{r3}
 8006488:	469e      	mov	lr, r3
 800648a:	4770      	bx	lr
